
/home/lc_sagacity/work/arm/100ask/all_module_tests_of_JZ2440/TEMP/AllModuleTestsofJZ2440.elf:     file format elf32-littlearm

Disassembly of section .text:

30000000 <_start>:
30000000:	ea00002f 	b	300000c4 <reset>
30000004:	e59ff014 	ldr	pc, [pc, #20]	; 30000020 <und_addr>
30000008:	e59ff014 	ldr	pc, [pc, #20]	; 30000024 <swi_addr>
3000000c:	ea000054 	b	30000164 <halt>
30000010:	ea000053 	b	30000164 <halt>
30000014:	ea000052 	b	30000164 <halt>
30000018:	e59ff008 	ldr	pc, [pc, #8]	; 30000028 <irq_addr>
3000001c:	ea000050 	b	30000164 <halt>

30000020 <und_addr>:
30000020:	3000002c 	andcc	r0, r0, ip, lsr #32

30000024 <swi_addr>:
30000024:	30000070 	andcc	r0, r0, r0, ror r0

30000028 <irq_addr>:
30000028:	300000b0 	strcch	r0, [r0], -r0

3000002c <do_und>:
3000002c:	e3a0d30d 	mov	sp, #872415232	; 0x34000000
30000030:	e92d5fff 	stmdb	sp!, {r0, r1, r2, r3, r4, r5, r6, r7, r8, r9, sl, fp, ip, lr}
30000034:	e10f0000 	mrs	r0, CPSR
30000038:	e59f1128 	ldr	r1, [pc, #296]	; 30000168 <.text+0x168>
3000003c:	eb000506 	bl	3000145c <printException>
30000040:	e8fd9fff 	ldmia	sp!, {r0, r1, r2, r3, r4, r5, r6, r7, r8, r9, sl, fp, ip, pc}^

30000044 <und_string>:
30000044:	65646e75 	strvsb	r6, [r4, #-3701]!
30000048:	656e6966 	strvsb	r6, [lr, #-2406]!
3000004c:	6e692064 	cdpvs	0, 6, cr2, cr9, cr4, {3}
30000050:	75727473 	ldrvcb	r7, [r2, #-1139]!
30000054:	6f697463 	swivs	0x00697463
30000058:	7865206e 	stmvcda	r5!, {r1, r2, r3, r5, r6, sp}^
3000005c:	74706563 	ldrvcbt	r6, [r0], #-1379
30000060:	006e6f69 	rsbeq	r6, lr, r9, ror #30
	...

30000070 <do_swi>:
30000070:	e59fd0f4 	ldr	sp, [pc, #244]	; 3000016c <.text+0x16c>
30000074:	e92d5fff 	stmdb	sp!, {r0, r1, r2, r3, r4, r5, r6, r7, r8, r9, sl, fp, ip, lr}
30000078:	e1a0400e 	mov	r4, lr
3000007c:	e10f0000 	mrs	r0, CPSR
30000080:	e59f10e8 	ldr	r1, [pc, #232]	; 30000170 <.text+0x170>
30000084:	eb0004f4 	bl	3000145c <printException>
30000088:	e2440004 	sub	r0, r4, #4	; 0x4
3000008c:	eb000503 	bl	300014a0 <printSWIVal>
30000090:	e8fd9fff 	ldmia	sp!, {r0, r1, r2, r3, r4, r5, r6, r7, r8, r9, sl, fp, ip, pc}^

30000094 <swi_string>:
30000094:	20697773 	rsbcs	r7, r9, r3, ror r7
30000098:	65637865 	strvsb	r7, [r3, #-2149]!
3000009c:	6f697470 	swivs	0x00697470
300000a0:	0000006e 	andeq	r0, r0, lr, rrx
	...

300000b0 <do_irq>:
300000b0:	e59fd0bc 	ldr	sp, [pc, #188]	; 30000174 <.text+0x174>
300000b4:	e24ee004 	sub	lr, lr, #4	; 0x4
300000b8:	e92d5fff 	stmdb	sp!, {r0, r1, r2, r3, r4, r5, r6, r7, r8, r9, sl, fp, ip, lr}
300000bc:	eb00054f 	bl	30001600 <HandleIrqC>
300000c0:	e8fd9fff 	ldmia	sp!, {r0, r1, r2, r3, r4, r5, r6, r7, r8, r9, sl, fp, ip, pc}^

300000c4 <reset>:
300000c4:	e3a00453 	mov	r0, #1392508928	; 0x53000000
300000c8:	e3a01000 	mov	r1, #0	; 0x0
300000cc:	e5801000 	str	r1, [r0]
300000d0:	e3a00313 	mov	r0, #1275068416	; 0x4c000000
300000d4:	e3e01000 	mvn	r1, #0	; 0x0
300000d8:	e5801000 	str	r1, [r0]
300000dc:	e59f0094 	ldr	r0, [pc, #148]	; 30000178 <.text+0x178>
300000e0:	e3a01005 	mov	r1, #5	; 0x5
300000e4:	e5801000 	str	r1, [r0]
300000e8:	ee110f10 	mrc	15, 0, r0, cr1, cr0, {0}
300000ec:	e3800103 	orr	r0, r0, #-1073741824	; 0xc0000000
300000f0:	ee010f10 	mcr	15, 0, r0, cr1, cr0, {0}
300000f4:	e59f0080 	ldr	r0, [pc, #128]	; 3000017c <.text+0x17c>
300000f8:	e59f1080 	ldr	r1, [pc, #128]	; 30000180 <.text+0x180>
300000fc:	e5801000 	str	r1, [r0]
30000100:	e3a01000 	mov	r1, #0	; 0x0
30000104:	e5910000 	ldr	r0, [r1]
30000108:	e5811000 	str	r1, [r1]
3000010c:	e5912000 	ldr	r2, [r1]
30000110:	e1510002 	cmp	r1, r2
30000114:	e59fd068 	ldr	sp, [pc, #104]	; 30000184 <.text+0x184>
30000118:	03a0da01 	moveq	sp, #4096	; 0x1000
3000011c:	05810000 	streq	r0, [r1]
30000120:	eb000348 	bl	30000e48 <inituart0>
30000124:	eb000371 	bl	30000ef0 <initsdram>
30000128:	eb000317 	bl	30000d8c <copy2sdram>
3000012c:	eb00033a 	bl	30000e1c <cleanbss>
30000130:	e10f0000 	mrs	r0, CPSR
30000134:	e3c0000f 	bic	r0, r0, #15	; 0xf
30000138:	e3c00080 	bic	r0, r0, #128	; 0x80
3000013c:	e129f000 	msr	CPSR_fc, r0
30000140:	e59fd040 	ldr	sp, [pc, #64]	; 30000188 <.text+0x188>
30000144:	e59ff040 	ldr	pc, [pc, #64]	; 3000018c <.text+0x18c>

30000148 <sdram>:
30000148:	e59f1040 	ldr	r1, [pc, #64]	; 30000190 <.text+0x190>
3000014c:	e3a00c01 	mov	r0, #256	; 0x100
30000150:	e5810000 	str	r0, [r1]
30000154:	e59f1038 	ldr	r1, [pc, #56]	; 30000194 <.text+0x194>
30000158:	e3a00000 	mov	r0, #0	; 0x0
3000015c:	e5810000 	str	r0, [r1]
30000160:	e59ff030 	ldr	pc, [pc, #48]	; 30000198 <.text+0x198>

30000164 <halt>:
30000164:	eafffffe 	b	30000164 <halt>
30000168:	30000044 	andcc	r0, r0, r4, asr #32
3000016c:	33e00000 	mvncc	r0, #0	; 0x0
30000170:	30000094 	mulcc	r0, r4, r0
30000174:	33d00000 	bicccs	r0, r0, #0	; 0x0
30000178:	4c000014 	stcmi	0, cr0, [r0], {20}
3000017c:	4c000004 	stcmi	0, cr0, [r0], {4}
30000180:	0005c011 	andeq	ip, r5, r1, lsl r0
30000184:	40001000 	andmi	r1, r0, r0
30000188:	33f00000 	mvnccs	r0, #0	; 0x0
3000018c:	30000148 	andcc	r0, r0, r8, asr #2
30000190:	56000050 	undefined
30000194:	56000054 	undefined
30000198:	30000fb0 	strcch	r0, [r0], -r0
3000019c:	e1a00000 	nop			(mov r0,r0)

300001a0 <__udivsi3>:
300001a0:	e2512001 	subs	r2, r1, #1	; 0x1
300001a4:	01a0f00e 	moveq	pc, lr
300001a8:	3a0000e5 	bcc	30000544 <Ldiv0>
300001ac:	e1500001 	cmp	r0, r1
300001b0:	9a000022 	bls	30000240 <__udivsi3+0xa0>
300001b4:	e1110002 	tst	r1, r2
300001b8:	0a000023 	beq	3000024c <__udivsi3+0xac>
300001bc:	e311020e 	tst	r1, #-536870912	; 0xe0000000
300001c0:	01a01181 	moveq	r1, r1, lsl #3
300001c4:	03a03008 	moveq	r3, #8	; 0x8
300001c8:	13a03001 	movne	r3, #1	; 0x1
300001cc:	e3510201 	cmp	r1, #268435456	; 0x10000000
300001d0:	31510000 	cmpcc	r1, r0
300001d4:	31a01201 	movcc	r1, r1, lsl #4
300001d8:	31a03203 	movcc	r3, r3, lsl #4
300001dc:	3afffffa 	bcc	300001cc <__udivsi3+0x2c>
300001e0:	e3510102 	cmp	r1, #-2147483648	; 0x80000000
300001e4:	31510000 	cmpcc	r1, r0
300001e8:	31a01081 	movcc	r1, r1, lsl #1
300001ec:	31a03083 	movcc	r3, r3, lsl #1
300001f0:	3afffffa 	bcc	300001e0 <__udivsi3+0x40>
300001f4:	e3a02000 	mov	r2, #0	; 0x0
300001f8:	e1500001 	cmp	r0, r1
300001fc:	20400001 	subcs	r0, r0, r1
30000200:	21822003 	orrcs	r2, r2, r3
30000204:	e15000a1 	cmp	r0, r1, lsr #1
30000208:	204000a1 	subcs	r0, r0, r1, lsr #1
3000020c:	218220a3 	orrcs	r2, r2, r3, lsr #1
30000210:	e1500121 	cmp	r0, r1, lsr #2
30000214:	20400121 	subcs	r0, r0, r1, lsr #2
30000218:	21822123 	orrcs	r2, r2, r3, lsr #2
3000021c:	e15001a1 	cmp	r0, r1, lsr #3
30000220:	204001a1 	subcs	r0, r0, r1, lsr #3
30000224:	218221a3 	orrcs	r2, r2, r3, lsr #3
30000228:	e3500000 	cmp	r0, #0	; 0x0
3000022c:	11b03223 	movnes	r3, r3, lsr #4
30000230:	11a01221 	movne	r1, r1, lsr #4
30000234:	1affffef 	bne	300001f8 <__udivsi3+0x58>
30000238:	e1a00002 	mov	r0, r2
3000023c:	e1a0f00e 	mov	pc, lr
30000240:	03a00001 	moveq	r0, #1	; 0x1
30000244:	13a00000 	movne	r0, #0	; 0x0
30000248:	e1a0f00e 	mov	pc, lr
3000024c:	e3510801 	cmp	r1, #65536	; 0x10000
30000250:	21a01821 	movcs	r1, r1, lsr #16
30000254:	23a02010 	movcs	r2, #16	; 0x10
30000258:	33a02000 	movcc	r2, #0	; 0x0
3000025c:	e3510c01 	cmp	r1, #256	; 0x100
30000260:	21a01421 	movcs	r1, r1, lsr #8
30000264:	22822008 	addcs	r2, r2, #8	; 0x8
30000268:	e3510010 	cmp	r1, #16	; 0x10
3000026c:	21a01221 	movcs	r1, r1, lsr #4
30000270:	22822004 	addcs	r2, r2, #4	; 0x4
30000274:	e3510004 	cmp	r1, #4	; 0x4
30000278:	82822003 	addhi	r2, r2, #3	; 0x3
3000027c:	908220a1 	addls	r2, r2, r1, lsr #1
30000280:	e1a00230 	mov	r0, r0, lsr r2
30000284:	e1a0f00e 	mov	pc, lr
30000288:	90909090 	umulllss	r9, r0, r0, r0
3000028c:	90909090 	umulllss	r9, r0, r0, r0

30000290 <__umodsi3>:
30000290:	e2512001 	subs	r2, r1, #1	; 0x1
30000294:	3a0000aa 	bcc	30000544 <Ldiv0>
30000298:	11500001 	cmpne	r0, r1
3000029c:	03a00000 	moveq	r0, #0	; 0x0
300002a0:	81110002 	tsthi	r1, r2
300002a4:	00000002 	andeq	r0, r0, r2
300002a8:	91a0f00e 	movls	pc, lr
300002ac:	e3a02000 	mov	r2, #0	; 0x0
300002b0:	e3510201 	cmp	r1, #268435456	; 0x10000000
300002b4:	31510000 	cmpcc	r1, r0
300002b8:	31a01201 	movcc	r1, r1, lsl #4
300002bc:	32822004 	addcc	r2, r2, #4	; 0x4
300002c0:	3afffffa 	bcc	300002b0 <__umodsi3+0x20>
300002c4:	e3510102 	cmp	r1, #-2147483648	; 0x80000000
300002c8:	31510000 	cmpcc	r1, r0
300002cc:	31a01081 	movcc	r1, r1, lsl #1
300002d0:	32822001 	addcc	r2, r2, #1	; 0x1
300002d4:	3afffffa 	bcc	300002c4 <__umodsi3+0x34>
300002d8:	e2522003 	subs	r2, r2, #3	; 0x3
300002dc:	ba00000e 	blt	3000031c <__umodsi3+0x8c>
300002e0:	e1500001 	cmp	r0, r1
300002e4:	20400001 	subcs	r0, r0, r1
300002e8:	e15000a1 	cmp	r0, r1, lsr #1
300002ec:	204000a1 	subcs	r0, r0, r1, lsr #1
300002f0:	e1500121 	cmp	r0, r1, lsr #2
300002f4:	20400121 	subcs	r0, r0, r1, lsr #2
300002f8:	e15001a1 	cmp	r0, r1, lsr #3
300002fc:	204001a1 	subcs	r0, r0, r1, lsr #3
30000300:	e3500001 	cmp	r0, #1	; 0x1
30000304:	e1a01221 	mov	r1, r1, lsr #4
30000308:	a2522004 	subges	r2, r2, #4	; 0x4
3000030c:	aafffff3 	bge	300002e0 <__umodsi3+0x50>
30000310:	e3120003 	tst	r2, #3	; 0x3
30000314:	13300000 	teqne	r0, #0	; 0x0
30000318:	0a00000a 	beq	30000348 <__umodsi3+0xb8>
3000031c:	e3720002 	cmn	r2, #2	; 0x2
30000320:	ba000006 	blt	30000340 <__umodsi3+0xb0>
30000324:	0a000002 	beq	30000334 <__umodsi3+0xa4>
30000328:	e1500001 	cmp	r0, r1
3000032c:	20400001 	subcs	r0, r0, r1
30000330:	e1a010a1 	mov	r1, r1, lsr #1
30000334:	e1500001 	cmp	r0, r1
30000338:	20400001 	subcs	r0, r0, r1
3000033c:	e1a010a1 	mov	r1, r1, lsr #1
30000340:	e1500001 	cmp	r0, r1
30000344:	20400001 	subcs	r0, r0, r1
30000348:	e1a0f00e 	mov	pc, lr
3000034c:	90909090 	umulllss	r9, r0, r0, r0

30000350 <__divsi3>:
30000350:	e3510000 	cmp	r1, #0	; 0x0
30000354:	e020c001 	eor	ip, r0, r1
30000358:	0a000079 	beq	30000544 <Ldiv0>
3000035c:	42611000 	rsbmi	r1, r1, #0	; 0x0
30000360:	e2512001 	subs	r2, r1, #1	; 0x1
30000364:	0a000027 	beq	30000408 <__divsi3+0xb8>
30000368:	e1b03000 	movs	r3, r0
3000036c:	42603000 	rsbmi	r3, r0, #0	; 0x0
30000370:	e1530001 	cmp	r3, r1
30000374:	9a000026 	bls	30000414 <__divsi3+0xc4>
30000378:	e1110002 	tst	r1, r2
3000037c:	0a000028 	beq	30000424 <__divsi3+0xd4>
30000380:	e311020e 	tst	r1, #-536870912	; 0xe0000000
30000384:	01a01181 	moveq	r1, r1, lsl #3
30000388:	03a02008 	moveq	r2, #8	; 0x8
3000038c:	13a02001 	movne	r2, #1	; 0x1
30000390:	e3510201 	cmp	r1, #268435456	; 0x10000000
30000394:	31510003 	cmpcc	r1, r3
30000398:	31a01201 	movcc	r1, r1, lsl #4
3000039c:	31a02202 	movcc	r2, r2, lsl #4
300003a0:	3afffffa 	bcc	30000390 <__divsi3+0x40>
300003a4:	e3510102 	cmp	r1, #-2147483648	; 0x80000000
300003a8:	31510003 	cmpcc	r1, r3
300003ac:	31a01081 	movcc	r1, r1, lsl #1
300003b0:	31a02082 	movcc	r2, r2, lsl #1
300003b4:	3afffffa 	bcc	300003a4 <__divsi3+0x54>
300003b8:	e3a00000 	mov	r0, #0	; 0x0
300003bc:	e1530001 	cmp	r3, r1
300003c0:	20433001 	subcs	r3, r3, r1
300003c4:	21800002 	orrcs	r0, r0, r2
300003c8:	e15300a1 	cmp	r3, r1, lsr #1
300003cc:	204330a1 	subcs	r3, r3, r1, lsr #1
300003d0:	218000a2 	orrcs	r0, r0, r2, lsr #1
300003d4:	e1530121 	cmp	r3, r1, lsr #2
300003d8:	20433121 	subcs	r3, r3, r1, lsr #2
300003dc:	21800122 	orrcs	r0, r0, r2, lsr #2
300003e0:	e15301a1 	cmp	r3, r1, lsr #3
300003e4:	204331a1 	subcs	r3, r3, r1, lsr #3
300003e8:	218001a2 	orrcs	r0, r0, r2, lsr #3
300003ec:	e3530000 	cmp	r3, #0	; 0x0
300003f0:	11b02222 	movnes	r2, r2, lsr #4
300003f4:	11a01221 	movne	r1, r1, lsr #4
300003f8:	1affffef 	bne	300003bc <__divsi3+0x6c>
300003fc:	e35c0000 	cmp	ip, #0	; 0x0
30000400:	42600000 	rsbmi	r0, r0, #0	; 0x0
30000404:	e1a0f00e 	mov	pc, lr
30000408:	e13c0000 	teq	ip, r0
3000040c:	42600000 	rsbmi	r0, r0, #0	; 0x0
30000410:	e1a0f00e 	mov	pc, lr
30000414:	33a00000 	movcc	r0, #0	; 0x0
30000418:	01a00fcc 	moveq	r0, ip, asr #31
3000041c:	03800001 	orreq	r0, r0, #1	; 0x1
30000420:	e1a0f00e 	mov	pc, lr
30000424:	e3510801 	cmp	r1, #65536	; 0x10000
30000428:	21a01821 	movcs	r1, r1, lsr #16
3000042c:	23a02010 	movcs	r2, #16	; 0x10
30000430:	33a02000 	movcc	r2, #0	; 0x0
30000434:	e3510c01 	cmp	r1, #256	; 0x100
30000438:	21a01421 	movcs	r1, r1, lsr #8
3000043c:	22822008 	addcs	r2, r2, #8	; 0x8
30000440:	e3510010 	cmp	r1, #16	; 0x10
30000444:	21a01221 	movcs	r1, r1, lsr #4
30000448:	22822004 	addcs	r2, r2, #4	; 0x4
3000044c:	e3510004 	cmp	r1, #4	; 0x4
30000450:	82822003 	addhi	r2, r2, #3	; 0x3
30000454:	908220a1 	addls	r2, r2, r1, lsr #1
30000458:	e35c0000 	cmp	ip, #0	; 0x0
3000045c:	e1a00233 	mov	r0, r3, lsr r2
30000460:	42600000 	rsbmi	r0, r0, #0	; 0x0
30000464:	e1a0f00e 	mov	pc, lr
30000468:	90909090 	umulllss	r9, r0, r0, r0
3000046c:	90909090 	umulllss	r9, r0, r0, r0

30000470 <__modsi3>:
30000470:	e3510000 	cmp	r1, #0	; 0x0
30000474:	0a000032 	beq	30000544 <Ldiv0>
30000478:	42611000 	rsbmi	r1, r1, #0	; 0x0
3000047c:	e1b0c000 	movs	ip, r0
30000480:	42600000 	rsbmi	r0, r0, #0	; 0x0
30000484:	e2512001 	subs	r2, r1, #1	; 0x1
30000488:	11500001 	cmpne	r0, r1
3000048c:	03a00000 	moveq	r0, #0	; 0x0
30000490:	81110002 	tsthi	r1, r2
30000494:	00000002 	andeq	r0, r0, r2
30000498:	9a000026 	bls	30000538 <__modsi3+0xc8>
3000049c:	e3a02000 	mov	r2, #0	; 0x0
300004a0:	e3510201 	cmp	r1, #268435456	; 0x10000000
300004a4:	31510000 	cmpcc	r1, r0
300004a8:	31a01201 	movcc	r1, r1, lsl #4
300004ac:	32822004 	addcc	r2, r2, #4	; 0x4
300004b0:	3afffffa 	bcc	300004a0 <__modsi3+0x30>
300004b4:	e3510102 	cmp	r1, #-2147483648	; 0x80000000
300004b8:	31510000 	cmpcc	r1, r0
300004bc:	31a01081 	movcc	r1, r1, lsl #1
300004c0:	32822001 	addcc	r2, r2, #1	; 0x1
300004c4:	3afffffa 	bcc	300004b4 <__modsi3+0x44>
300004c8:	e2522003 	subs	r2, r2, #3	; 0x3
300004cc:	ba00000e 	blt	3000050c <__modsi3+0x9c>
300004d0:	e1500001 	cmp	r0, r1
300004d4:	20400001 	subcs	r0, r0, r1
300004d8:	e15000a1 	cmp	r0, r1, lsr #1
300004dc:	204000a1 	subcs	r0, r0, r1, lsr #1
300004e0:	e1500121 	cmp	r0, r1, lsr #2
300004e4:	20400121 	subcs	r0, r0, r1, lsr #2
300004e8:	e15001a1 	cmp	r0, r1, lsr #3
300004ec:	204001a1 	subcs	r0, r0, r1, lsr #3
300004f0:	e3500001 	cmp	r0, #1	; 0x1
300004f4:	e1a01221 	mov	r1, r1, lsr #4
300004f8:	a2522004 	subges	r2, r2, #4	; 0x4
300004fc:	aafffff3 	bge	300004d0 <__modsi3+0x60>
30000500:	e3120003 	tst	r2, #3	; 0x3
30000504:	13300000 	teqne	r0, #0	; 0x0
30000508:	0a00000a 	beq	30000538 <__modsi3+0xc8>
3000050c:	e3720002 	cmn	r2, #2	; 0x2
30000510:	ba000006 	blt	30000530 <__modsi3+0xc0>
30000514:	0a000002 	beq	30000524 <__modsi3+0xb4>
30000518:	e1500001 	cmp	r0, r1
3000051c:	20400001 	subcs	r0, r0, r1
30000520:	e1a010a1 	mov	r1, r1, lsr #1
30000524:	e1500001 	cmp	r0, r1
30000528:	20400001 	subcs	r0, r0, r1
3000052c:	e1a010a1 	mov	r1, r1, lsr #1
30000530:	e1500001 	cmp	r0, r1
30000534:	20400001 	subcs	r0, r0, r1
30000538:	e35c0000 	cmp	ip, #0	; 0x0
3000053c:	42600000 	rsbmi	r0, r0, #0	; 0x0
30000540:	e1a0f00e 	mov	pc, lr

30000544 <Ldiv0>:
30000544:	e52de004 	str	lr, [sp, #-4]!
30000548:	e3a00000 	mov	r0, #0	; 0x0
3000054c:	e49df004 	ldr	pc, [sp], #4

30000550 <InitNand>:
30000550:	e3a0344e 	mov	r3, #1308622848	; 0x4e000000
30000554:	e3a02c01 	mov	r2, #256	; 0x100
30000558:	e3a01013 	mov	r1, #19	; 0x13
3000055c:	e5832000 	str	r2, [r3]
30000560:	e5831004 	str	r1, [r3, #4]
30000564:	e1a0f00e 	mov	pc, lr

30000568 <SelectNand>:
30000568:	e3a0244e 	mov	r2, #1308622848	; 0x4e000000
3000056c:	e5923004 	ldr	r3, [r2, #4]
30000570:	e3c33002 	bic	r3, r3, #2	; 0x2
30000574:	e5823004 	str	r3, [r2, #4]
30000578:	e1a0f00e 	mov	pc, lr

3000057c <DeselectNand>:
3000057c:	e3a0244e 	mov	r2, #1308622848	; 0x4e000000
30000580:	e5923004 	ldr	r3, [r2, #4]
30000584:	e3833002 	orr	r3, r3, #2	; 0x2
30000588:	e5823004 	str	r3, [r2, #4]
3000058c:	e1a0f00e 	mov	pc, lr

30000590 <NandCmd>:
30000590:	e24dd004 	sub	sp, sp, #4	; 0x4
30000594:	e3a0344e 	mov	r3, #1308622848	; 0x4e000000
30000598:	e20000ff 	and	r0, r0, #255	; 0xff
3000059c:	e3a02000 	mov	r2, #0	; 0x0
300005a0:	e5c30008 	strb	r0, [r3, #8]
300005a4:	e58d2000 	str	r2, [sp]
300005a8:	e59d3000 	ldr	r3, [sp]
300005ac:	e3530009 	cmp	r3, #9	; 0x9
300005b0:	ca000005 	bgt	300005cc <NandCmd+0x3c>
300005b4:	e59d3000 	ldr	r3, [sp]
300005b8:	e2833001 	add	r3, r3, #1	; 0x1
300005bc:	e58d3000 	str	r3, [sp]
300005c0:	e59d2000 	ldr	r2, [sp]
300005c4:	e3520009 	cmp	r2, #9	; 0x9
300005c8:	dafffff9 	ble	300005b4 <NandCmd+0x24>
300005cc:	e28dd004 	add	sp, sp, #4	; 0x4
300005d0:	e1a0f00e 	mov	pc, lr

300005d4 <NandAddrByte>:
300005d4:	e24dd004 	sub	sp, sp, #4	; 0x4
300005d8:	e3a0344e 	mov	r3, #1308622848	; 0x4e000000
300005dc:	e20000ff 	and	r0, r0, #255	; 0xff
300005e0:	e3a02000 	mov	r2, #0	; 0x0
300005e4:	e5c3000c 	strb	r0, [r3, #12]
300005e8:	e58d2000 	str	r2, [sp]
300005ec:	e59d3000 	ldr	r3, [sp]
300005f0:	e3530009 	cmp	r3, #9	; 0x9
300005f4:	ca000005 	bgt	30000610 <NandAddrByte+0x3c>
300005f8:	e59d3000 	ldr	r3, [sp]
300005fc:	e2833001 	add	r3, r3, #1	; 0x1
30000600:	e58d3000 	str	r3, [sp]
30000604:	e59d2000 	ldr	r2, [sp]
30000608:	e3520009 	cmp	r2, #9	; 0x9
3000060c:	dafffff9 	ble	300005f8 <NandAddrByte+0x24>
30000610:	e28dd004 	add	sp, sp, #4	; 0x4
30000614:	e1a0f00e 	mov	pc, lr

30000618 <NandAddr>:
30000618:	e1a01a80 	mov	r1, r0, lsl #21
3000061c:	e24dd004 	sub	sp, sp, #4	; 0x4
30000620:	e3a0344e 	mov	r3, #1308622848	; 0x4e000000
30000624:	e1a01aa1 	mov	r1, r1, lsr #21
30000628:	e3a02000 	mov	r2, #0	; 0x0
3000062c:	e5c3100c 	strb	r1, [r3, #12]
30000630:	e58d2000 	str	r2, [sp]
30000634:	e59d3000 	ldr	r3, [sp]
30000638:	e3530009 	cmp	r3, #9	; 0x9
3000063c:	e1a005a0 	mov	r0, r0, lsr #11
30000640:	ca000005 	bgt	3000065c <NandAddr+0x44>
30000644:	e59d3000 	ldr	r3, [sp]
30000648:	e2833001 	add	r3, r3, #1	; 0x1
3000064c:	e58d3000 	str	r3, [sp]
30000650:	e59d2000 	ldr	r2, [sp]
30000654:	e3520009 	cmp	r2, #9	; 0x9
30000658:	dafffff9 	ble	30000644 <NandAddr+0x2c>
3000065c:	e3a0344e 	mov	r3, #1308622848	; 0x4e000000
30000660:	e1a01421 	mov	r1, r1, lsr #8
30000664:	e3a02000 	mov	r2, #0	; 0x0
30000668:	e5c3100c 	strb	r1, [r3, #12]
3000066c:	e58d2000 	str	r2, [sp]
30000670:	e59d3000 	ldr	r3, [sp]
30000674:	e3530009 	cmp	r3, #9	; 0x9
30000678:	ca000005 	bgt	30000694 <NandAddr+0x7c>
3000067c:	e59d3000 	ldr	r3, [sp]
30000680:	e2833001 	add	r3, r3, #1	; 0x1
30000684:	e58d3000 	str	r3, [sp]
30000688:	e59d2000 	ldr	r2, [sp]
3000068c:	e3520009 	cmp	r2, #9	; 0x9
30000690:	dafffff9 	ble	3000067c <NandAddr+0x64>
30000694:	e3a0344e 	mov	r3, #1308622848	; 0x4e000000
30000698:	e3a02000 	mov	r2, #0	; 0x0
3000069c:	e5c3000c 	strb	r0, [r3, #12]
300006a0:	e58d2000 	str	r2, [sp]
300006a4:	e59d3000 	ldr	r3, [sp]
300006a8:	e3530009 	cmp	r3, #9	; 0x9
300006ac:	ca000005 	bgt	300006c8 <NandAddr+0xb0>
300006b0:	e59d3000 	ldr	r3, [sp]
300006b4:	e2833001 	add	r3, r3, #1	; 0x1
300006b8:	e58d3000 	str	r3, [sp]
300006bc:	e59d2000 	ldr	r2, [sp]
300006c0:	e3520009 	cmp	r2, #9	; 0x9
300006c4:	dafffff9 	ble	300006b0 <NandAddr+0x98>
300006c8:	e3a0344e 	mov	r3, #1308622848	; 0x4e000000
300006cc:	e1a01420 	mov	r1, r0, lsr #8
300006d0:	e3a02000 	mov	r2, #0	; 0x0
300006d4:	e5c3100c 	strb	r1, [r3, #12]
300006d8:	e58d2000 	str	r2, [sp]
300006dc:	e59d3000 	ldr	r3, [sp]
300006e0:	e3530009 	cmp	r3, #9	; 0x9
300006e4:	ca000005 	bgt	30000700 <NandAddr+0xe8>
300006e8:	e59d3000 	ldr	r3, [sp]
300006ec:	e2833001 	add	r3, r3, #1	; 0x1
300006f0:	e58d3000 	str	r3, [sp]
300006f4:	e59d2000 	ldr	r2, [sp]
300006f8:	e3520009 	cmp	r2, #9	; 0x9
300006fc:	dafffff9 	ble	300006e8 <NandAddr+0xd0>
30000700:	e3a0344e 	mov	r3, #1308622848	; 0x4e000000
30000704:	e1a01820 	mov	r1, r0, lsr #16
30000708:	e3a02000 	mov	r2, #0	; 0x0
3000070c:	e5c3100c 	strb	r1, [r3, #12]
30000710:	e58d2000 	str	r2, [sp]
30000714:	e59d3000 	ldr	r3, [sp]
30000718:	e3530009 	cmp	r3, #9	; 0x9
3000071c:	ca000005 	bgt	30000738 <NandAddr+0x120>
30000720:	e59d3000 	ldr	r3, [sp]
30000724:	e2833001 	add	r3, r3, #1	; 0x1
30000728:	e58d3000 	str	r3, [sp]
3000072c:	e59d2000 	ldr	r2, [sp]
30000730:	e3520009 	cmp	r2, #9	; 0x9
30000734:	dafffff9 	ble	30000720 <NandAddr+0x108>
30000738:	e28dd004 	add	sp, sp, #4	; 0x4
3000073c:	e1a0f00e 	mov	pc, lr

30000740 <NandPage>:
30000740:	e24dd004 	sub	sp, sp, #4	; 0x4
30000744:	e3a0344e 	mov	r3, #1308622848	; 0x4e000000
30000748:	e3a02000 	mov	r2, #0	; 0x0
3000074c:	e5c3000c 	strb	r0, [r3, #12]
30000750:	e58d2000 	str	r2, [sp]
30000754:	e59d3000 	ldr	r3, [sp]
30000758:	e3530009 	cmp	r3, #9	; 0x9
3000075c:	ca000005 	bgt	30000778 <NandPage+0x38>
30000760:	e59d3000 	ldr	r3, [sp]
30000764:	e2833001 	add	r3, r3, #1	; 0x1
30000768:	e58d3000 	str	r3, [sp]
3000076c:	e59d2000 	ldr	r2, [sp]
30000770:	e3520009 	cmp	r2, #9	; 0x9
30000774:	dafffff9 	ble	30000760 <NandPage+0x20>
30000778:	e3a0344e 	mov	r3, #1308622848	; 0x4e000000
3000077c:	e1a01420 	mov	r1, r0, lsr #8
30000780:	e3a02000 	mov	r2, #0	; 0x0
30000784:	e5c3100c 	strb	r1, [r3, #12]
30000788:	e58d2000 	str	r2, [sp]
3000078c:	e59d3000 	ldr	r3, [sp]
30000790:	e3530009 	cmp	r3, #9	; 0x9
30000794:	ca000005 	bgt	300007b0 <NandPage+0x70>
30000798:	e59d3000 	ldr	r3, [sp]
3000079c:	e2833001 	add	r3, r3, #1	; 0x1
300007a0:	e58d3000 	str	r3, [sp]
300007a4:	e59d2000 	ldr	r2, [sp]
300007a8:	e3520009 	cmp	r2, #9	; 0x9
300007ac:	dafffff9 	ble	30000798 <NandPage+0x58>
300007b0:	e3a0344e 	mov	r3, #1308622848	; 0x4e000000
300007b4:	e1a01820 	mov	r1, r0, lsr #16
300007b8:	e3a02000 	mov	r2, #0	; 0x0
300007bc:	e5c3100c 	strb	r1, [r3, #12]
300007c0:	e58d2000 	str	r2, [sp]
300007c4:	e59d3000 	ldr	r3, [sp]
300007c8:	e3530009 	cmp	r3, #9	; 0x9
300007cc:	ca000005 	bgt	300007e8 <NandPage+0xa8>
300007d0:	e59d3000 	ldr	r3, [sp]
300007d4:	e2833001 	add	r3, r3, #1	; 0x1
300007d8:	e58d3000 	str	r3, [sp]
300007dc:	e59d2000 	ldr	r2, [sp]
300007e0:	e3520009 	cmp	r2, #9	; 0x9
300007e4:	dafffff9 	ble	300007d0 <NandPage+0x90>
300007e8:	e28dd004 	add	sp, sp, #4	; 0x4
300007ec:	e1a0f00e 	mov	pc, lr

300007f0 <NandCol>:
300007f0:	e24dd004 	sub	sp, sp, #4	; 0x4
300007f4:	e3a0344e 	mov	r3, #1308622848	; 0x4e000000
300007f8:	e3a02000 	mov	r2, #0	; 0x0
300007fc:	e5c3000c 	strb	r0, [r3, #12]
30000800:	e58d2000 	str	r2, [sp]
30000804:	e59d3000 	ldr	r3, [sp]
30000808:	e3530009 	cmp	r3, #9	; 0x9
3000080c:	ca000005 	bgt	30000828 <NandCol+0x38>
30000810:	e59d3000 	ldr	r3, [sp]
30000814:	e2833001 	add	r3, r3, #1	; 0x1
30000818:	e58d3000 	str	r3, [sp]
3000081c:	e59d2000 	ldr	r2, [sp]
30000820:	e3520009 	cmp	r2, #9	; 0x9
30000824:	dafffff9 	ble	30000810 <NandCol+0x20>
30000828:	e3a0344e 	mov	r3, #1308622848	; 0x4e000000
3000082c:	e1a01420 	mov	r1, r0, lsr #8
30000830:	e3a02000 	mov	r2, #0	; 0x0
30000834:	e5c3100c 	strb	r1, [r3, #12]
30000838:	e58d2000 	str	r2, [sp]
3000083c:	e59d3000 	ldr	r3, [sp]
30000840:	e3530009 	cmp	r3, #9	; 0x9
30000844:	ca000005 	bgt	30000860 <NandCol+0x70>
30000848:	e59d3000 	ldr	r3, [sp]
3000084c:	e2833001 	add	r3, r3, #1	; 0x1
30000850:	e58d3000 	str	r3, [sp]
30000854:	e59d2000 	ldr	r2, [sp]
30000858:	e3520009 	cmp	r2, #9	; 0x9
3000085c:	dafffff9 	ble	30000848 <NandCol+0x58>
30000860:	e28dd004 	add	sp, sp, #4	; 0x4
30000864:	e1a0f00e 	mov	pc, lr

30000868 <NandWaitReady>:
30000868:	e3a0244e 	mov	r2, #1308622848	; 0x4e000000
3000086c:	e5d23020 	ldrb	r3, [r2, #32]
30000870:	e3130001 	tst	r3, #1	; 0x1
30000874:	0afffffc 	beq	3000086c <NandWaitReady+0x4>
30000878:	e1a0f00e 	mov	pc, lr

3000087c <NandData>:
3000087c:	e3a0344e 	mov	r3, #1308622848	; 0x4e000000
30000880:	e5d30010 	ldrb	r0, [r3, #16]
30000884:	e1a0f00e 	mov	pc, lr

30000888 <NandBad>:
30000888:	e92d4010 	stmdb	sp!, {r4, lr}
3000088c:	e1a045a0 	mov	r4, r0, lsr #11
30000890:	ebffff34 	bl	30000568 <SelectNand>
30000894:	e3a00000 	mov	r0, #0	; 0x0
30000898:	ebffff3c 	bl	30000590 <NandCmd>
3000089c:	e3a00b02 	mov	r0, #2048	; 0x800
300008a0:	ebffffd2 	bl	300007f0 <NandCol>
300008a4:	e1a00004 	mov	r0, r4
300008a8:	ebffffa4 	bl	30000740 <NandPage>
300008ac:	e3a00030 	mov	r0, #48	; 0x30
300008b0:	ebffff36 	bl	30000590 <NandCmd>
300008b4:	ebffffeb 	bl	30000868 <NandWaitReady>
300008b8:	ebffffef 	bl	3000087c <NandData>
300008bc:	e1a04000 	mov	r4, r0
300008c0:	ebffff2d 	bl	3000057c <DeselectNand>
300008c4:	e20440ff 	and	r4, r4, #255	; 0xff
300008c8:	e25400ff 	subs	r0, r4, #255	; 0xff
300008cc:	13a00001 	movne	r0, #1	; 0x1
300008d0:	e8bd8010 	ldmia	sp!, {r4, pc}

300008d4 <ReadNand>:
300008d4:	e92d45f0 	stmdb	sp!, {r4, r5, r6, r7, r8, sl, lr}
300008d8:	e3a06000 	mov	r6, #0	; 0x0
300008dc:	e1a04a80 	mov	r4, r0, lsl #21
300008e0:	e1560002 	cmp	r6, r2
300008e4:	e1a05000 	mov	r5, r0
300008e8:	e1a07002 	mov	r7, r2
300008ec:	e1a0a001 	mov	sl, r1
300008f0:	e1a04aa4 	mov	r4, r4, lsr #21
300008f4:	3a000007 	bcc	30000918 <ReadNand+0x44>
300008f8:	e8bd85f0 	ldmia	sp!, {r4, r5, r6, r7, r8, sl, pc}
300008fc:	e1a00005 	mov	r0, r5
30000900:	ebffffe0 	bl	30000888 <NandBad>
30000904:	e3500000 	cmp	r0, #0	; 0x0
30000908:	12855802 	addne	r5, r5, #131072	; 0x20000
3000090c:	0a000005 	beq	30000928 <ReadNand+0x54>
30000910:	e1560007 	cmp	r6, r7
30000914:	2a000025 	bcs	300009b0 <ReadNand+0xdc>
30000918:	e3c534ff 	bic	r3, r5, #-16777216	; 0xff000000
3000091c:	e3c338fe 	bic	r3, r3, #16646144	; 0xfe0000
30000920:	e3530000 	cmp	r3, #0	; 0x0
30000924:	0afffff4 	beq	300008fc <ReadNand+0x28>
30000928:	ebffff0e 	bl	30000568 <SelectNand>
3000092c:	e3a00000 	mov	r0, #0	; 0x0
30000930:	ebffff16 	bl	30000590 <NandCmd>
30000934:	e1a00005 	mov	r0, r5
30000938:	ebffff36 	bl	30000618 <NandAddr>
3000093c:	e3a00030 	mov	r0, #48	; 0x30
30000940:	ebffff12 	bl	30000590 <NandCmd>
30000944:	ebffffc7 	bl	30000868 <NandWaitReady>
30000948:	e3a02e7f 	mov	r2, #2032	; 0x7f0
3000094c:	e282200f 	add	r2, r2, #15	; 0xf
30000950:	e1540002 	cmp	r4, r2
30000954:	c3a03000 	movgt	r3, #0	; 0x0
30000958:	d3a03001 	movle	r3, #1	; 0x1
3000095c:	e1560007 	cmp	r6, r7
30000960:	23a03000 	movcs	r3, #0	; 0x0
30000964:	e3530000 	cmp	r3, #0	; 0x0
30000968:	0a00000c 	beq	300009a0 <ReadNand+0xcc>
3000096c:	e1a08002 	mov	r8, r2
30000970:	ebffffc1 	bl	3000087c <NandData>
30000974:	e2844001 	add	r4, r4, #1	; 0x1
30000978:	e7ca0006 	strb	r0, [sl, r6]
3000097c:	e2866001 	add	r6, r6, #1	; 0x1
30000980:	e1540008 	cmp	r4, r8
30000984:	c3a03000 	movgt	r3, #0	; 0x0
30000988:	d3a03001 	movle	r3, #1	; 0x1
3000098c:	e1560007 	cmp	r6, r7
30000990:	23a03000 	movcs	r3, #0	; 0x0
30000994:	e3530000 	cmp	r3, #0	; 0x0
30000998:	e2855001 	add	r5, r5, #1	; 0x1
3000099c:	1afffff3 	bne	30000970 <ReadNand+0x9c>
300009a0:	ebfffef5 	bl	3000057c <DeselectNand>
300009a4:	e1560007 	cmp	r6, r7
300009a8:	e3a04000 	mov	r4, #0	; 0x0
300009ac:	3affffd9 	bcc	30000918 <ReadNand+0x44>
300009b0:	e8bd85f0 	ldmia	sp!, {r4, r5, r6, r7, r8, sl, pc}

300009b4 <NandWData>:
300009b4:	e20000ff 	and	r0, r0, #255	; 0xff
300009b8:	e3a0344e 	mov	r3, #1308622848	; 0x4e000000
300009bc:	e5c30010 	strb	r0, [r3, #16]
300009c0:	e1a0f00e 	mov	pc, lr

300009c4 <PrintNandChipID>:
300009c4:	e92d4010 	stmdb	sp!, {r4, lr}
300009c8:	e3a04000 	mov	r4, #0	; 0x0
300009cc:	e24dd008 	sub	sp, sp, #8	; 0x8
300009d0:	e58d4000 	str	r4, [sp]
300009d4:	e5cd4004 	strb	r4, [sp, #4]
300009d8:	ebfffee2 	bl	30000568 <SelectNand>
300009dc:	e3a00090 	mov	r0, #144	; 0x90
300009e0:	ebfffeea 	bl	30000590 <NandCmd>
300009e4:	e1a00004 	mov	r0, r4
300009e8:	ebfffef9 	bl	300005d4 <NandAddrByte>
300009ec:	ebffffa2 	bl	3000087c <NandData>
300009f0:	e5cd0000 	strb	r0, [sp]
300009f4:	ebffffa0 	bl	3000087c <NandData>
300009f8:	e5cd0001 	strb	r0, [sp, #1]
300009fc:	ebffff9e 	bl	3000087c <NandData>
30000a00:	e5cd0002 	strb	r0, [sp, #2]
30000a04:	ebffff9c 	bl	3000087c <NandData>
30000a08:	e5cd0003 	strb	r0, [sp, #3]
30000a0c:	ebffff9a 	bl	3000087c <NandData>
30000a10:	e5cd0004 	strb	r0, [sp, #4]
30000a14:	ebfffed8 	bl	3000057c <DeselectNand>
30000a18:	e5dd1000 	ldrb	r1, [sp]
30000a1c:	e59f006c 	ldr	r0, [pc, #108]	; 30000a90 <.text+0xa90>
30000a20:	eb00019d 	bl	3000109c <printf>
30000a24:	e5dd1001 	ldrb	r1, [sp, #1]
30000a28:	e59f0064 	ldr	r0, [pc, #100]	; 30000a94 <.text+0xa94>
30000a2c:	eb00019a 	bl	3000109c <printf>
30000a30:	e5dd1002 	ldrb	r1, [sp, #2]
30000a34:	e59f005c 	ldr	r0, [pc, #92]	; 30000a98 <.text+0xa98>
30000a38:	eb000197 	bl	3000109c <printf>
30000a3c:	e5dd1003 	ldrb	r1, [sp, #3]
30000a40:	e59f0054 	ldr	r0, [pc, #84]	; 30000a9c <.text+0xa9c>
30000a44:	eb000194 	bl	3000109c <printf>
30000a48:	e5dd1003 	ldrb	r1, [sp, #3]
30000a4c:	e3a03001 	mov	r3, #1	; 0x1
30000a50:	e2011003 	and	r1, r1, #3	; 0x3
30000a54:	e1a01113 	mov	r1, r3, lsl r1
30000a58:	e59f0040 	ldr	r0, [pc, #64]	; 30000aa0 <.text+0xaa0>
30000a5c:	eb00018e 	bl	3000109c <printf>
30000a60:	e5dd1003 	ldrb	r1, [sp, #3]
30000a64:	e1a01221 	mov	r1, r1, lsr #4
30000a68:	e3a03040 	mov	r3, #64	; 0x40
30000a6c:	e2011003 	and	r1, r1, #3	; 0x3
30000a70:	e1a01113 	mov	r1, r3, lsl r1
30000a74:	e59f0028 	ldr	r0, [pc, #40]	; 30000aa4 <.text+0xaa4>
30000a78:	eb000187 	bl	3000109c <printf>
30000a7c:	e5dd1004 	ldrb	r1, [sp, #4]
30000a80:	e59f0020 	ldr	r0, [pc, #32]	; 30000aa8 <.text+0xaa8>
30000a84:	eb000184 	bl	3000109c <printf>
30000a88:	e28dd008 	add	sp, sp, #8	; 0x8
30000a8c:	e8bd8010 	ldmia	sp!, {r4, pc}
30000a90:	30004b78 	andcc	r4, r0, r8, ror fp
30000a94:	30004b90 	mulcc	r0, r0, fp
30000a98:	30004ba8 	andcc	r4, r0, r8, lsr #23
30000a9c:	30004bc0 	andcc	r4, r0, r0, asr #23
30000aa0:	30004bd8 	ldrccd	r4, [r0], -r8
30000aa4:	30004bf0 	strccd	r4, [r0], -r0
30000aa8:	30004c08 	andcc	r4, r0, r8, lsl #24

30000aac <NandErase>:
30000aac:	e3c034ff 	bic	r3, r0, #-16777216	; 0xff000000
30000ab0:	e3c338fe 	bic	r3, r3, #16646144	; 0xfe0000
30000ab4:	e3530000 	cmp	r3, #0	; 0x0
30000ab8:	e92d4070 	stmdb	sp!, {r4, r5, r6, lr}
30000abc:	e1a06000 	mov	r6, r0
30000ac0:	e1a045a0 	mov	r4, r0, lsr #11
30000ac4:	e1a05001 	mov	r5, r1
30000ac8:	159f0070 	ldrne	r0, [pc, #112]	; 30000b40 <.text+0xb40>
30000acc:	1a000018 	bne	30000b34 <NandErase+0x88>
30000ad0:	e3c134ff 	bic	r3, r1, #-16777216	; 0xff000000
30000ad4:	e3c338fe 	bic	r3, r3, #16646144	; 0xfe0000
30000ad8:	e3530000 	cmp	r3, #0	; 0x0
30000adc:	1a000013 	bne	30000b30 <NandErase+0x84>
30000ae0:	ebfffea0 	bl	30000568 <SelectNand>
30000ae4:	e3a00060 	mov	r0, #96	; 0x60
30000ae8:	ebfffea8 	bl	30000590 <NandCmd>
30000aec:	e20400ff 	and	r0, r4, #255	; 0xff
30000af0:	ebfffeb7 	bl	300005d4 <NandAddrByte>
30000af4:	e1a00424 	mov	r0, r4, lsr #8
30000af8:	e20000ff 	and	r0, r0, #255	; 0xff
30000afc:	ebfffeb4 	bl	300005d4 <NandAddrByte>
30000b00:	e1a00824 	mov	r0, r4, lsr #16
30000b04:	ebfffeb2 	bl	300005d4 <NandAddrByte>
30000b08:	e3a000d0 	mov	r0, #208	; 0xd0
30000b0c:	ebfffe9f 	bl	30000590 <NandCmd>
30000b10:	e2866802 	add	r6, r6, #131072	; 0x20000
30000b14:	ebffff53 	bl	30000868 <NandWaitReady>
30000b18:	e2555802 	subs	r5, r5, #131072	; 0x20000
30000b1c:	e1a045a6 	mov	r4, r6, lsr #11
30000b20:	1affffef 	bne	30000ae4 <NandErase+0x38>
30000b24:	ebfffe94 	bl	3000057c <DeselectNand>
30000b28:	e3a00000 	mov	r0, #0	; 0x0
30000b2c:	e8bd8070 	ldmia	sp!, {r4, r5, r6, pc}
30000b30:	e59f000c 	ldr	r0, [pc, #12]	; 30000b44 <.text+0xb44>
30000b34:	eb000158 	bl	3000109c <printf>
30000b38:	e3e00000 	mvn	r0, #0	; 0x0
30000b3c:	e8bd8070 	ldmia	sp!, {r4, r5, r6, pc}
30000b40:	30004c20 	andcc	r4, r0, r0, lsr #24
30000b44:	30004c4c 	andcc	r4, r0, ip, asr #24

30000b48 <NandWrite>:
30000b48:	e92d45f0 	stmdb	sp!, {r4, r5, r6, r7, r8, sl, lr}
30000b4c:	e1a04a80 	mov	r4, r0, lsl #21
30000b50:	e1a0a001 	mov	sl, r1
30000b54:	e1a07002 	mov	r7, r2
30000b58:	e1a04aa4 	mov	r4, r4, lsr #21
30000b5c:	e1a085a0 	mov	r8, r0, lsr #11
30000b60:	e3a05000 	mov	r5, #0	; 0x0
30000b64:	ebfffe7f 	bl	30000568 <SelectNand>
30000b68:	e3a00080 	mov	r0, #128	; 0x80
30000b6c:	ebfffe87 	bl	30000590 <NandCmd>
30000b70:	e20400ff 	and	r0, r4, #255	; 0xff
30000b74:	ebfffe96 	bl	300005d4 <NandAddrByte>
30000b78:	e1a00424 	mov	r0, r4, lsr #8
30000b7c:	ebfffe94 	bl	300005d4 <NandAddrByte>
30000b80:	e20800ff 	and	r0, r8, #255	; 0xff
30000b84:	ebfffe92 	bl	300005d4 <NandAddrByte>
30000b88:	e1a00428 	mov	r0, r8, lsr #8
30000b8c:	e20000ff 	and	r0, r0, #255	; 0xff
30000b90:	ebfffe8f 	bl	300005d4 <NandAddrByte>
30000b94:	e1a00828 	mov	r0, r8, lsr #16
30000b98:	e20000ff 	and	r0, r0, #255	; 0xff
30000b9c:	ebfffe8c 	bl	300005d4 <NandAddrByte>
30000ba0:	e3a02e7f 	mov	r2, #2032	; 0x7f0
30000ba4:	e282200f 	add	r2, r2, #15	; 0xf
30000ba8:	e1540002 	cmp	r4, r2
30000bac:	c3a03000 	movgt	r3, #0	; 0x0
30000bb0:	d3a03001 	movle	r3, #1	; 0x1
30000bb4:	e1550007 	cmp	r5, r7
30000bb8:	23a03000 	movcs	r3, #0	; 0x0
30000bbc:	e3530000 	cmp	r3, #0	; 0x0
30000bc0:	0a00000a 	beq	30000bf0 <NandWrite+0xa8>
30000bc4:	e1a06002 	mov	r6, r2
30000bc8:	e7d5000a 	ldrb	r0, [r5, sl]
30000bcc:	e2855001 	add	r5, r5, #1	; 0x1
30000bd0:	ebffff77 	bl	300009b4 <NandWData>
30000bd4:	e1540006 	cmp	r4, r6
30000bd8:	c3a03000 	movgt	r3, #0	; 0x0
30000bdc:	d3a03001 	movle	r3, #1	; 0x1
30000be0:	e1550007 	cmp	r5, r7
30000be4:	23a03000 	movcs	r3, #0	; 0x0
30000be8:	e3530000 	cmp	r3, #0	; 0x0
30000bec:	1afffff5 	bne	30000bc8 <NandWrite+0x80>
30000bf0:	e3a00010 	mov	r0, #16	; 0x10
30000bf4:	ebfffe65 	bl	30000590 <NandCmd>
30000bf8:	ebffff1a 	bl	30000868 <NandWaitReady>
30000bfc:	e1550007 	cmp	r5, r7
30000c00:	12888001 	addne	r8, r8, #1	; 0x1
30000c04:	13a04000 	movne	r4, #0	; 0x0
30000c08:	1affffd6 	bne	30000b68 <NandWrite+0x20>
30000c0c:	e8bd45f0 	ldmia	sp!, {r4, r5, r6, r7, r8, sl, lr}
30000c10:	eafffe59 	b	3000057c <DeselectNand>

30000c14 <DoReadNandFlash>:
30000c14:	e92d40f0 	stmdb	sp!, {r4, r5, r6, r7, lr}
30000c18:	e59f0098 	ldr	r0, [pc, #152]	; 30000cb8 <.text+0xcb8>
30000c1c:	e24dd050 	sub	sp, sp, #80	; 0x50
30000c20:	eb00011d 	bl	3000109c <printf>
30000c24:	eb0001ec 	bl	300013dc <get_uint>
30000c28:	e1a0100d 	mov	r1, sp
30000c2c:	e3a02040 	mov	r2, #64	; 0x40
30000c30:	ebffff27 	bl	300008d4 <ReadNand>
30000c34:	e59f0080 	ldr	r0, [pc, #128]	; 30000cbc <.text+0xcbc>
30000c38:	eb000117 	bl	3000109c <printf>
30000c3c:	e1a0600d 	mov	r6, sp
30000c40:	e3a07000 	mov	r7, #0	; 0x0
30000c44:	e28d5040 	add	r5, sp, #64	; 0x40
30000c48:	e3a0400f 	mov	r4, #15	; 0xf
30000c4c:	e4d63001 	ldrb	r3, [r6], #1
30000c50:	e20330ff 	and	r3, r3, #255	; 0xff
30000c54:	e1a01003 	mov	r1, r3
30000c58:	e59f0060 	ldr	r0, [pc, #96]	; 30000cc0 <.text+0xcc0>
30000c5c:	e4c53001 	strb	r3, [r5], #1
30000c60:	eb00010d 	bl	3000109c <printf>
30000c64:	e2544001 	subs	r4, r4, #1	; 0x1
30000c68:	5afffff7 	bpl	30000c4c <DoReadNandFlash+0x38>
30000c6c:	e59f0050 	ldr	r0, [pc, #80]	; 30000cc4 <.text+0xcc4>
30000c70:	eb000109 	bl	3000109c <printf>
30000c74:	e28d5040 	add	r5, sp, #64	; 0x40
30000c78:	e3a0400f 	mov	r4, #15	; 0xf
30000c7c:	e4d52001 	ldrb	r2, [r5], #1
30000c80:	e2423020 	sub	r3, r2, #32	; 0x20
30000c84:	e353005e 	cmp	r3, #94	; 0x5e
30000c88:	e3a0002e 	mov	r0, #46	; 0x2e
30000c8c:	91a00002 	movls	r0, r2
30000c90:	eb00007f 	bl	30000e94 <PutChar>
30000c94:	e2544001 	subs	r4, r4, #1	; 0x1
30000c98:	5afffff7 	bpl	30000c7c <DoReadNandFlash+0x68>
30000c9c:	e2877001 	add	r7, r7, #1	; 0x1
30000ca0:	e59f0020 	ldr	r0, [pc, #32]	; 30000cc8 <.text+0xcc8>
30000ca4:	eb0000fc 	bl	3000109c <printf>
30000ca8:	e3570003 	cmp	r7, #3	; 0x3
30000cac:	daffffe4 	ble	30000c44 <DoReadNandFlash+0x30>
30000cb0:	e28dd050 	add	sp, sp, #80	; 0x50
30000cb4:	e8bd80f0 	ldmia	sp!, {r4, r5, r6, r7, pc}
30000cb8:	30004c78 	andcc	r4, r0, r8, ror ip
30000cbc:	30004c94 	mulcc	r0, r4, ip
30000cc0:	30004ca0 	andcc	r4, r0, r0, lsr #25
30000cc4:	30004ca8 	andcc	r4, r0, r8, lsr #25
30000cc8:	30004eb8 	strcch	r4, [r0], -r8

30000ccc <DoEraseNandFlash>:
30000ccc:	e92d4010 	stmdb	sp!, {r4, lr}
30000cd0:	e59f0020 	ldr	r0, [pc, #32]	; 30000cf8 <.text+0xcf8>
30000cd4:	eb0000f0 	bl	3000109c <printf>
30000cd8:	eb0001bf 	bl	300013dc <get_uint>
30000cdc:	e1a04000 	mov	r4, r0
30000ce0:	e59f0014 	ldr	r0, [pc, #20]	; 30000cfc <.text+0xcfc>
30000ce4:	eb0000ec 	bl	3000109c <printf>
30000ce8:	e1a00004 	mov	r0, r4
30000cec:	e3a01802 	mov	r1, #131072	; 0x20000
30000cf0:	e8bd4010 	ldmia	sp!, {r4, lr}
30000cf4:	eaffff6c 	b	30000aac <NandErase>
30000cf8:	30004cb0 	strcch	r4, [r0], -r0
30000cfc:	30004cd8 	ldrccd	r4, [r0], -r8

30000d00 <DoWriteNandFlash>:
30000d00:	e92d4030 	stmdb	sp!, {r4, r5, lr}
30000d04:	e59f0048 	ldr	r0, [pc, #72]	; 30000d54 <.text+0xd54>
30000d08:	e24dd064 	sub	sp, sp, #100	; 0x64
30000d0c:	eb0000e2 	bl	3000109c <printf>
30000d10:	eb0001b1 	bl	300013dc <get_uint>
30000d14:	e1a04000 	mov	r4, r0
30000d18:	e59f0038 	ldr	r0, [pc, #56]	; 30000d58 <.text+0xd58>
30000d1c:	eb0000de 	bl	3000109c <printf>
30000d20:	e1a0000d 	mov	r0, sp
30000d24:	eb000186 	bl	30001344 <gets>
30000d28:	e59f002c 	ldr	r0, [pc, #44]	; 30000d5c <.text+0xd5c>
30000d2c:	eb0000da 	bl	3000109c <printf>
30000d30:	e1a0000d 	mov	r0, sp
30000d34:	eb0001b3 	bl	30001408 <strlen>
30000d38:	e1a0100d 	mov	r1, sp
30000d3c:	e2802001 	add	r2, r0, #1	; 0x1
30000d40:	e1a00004 	mov	r0, r4
30000d44:	e1a0500d 	mov	r5, sp
30000d48:	ebffff7e 	bl	30000b48 <NandWrite>
30000d4c:	e28dd064 	add	sp, sp, #100	; 0x64
30000d50:	e8bd8030 	ldmia	sp!, {r4, r5, pc}
30000d54:	30004ce8 	andcc	r4, r0, r8, ror #25
30000d58:	30004d10 	andcc	r4, r0, r0, lsl sp
30000d5c:	30004d2c 	andcc	r4, r0, ip, lsr #26

30000d60 <isBootFromNorFlash>:
30000d60:	e59f2020 	ldr	r2, [pc, #32]	; 30000d88 <.text+0xd88>
30000d64:	e3a01000 	mov	r1, #0	; 0x0
30000d68:	e591c000 	ldr	ip, [r1]
30000d6c:	e5812000 	str	r2, [r1]
30000d70:	e5913000 	ldr	r3, [r1]
30000d74:	e1530002 	cmp	r3, r2
30000d78:	e1a00001 	mov	r0, r1
30000d7c:	13a00001 	movne	r0, #1	; 0x1
30000d80:	0581c000 	streq	ip, [r1]
30000d84:	e1a0f00e 	mov	pc, lr
30000d88:	12345678 	eornes	r5, r4, #125829120	; 0x7800000

30000d8c <copy2sdram>:
30000d8c:	e92d41f0 	stmdb	sp!, {r4, r5, r6, r7, r8, lr}
30000d90:	e59f4078 	ldr	r4, [pc, #120]	; 30000e10 <.text+0xe10>
30000d94:	e59f7078 	ldr	r7, [pc, #120]	; 30000e14 <.text+0xe14>
30000d98:	e1a00004 	mov	r0, r4
30000d9c:	eb00010a 	bl	300011cc <printHex>
30000da0:	e59f0070 	ldr	r0, [pc, #112]	; 30000e18 <.text+0xe18>
30000da4:	eb0000bc 	bl	3000109c <printf>
30000da8:	e1a00007 	mov	r0, r7
30000dac:	eb000106 	bl	300011cc <printHex>
30000db0:	e3a05000 	mov	r5, #0	; 0x0
30000db4:	e59f005c 	ldr	r0, [pc, #92]	; 30000e18 <.text+0xe18>
30000db8:	eb0000b7 	bl	3000109c <printf>
30000dbc:	e1a00005 	mov	r0, r5
30000dc0:	eb000101 	bl	300011cc <printHex>
30000dc4:	e59f004c 	ldr	r0, [pc, #76]	; 30000e18 <.text+0xe18>
30000dc8:	eb0000b3 	bl	3000109c <printf>
30000dcc:	ebffffe3 	bl	30000d60 <isBootFromNorFlash>
30000dd0:	e2506000 	subs	r6, r0, #0	; 0x0
30000dd4:	e0648007 	rsb	r8, r4, r7
30000dd8:	0a000006 	beq	30000df8 <copy2sdram+0x6c>
30000ddc:	e1540007 	cmp	r4, r7
30000de0:	28bd81f0 	ldmcsia	sp!, {r4, r5, r6, r7, r8, pc}
30000de4:	e4953004 	ldr	r3, [r5], #4
30000de8:	e4843004 	str	r3, [r4], #4
30000dec:	e1540007 	cmp	r4, r7
30000df0:	3afffffb 	bcc	30000de4 <copy2sdram+0x58>
30000df4:	e8bd81f0 	ldmia	sp!, {r4, r5, r6, r7, r8, pc}
30000df8:	ebfffdd4 	bl	30000550 <InitNand>
30000dfc:	e1a00006 	mov	r0, r6
30000e00:	e1a01004 	mov	r1, r4
30000e04:	e1a02008 	mov	r2, r8
30000e08:	e8bd41f0 	ldmia	sp!, {r4, r5, r6, r7, r8, lr}
30000e0c:	eafffeb0 	b	300008d4 <ReadNand>
30000e10:	30000000 	andcc	r0, r0, r0
30000e14:	30005078 	andcc	r5, r0, r8, ror r0
30000e18:	30004d3c 	andcc	r4, r0, ip, lsr sp

30000e1c <cleanbss>:
30000e1c:	e59f301c 	ldr	r3, [pc, #28]	; 30000e40 <.text+0xe40>
30000e20:	e59f101c 	ldr	r1, [pc, #28]	; 30000e44 <.text+0xe44>
30000e24:	e1530001 	cmp	r3, r1
30000e28:	81a0f00e 	movhi	pc, lr
30000e2c:	e3a02000 	mov	r2, #0	; 0x0
30000e30:	e4832004 	str	r2, [r3], #4
30000e34:	e1530001 	cmp	r3, r1
30000e38:	9afffffc 	bls	30000e30 <cleanbss+0x14>
30000e3c:	e1a0f00e 	mov	pc, lr
30000e40:	30005078 	andcc	r5, r0, r8, ror r0
30000e44:	30005270 	andcc	r5, r0, r0, ror r2

30000e48 <inituart0>:
30000e48:	e3a01456 	mov	r1, #1442840576	; 0x56000000
30000e4c:	e5913070 	ldr	r3, [r1, #112]
30000e50:	e3c330f0 	bic	r3, r3, #240	; 0xf0
30000e54:	e5813070 	str	r3, [r1, #112]
30000e58:	e5912070 	ldr	r2, [r1, #112]
30000e5c:	e38220a0 	orr	r2, r2, #160	; 0xa0
30000e60:	e5812070 	str	r2, [r1, #112]
30000e64:	e5913078 	ldr	r3, [r1, #120]
30000e68:	e3c3300c 	bic	r3, r3, #12	; 0xc
30000e6c:	e5813078 	str	r3, [r1, #120]
30000e70:	e3a00005 	mov	r0, #5	; 0x5
30000e74:	e3a03245 	mov	r3, #1342177284	; 0x50000004
30000e78:	e5830000 	str	r0, [r3]
30000e7c:	e3a0c205 	mov	ip, #1342177280	; 0x50000000
30000e80:	e3a0201a 	mov	r2, #26	; 0x1a
30000e84:	e2433215 	sub	r3, r3, #1342177281	; 0x50000001
30000e88:	e58c2028 	str	r2, [ip, #40]
30000e8c:	e58c3000 	str	r3, [ip]
30000e90:	e1a0f00e 	mov	pc, lr

30000e94 <PutChar>:
30000e94:	e3a02205 	mov	r2, #1342177280	; 0x50000000
30000e98:	e5923010 	ldr	r3, [r2, #16]
30000e9c:	e3130004 	tst	r3, #4	; 0x4
30000ea0:	0afffffc 	beq	30000e98 <PutChar+0x4>
30000ea4:	e5c20020 	strb	r0, [r2, #32]
30000ea8:	e3a00000 	mov	r0, #0	; 0x0
30000eac:	e1a0f00e 	mov	pc, lr

30000eb0 <GetChar>:
30000eb0:	e3a02205 	mov	r2, #1342177280	; 0x50000000
30000eb4:	e5923010 	ldr	r3, [r2, #16]
30000eb8:	e3130001 	tst	r3, #1	; 0x1
30000ebc:	0afffffc 	beq	30000eb4 <GetChar+0x4>
30000ec0:	e5d20024 	ldrb	r0, [r2, #36]
30000ec4:	e1a0f00e 	mov	pc, lr

30000ec8 <Puts>:
30000ec8:	e92d4010 	stmdb	sp!, {r4, lr}
30000ecc:	e1a04000 	mov	r4, r0
30000ed0:	e5d00000 	ldrb	r0, [r0]
30000ed4:	ea000001 	b	30000ee0 <Puts+0x18>
30000ed8:	ebffffed 	bl	30000e94 <PutChar>
30000edc:	e5f40001 	ldrb	r0, [r4, #1]!
30000ee0:	e3500000 	cmp	r0, #0	; 0x0
30000ee4:	1afffffb 	bne	30000ed8 <Puts+0x10>
30000ee8:	e3a00000 	mov	r0, #0	; 0x0
30000eec:	e8bd8010 	ldmia	sp!, {r4, pc}

30000ef0 <initsdram>:
30000ef0:	e3a00721 	mov	r0, #8650752	; 0x840000
30000ef4:	e3a03312 	mov	r3, #1207959552	; 0x48000000
30000ef8:	e3a02422 	mov	r2, #570425344	; 0x22000000
30000efc:	e2800e4f 	add	r0, r0, #1264	; 0x4f0
30000f00:	e3a01906 	mov	r1, #98304	; 0x18000
30000f04:	e5832000 	str	r2, [r3]
30000f08:	e2811001 	add	r1, r1, #1	; 0x1
30000f0c:	e3a0c020 	mov	ip, #32	; 0x20
30000f10:	e2800005 	add	r0, r0, #5	; 0x5
30000f14:	e3a020b1 	mov	r2, #177	; 0xb1
30000f18:	e583101c 	str	r1, [r3, #28]
30000f1c:	e5831020 	str	r1, [r3, #32]
30000f20:	e5830024 	str	r0, [r3, #36]
30000f24:	e5832028 	str	r2, [r3, #40]
30000f28:	e583c02c 	str	ip, [r3, #44]
30000f2c:	e583c030 	str	ip, [r3, #48]
30000f30:	e1a0f00e 	mov	pc, lr

30000f34 <bank0_tacc_set>:
30000f34:	e1a00400 	mov	r0, r0, lsl #8
30000f38:	e3a03312 	mov	r3, #1207959552	; 0x48000000
30000f3c:	e5830004 	str	r0, [r3, #4]
30000f40:	e1a0f00e 	mov	pc, lr

30000f44 <SetupMem>:
30000f44:	e52de004 	str	lr, [sp, #-4]!
30000f48:	e3a03312 	mov	r3, #1207959552	; 0x48000000
30000f4c:	e5932000 	ldr	r2, [r3]
30000f50:	e3a0088e 	mov	r0, #9306112	; 0x8e0000
30000f54:	e59f3050 	ldr	r3, [pc, #80]	; 30000fac <.text+0xfac>
30000f58:	e2800e7a 	add	r0, r0, #1952	; 0x7a0
30000f5c:	e3a0c906 	mov	ip, #98304	; 0x18000
30000f60:	e3a01c07 	mov	r1, #1792	; 0x700
30000f64:	e28cc005 	add	ip, ip, #5	; 0x5
30000f68:	e3a0e030 	mov	lr, #48	; 0x30
30000f6c:	e2800003 	add	r0, r0, #3	; 0x3
30000f70:	e5823000 	str	r3, [r2]
30000f74:	e3a030b2 	mov	r3, #178	; 0xb2
30000f78:	e582e030 	str	lr, [r2, #48]
30000f7c:	e5821018 	str	r1, [r2, #24]
30000f80:	e582c020 	str	ip, [r2, #32]
30000f84:	e5820024 	str	r0, [r2, #36]
30000f88:	e5823028 	str	r3, [r2, #40]
30000f8c:	e5821004 	str	r1, [r2, #4]
30000f90:	e5821008 	str	r1, [r2, #8]
30000f94:	e582100c 	str	r1, [r2, #12]
30000f98:	e5821010 	str	r1, [r2, #16]
30000f9c:	e5821014 	str	r1, [r2, #20]
30000fa0:	e582c01c 	str	ip, [r2, #28]
30000fa4:	e582e02c 	str	lr, [r2, #44]
30000fa8:	e49df004 	ldr	pc, [sp], #4
30000fac:	22111110 	andcss	r1, r1, #4	; 0x4

30000fb0 <main>:
30000fb0:	e52de004 	str	lr, [sp, #-4]!
30000fb4:	eb000205 	bl	300017d0 <BootInit>
30000fb8:	eb000879 	bl	300031a4 <LEDTest>
30000fbc:	e3a00000 	mov	r0, #0	; 0x0
30000fc0:	e49df004 	ldr	pc, [sp], #4

30000fc4 <outc>:
30000fc4:	e52de004 	str	lr, [sp, #-4]!
30000fc8:	ebffffb1 	bl	30000e94 <PutChar>
30000fcc:	e3a00000 	mov	r0, #0	; 0x0
30000fd0:	e49df004 	ldr	pc, [sp], #4

30000fd4 <outs>:
30000fd4:	e92d4010 	stmdb	sp!, {r4, lr}
30000fd8:	e1a04000 	mov	r4, r0
30000fdc:	e5d00000 	ldrb	r0, [r0]
30000fe0:	ea000001 	b	30000fec <outs+0x18>
30000fe4:	ebffffaa 	bl	30000e94 <PutChar>
30000fe8:	e5f40001 	ldrb	r0, [r4, #1]!
30000fec:	e3500000 	cmp	r0, #0	; 0x0
30000ff0:	1afffffb 	bne	30000fe4 <outs+0x10>
30000ff4:	e3a00000 	mov	r0, #0	; 0x0
30000ff8:	e8bd8010 	ldmia	sp!, {r4, pc}

30000ffc <out_num>:
30000ffc:	e92d4ff0 	stmdb	sp!, {r4, r5, r6, r7, r8, r9, sl, fp, lr}
30001000:	e3a0c000 	mov	ip, #0	; 0x0
30001004:	e24dd040 	sub	sp, sp, #64	; 0x40
30001008:	e5cdc03f 	strb	ip, [sp, #63]
3000100c:	e59fa084 	ldr	sl, [pc, #132]	; 30001098 <.text+0x1098>
30001010:	e1a0700c 	mov	r7, ip
30001014:	e1a0b000 	mov	fp, r0
30001018:	e1a06001 	mov	r6, r1
3000101c:	e1a08003 	mov	r8, r3
30001020:	e20290ff 	and	r9, r2, #255	; 0xff
30001024:	e0204fc0 	eor	r4, r0, r0, asr #31
30001028:	e0444fc0 	sub	r4, r4, r0, asr #31
3000102c:	e28d503f 	add	r5, sp, #63	; 0x3f
30001030:	e1a00004 	mov	r0, r4
30001034:	e1a01006 	mov	r1, r6
30001038:	ebfffc94 	bl	30000290 <__umodsi3>
3000103c:	e7da3000 	ldrb	r3, [sl, r0]
30001040:	e1a01006 	mov	r1, r6
30001044:	e1a00004 	mov	r0, r4
30001048:	e5653001 	strb	r3, [r5, #-1]!
3000104c:	ebfffc53 	bl	300001a0 <__udivsi3>
30001050:	e2504000 	subs	r4, r0, #0	; 0x0
30001054:	e2877001 	add	r7, r7, #1	; 0x1
30001058:	1afffff4 	bne	30001030 <out_num+0x34>
3000105c:	e3580000 	cmp	r8, #0	; 0x0
30001060:	11570008 	cmpne	r7, r8
30001064:	aa000004 	bge	3000107c <out_num+0x80>
30001068:	e058c007 	subs	ip, r8, r7
3000106c:	0a000002 	beq	3000107c <out_num+0x80>
30001070:	e25cc001 	subs	ip, ip, #1	; 0x1
30001074:	e5659001 	strb	r9, [r5, #-1]!
30001078:	1afffffc 	bne	30001070 <out_num+0x74>
3000107c:	e35b0000 	cmp	fp, #0	; 0x0
30001080:	b3a0302d 	movlt	r3, #45	; 0x2d
30001084:	b5653001 	strltb	r3, [r5, #-1]!
30001088:	e1a00005 	mov	r0, r5
3000108c:	ebffffd0 	bl	30000fd4 <outs>
30001090:	e28dd040 	add	sp, sp, #64	; 0x40
30001094:	e8bd8ff0 	ldmia	sp!, {r4, r5, r6, r7, r8, r9, sl, fp, pc}
30001098:	30004f0c 	andcc	r4, r0, ip, lsl #30

3000109c <printf>:
3000109c:	e92d000f 	stmdb	sp!, {r0, r1, r2, r3}
300010a0:	e92d4030 	stmdb	sp!, {r4, r5, lr}
300010a4:	e59d400c 	ldr	r4, [sp, #12]
300010a8:	e5d40000 	ldrb	r0, [r4]
300010ac:	e3500000 	cmp	r0, #0	; 0x0
300010b0:	e28d5010 	add	r5, sp, #16	; 0x10
300010b4:	0a000005 	beq	300010d0 <printf+0x34>
300010b8:	e3500025 	cmp	r0, #37	; 0x25
300010bc:	0a000007 	beq	300010e0 <printf+0x44>
300010c0:	ebffffbf 	bl	30000fc4 <outc>
300010c4:	e5f40001 	ldrb	r0, [r4, #1]!
300010c8:	e3500000 	cmp	r0, #0	; 0x0
300010cc:	1afffff9 	bne	300010b8 <printf+0x1c>
300010d0:	e3a00000 	mov	r0, #0	; 0x0
300010d4:	e8bd4030 	ldmia	sp!, {r4, r5, lr}
300010d8:	e28dd010 	add	sp, sp, #16	; 0x10
300010dc:	e1a0f00e 	mov	pc, lr
300010e0:	e5f40001 	ldrb	r0, [r4, #1]!
300010e4:	e3500030 	cmp	r0, #48	; 0x30
300010e8:	05f40001 	ldreqb	r0, [r4, #1]!
300010ec:	e2403030 	sub	r3, r0, #48	; 0x30
300010f0:	e3530009 	cmp	r3, #9	; 0x9
300010f4:	e3a02000 	mov	r2, #0	; 0x0
300010f8:	8a000006 	bhi	30001118 <printf+0x7c>
300010fc:	e0822102 	add	r2, r2, r2, lsl #2
30001100:	e0802082 	add	r2, r0, r2, lsl #1
30001104:	e5f40001 	ldrb	r0, [r4, #1]!
30001108:	e2403030 	sub	r3, r0, #48	; 0x30
3000110c:	e3530009 	cmp	r3, #9	; 0x9
30001110:	e2422030 	sub	r2, r2, #48	; 0x30
30001114:	9afffff8 	bls	300010fc <printf+0x60>
30001118:	e2403063 	sub	r3, r0, #99	; 0x63
3000111c:	e3530015 	cmp	r3, #21	; 0x15
30001120:	979ff103 	ldrls	pc, [pc, r3, lsl #2]
30001124:	eaffffe5 	b	300010c0 <printf+0x24>
30001128:	300011b4 	strcch	r1, [r0], -r4
3000112c:	30001180 	andcc	r1, r0, r0, lsl #3
30001130:	300010c0 	andcc	r1, r0, r0, asr #1
30001134:	300010c0 	andcc	r1, r0, r0, asr #1
30001138:	300010c0 	andcc	r1, r0, r0, asr #1
3000113c:	300010c0 	andcc	r1, r0, r0, asr #1
30001140:	300010c0 	andcc	r1, r0, r0, asr #1
30001144:	300010c0 	andcc	r1, r0, r0, asr #1
30001148:	300010c0 	andcc	r1, r0, r0, asr #1
3000114c:	300010c0 	andcc	r1, r0, r0, asr #1
30001150:	300010c0 	andcc	r1, r0, r0, asr #1
30001154:	300010c0 	andcc	r1, r0, r0, asr #1
30001158:	300011a4 	andcc	r1, r0, r4, lsr #3
3000115c:	300010c0 	andcc	r1, r0, r0, asr #1
30001160:	300010c0 	andcc	r1, r0, r0, asr #1
30001164:	300010c0 	andcc	r1, r0, r0, asr #1
30001168:	30001198 	mulcc	r0, r8, r1
3000116c:	300010c0 	andcc	r1, r0, r0, asr #1
30001170:	30001180 	andcc	r1, r0, r0, lsl #3
30001174:	300010c0 	andcc	r1, r0, r0, asr #1
30001178:	300010c0 	andcc	r1, r0, r0, asr #1
3000117c:	300011bc 	strcch	r1, [r0], -ip
30001180:	e4950004 	ldr	r0, [r5], #4
30001184:	e1a03002 	mov	r3, r2
30001188:	e3a0100a 	mov	r1, #10	; 0xa
3000118c:	e3a02020 	mov	r2, #32	; 0x20
30001190:	ebffff99 	bl	30000ffc <out_num>
30001194:	eaffffca 	b	300010c4 <printf+0x28>
30001198:	e4950004 	ldr	r0, [r5], #4
3000119c:	ebffff8c 	bl	30000fd4 <outs>
300011a0:	eaffffc7 	b	300010c4 <printf+0x28>
300011a4:	e4950004 	ldr	r0, [r5], #4
300011a8:	e1a03002 	mov	r3, r2
300011ac:	e3a01008 	mov	r1, #8	; 0x8
300011b0:	eafffff5 	b	3000118c <.text+0x118c>
300011b4:	e4950004 	ldr	r0, [r5], #4
300011b8:	eaffffc0 	b	300010c0 <printf+0x24>
300011bc:	e4950004 	ldr	r0, [r5], #4
300011c0:	e1a03002 	mov	r3, r2
300011c4:	e3a01010 	mov	r1, #16	; 0x10
300011c8:	eaffffef 	b	3000118c <.text+0x118c>

300011cc <printHex>:
300011cc:	e92d4030 	stmdb	sp!, {r4, r5, lr}
300011d0:	e24dd008 	sub	sp, sp, #8	; 0x8
300011d4:	e1a0200d 	mov	r2, sp
300011d8:	e3a04007 	mov	r4, #7	; 0x7
300011dc:	e200300f 	and	r3, r0, #15	; 0xf
300011e0:	e2544001 	subs	r4, r4, #1	; 0x1
300011e4:	e4c23001 	strb	r3, [r2], #1
300011e8:	e1a00220 	mov	r0, r0, lsr #4
300011ec:	5afffffa 	bpl	300011dc <printHex+0x10>
300011f0:	e59f004c 	ldr	r0, [pc, #76]	; 30001244 <.text+0x1244>
300011f4:	ebffff33 	bl	30000ec8 <Puts>
300011f8:	e3a04007 	mov	r4, #7	; 0x7
300011fc:	e08d5004 	add	r5, sp, r4
30001200:	ea000004 	b	30001218 <printHex+0x4c>
30001204:	e3520005 	cmp	r2, #5	; 0x5
30001208:	e2830037 	add	r0, r3, #55	; 0x37
3000120c:	9a000007 	bls	30001230 <printHex+0x64>
30001210:	e2544001 	subs	r4, r4, #1	; 0x1
30001214:	4a000008 	bmi	3000123c <printHex+0x70>
30001218:	e4553001 	ldrb	r3, [r5], #-1
3000121c:	e243200a 	sub	r2, r3, #10	; 0xa
30001220:	e20330ff 	and	r3, r3, #255	; 0xff
30001224:	e3530009 	cmp	r3, #9	; 0x9
30001228:	e2830030 	add	r0, r3, #48	; 0x30
3000122c:	8afffff4 	bhi	30001204 <printHex+0x38>
30001230:	ebffff17 	bl	30000e94 <PutChar>
30001234:	e2544001 	subs	r4, r4, #1	; 0x1
30001238:	5afffff6 	bpl	30001218 <printHex+0x4c>
3000123c:	e28dd008 	add	sp, sp, #8	; 0x8
30001240:	e8bd8030 	ldmia	sp!, {r4, r5, pc}
30001244:	30004d44 	andcc	r4, r0, r4, asr #26

30001248 <print1>:
30001248:	e59f0000 	ldr	r0, [pc, #0]	; 30001250 <.text+0x1250>
3000124c:	eaffff1d 	b	30000ec8 <Puts>
30001250:	30004d48 	andcc	r4, r0, r8, asr #26

30001254 <print2>:
30001254:	e59f0000 	ldr	r0, [pc, #0]	; 3000125c <.text+0x125c>
30001258:	eaffff1a 	b	30000ec8 <Puts>
3000125c:	30004d50 	andcc	r4, r0, r0, asr sp

30001260 <simple_strtoul>:
30001260:	e92d4030 	stmdb	sp!, {r4, r5, lr}
30001264:	e5d0c000 	ldrb	ip, [r0]
30001268:	e35c0030 	cmp	ip, #48	; 0x30
3000126c:	e1a05001 	mov	r5, r1
30001270:	e1a0e002 	mov	lr, r2
30001274:	e3a01000 	mov	r1, #0	; 0x0
30001278:	0a000017 	beq	300012dc <simple_strtoul+0x7c>
3000127c:	e3520000 	cmp	r2, #0	; 0x0
30001280:	e59f4090 	ldr	r4, [pc, #144]	; 30001318 <.text+0x1318>
30001284:	0282e00a 	addeq	lr, r2, #10	; 0xa
30001288:	ea00000a 	b	300012b8 <simple_strtoul+0x58>
3000128c:	e3120004 	tst	r2, #4	; 0x4
30001290:	1a000004 	bne	300012a8 <simple_strtoul+0x48>
30001294:	e24c3020 	sub	r3, ip, #32	; 0x20
30001298:	e20330ff 	and	r3, r3, #255	; 0xff
3000129c:	e3120002 	tst	r2, #2	; 0x2
300012a0:	e2433037 	sub	r3, r3, #55	; 0x37
300012a4:	024c3037 	subeq	r3, ip, #55	; 0x37
300012a8:	e153000e 	cmp	r3, lr
300012ac:	2a000006 	bcs	300012cc <simple_strtoul+0x6c>
300012b0:	e021319e 	mla	r1, lr, r1, r3
300012b4:	e5f0c001 	ldrb	ip, [r0, #1]!
300012b8:	e20cc0ff 	and	ip, ip, #255	; 0xff
300012bc:	e7d4200c 	ldrb	r2, [r4, ip]
300012c0:	e3120044 	tst	r2, #68	; 0x44
300012c4:	e24c3030 	sub	r3, ip, #48	; 0x30
300012c8:	1affffef 	bne	3000128c <simple_strtoul+0x2c>
300012cc:	e3550000 	cmp	r5, #0	; 0x0
300012d0:	15850000 	strne	r0, [r5]
300012d4:	e1a00001 	mov	r0, r1
300012d8:	e8bd8030 	ldmia	sp!, {r4, r5, pc}
300012dc:	e5f0c001 	ldrb	ip, [r0, #1]!
300012e0:	e35c0058 	cmp	ip, #88	; 0x58
300012e4:	135c0078 	cmpne	ip, #120	; 0x78
300012e8:	159f4028 	ldrne	r4, [pc, #40]	; 30001318 <.text+0x1318>
300012ec:	1a000006 	bne	3000130c <simple_strtoul+0xac>
300012f0:	e5d03001 	ldrb	r3, [r0, #1]
300012f4:	e59f401c 	ldr	r4, [pc, #28]	; 30001318 <.text+0x1318>
300012f8:	e7d42003 	ldrb	r2, [r4, r3]
300012fc:	e3120044 	tst	r2, #68	; 0x44
30001300:	15f0c001 	ldrneb	ip, [r0, #1]!
30001304:	13a0e010 	movne	lr, #16	; 0x10
30001308:	1affffea 	bne	300012b8 <simple_strtoul+0x58>
3000130c:	e35e0000 	cmp	lr, #0	; 0x0
30001310:	028ee008 	addeq	lr, lr, #8	; 0x8
30001314:	eaffffe7 	b	300012b8 <simple_strtoul+0x58>
30001318:	30004f1c 	andcc	r4, r0, ip, lsl pc

3000131c <simple_strtol>:
3000131c:	e52de004 	str	lr, [sp, #-4]!
30001320:	e5d03000 	ldrb	r3, [r0]
30001324:	e353002d 	cmp	r3, #45	; 0x2d
30001328:	0a000001 	beq	30001334 <simple_strtol+0x18>
3000132c:	e49de004 	ldr	lr, [sp], #4
30001330:	eaffffca 	b	30001260 <simple_strtoul>
30001334:	e2800001 	add	r0, r0, #1	; 0x1
30001338:	ebffffc8 	bl	30001260 <simple_strtoul>
3000133c:	e2600000 	rsb	r0, r0, #0	; 0x0
30001340:	e49df004 	ldr	pc, [sp], #4

30001344 <gets>:
30001344:	e92d4070 	stmdb	sp!, {r4, r5, r6, lr}
30001348:	e1a06000 	mov	r6, r0
3000134c:	e3a05000 	mov	r5, #0	; 0x0
30001350:	ea000007 	b	30001374 <gets+0x30>
30001354:	e354000d 	cmp	r4, #13	; 0xd
30001358:	e3a0000a 	mov	r0, #10	; 0xa
3000135c:	0a00000b 	beq	30001390 <gets+0x4c>
30001360:	e354000d 	cmp	r4, #13	; 0xd
30001364:	1354000a 	cmpne	r4, #10	; 0xa
30001368:	0a00000c 	beq	300013a0 <gets+0x5c>
3000136c:	e7c54006 	strb	r4, [r5, r6]
30001370:	e2855001 	add	r5, r5, #1	; 0x1
30001374:	ebfffecd 	bl	30000eb0 <GetChar>
30001378:	e20040ff 	and	r4, r0, #255	; 0xff
3000137c:	e1a00004 	mov	r0, r4
30001380:	ebfffec3 	bl	30000e94 <PutChar>
30001384:	e354000a 	cmp	r4, #10	; 0xa
30001388:	e3a0000d 	mov	r0, #13	; 0xd
3000138c:	1afffff0 	bne	30001354 <gets+0x10>
30001390:	ebfffebf 	bl	30000e94 <PutChar>
30001394:	e354000d 	cmp	r4, #13	; 0xd
30001398:	1354000a 	cmpne	r4, #10	; 0xa
3000139c:	1afffff2 	bne	3000136c <gets+0x28>
300013a0:	e3a03000 	mov	r3, #0	; 0x0
300013a4:	e1a00006 	mov	r0, r6
300013a8:	e7c63005 	strb	r3, [r6, r5]
300013ac:	e8bd8070 	ldmia	sp!, {r4, r5, r6, pc}

300013b0 <get_int>:
300013b0:	e92d4010 	stmdb	sp!, {r4, lr}
300013b4:	e24dd064 	sub	sp, sp, #100	; 0x64
300013b8:	e1a0000d 	mov	r0, sp
300013bc:	ebffffe0 	bl	30001344 <gets>
300013c0:	e3a01000 	mov	r1, #0	; 0x0
300013c4:	e1a0000d 	mov	r0, sp
300013c8:	e1a02001 	mov	r2, r1
300013cc:	e1a0400d 	mov	r4, sp
300013d0:	ebffffd1 	bl	3000131c <simple_strtol>
300013d4:	e28dd064 	add	sp, sp, #100	; 0x64
300013d8:	e8bd8010 	ldmia	sp!, {r4, pc}

300013dc <get_uint>:
300013dc:	e92d4010 	stmdb	sp!, {r4, lr}
300013e0:	e24dd064 	sub	sp, sp, #100	; 0x64
300013e4:	e1a0000d 	mov	r0, sp
300013e8:	ebffffd5 	bl	30001344 <gets>
300013ec:	e3a01000 	mov	r1, #0	; 0x0
300013f0:	e1a0000d 	mov	r0, sp
300013f4:	e1a02001 	mov	r2, r1
300013f8:	e1a0400d 	mov	r4, sp
300013fc:	ebffff97 	bl	30001260 <simple_strtoul>
30001400:	e28dd064 	add	sp, sp, #100	; 0x64
30001404:	e8bd8010 	ldmia	sp!, {r4, pc}

30001408 <strlen>:
30001408:	e5d03000 	ldrb	r3, [r0]
3000140c:	e3530000 	cmp	r3, #0	; 0x0
30001410:	e1a02000 	mov	r2, r0
30001414:	0a000002 	beq	30001424 <strlen+0x1c>
30001418:	e5f03001 	ldrb	r3, [r0, #1]!
3000141c:	e3530000 	cmp	r3, #0	; 0x0
30001420:	1afffffc 	bne	30001418 <strlen+0x10>
30001424:	e0620000 	rsb	r0, r2, r0
30001428:	e1a0f00e 	mov	pc, lr

3000142c <strcmp>:
3000142c:	e5d02000 	ldrb	r2, [r0]
30001430:	e4d13001 	ldrb	r3, [r1], #1
30001434:	e0633002 	rsb	r3, r3, r2
30001438:	e1b0cc03 	movs	ip, r3, lsl #24
3000143c:	e2800001 	add	r0, r0, #1	; 0x1
30001440:	e20330ff 	and	r3, r3, #255	; 0xff
30001444:	1a000001 	bne	30001450 <strcmp+0x24>
30001448:	e3520000 	cmp	r2, #0	; 0x0
3000144c:	1afffff6 	bne	3000142c <strcmp>
30001450:	e1a00c03 	mov	r0, r3, lsl #24
30001454:	e1a00c40 	mov	r0, r0, asr #24
30001458:	e1a0f00e 	mov	pc, lr

3000145c <printException>:
3000145c:	e92d4030 	stmdb	sp!, {r4, r5, lr}
30001460:	e1a04000 	mov	r4, r0
30001464:	e59f0028 	ldr	r0, [pc, #40]	; 30001494 <.text+0x1494>
30001468:	e1a05001 	mov	r5, r1
3000146c:	ebfffe95 	bl	30000ec8 <Puts>
30001470:	e1a00004 	mov	r0, r4
30001474:	ebffff54 	bl	300011cc <printHex>
30001478:	e59f0018 	ldr	r0, [pc, #24]	; 30001498 <.text+0x1498>
3000147c:	ebfffe91 	bl	30000ec8 <Puts>
30001480:	e1a00005 	mov	r0, r5
30001484:	ebfffe8f 	bl	30000ec8 <Puts>
30001488:	e59f000c 	ldr	r0, [pc, #12]	; 3000149c <.text+0x149c>
3000148c:	e8bd4030 	ldmia	sp!, {r4, r5, lr}
30001490:	eafffe8c 	b	30000ec8 <Puts>
30001494:	30004d58 	andcc	r4, r0, r8, asr sp
30001498:	30004cac 	andcc	r4, r0, ip, lsr #25
3000149c:	30004eb8 	strcch	r4, [r0], -r8

300014a0 <printSWIVal>:
300014a0:	e92d4010 	stmdb	sp!, {r4, lr}
300014a4:	e1a04000 	mov	r4, r0
300014a8:	e59f0018 	ldr	r0, [pc, #24]	; 300014c8 <.text+0x14c8>
300014ac:	ebfffe85 	bl	30000ec8 <Puts>
300014b0:	e5940000 	ldr	r0, [r4]
300014b4:	e3c004ff 	bic	r0, r0, #-16777216	; 0xff000000
300014b8:	ebffff43 	bl	300011cc <printHex>
300014bc:	e59f0008 	ldr	r0, [pc, #8]	; 300014cc <.text+0x14cc>
300014c0:	e8bd4010 	ldmia	sp!, {r4, lr}
300014c4:	eafffe7f 	b	30000ec8 <Puts>
300014c8:	30004d6c 	andcc	r4, r0, ip, ror #26
300014cc:	30004eb8 	strcch	r4, [r0], -r8

300014d0 <InitKeyInterrupt>:
300014d0:	e3a0244a 	mov	r2, #1241513984	; 0x4a000000
300014d4:	e5923008 	ldr	r3, [r2, #8]
300014d8:	e3c33025 	bic	r3, r3, #37	; 0x25
300014dc:	e5823008 	str	r3, [r2, #8]
300014e0:	e1a0f00e 	mov	pc, lr

300014e4 <InitKeyEint>:
300014e4:	e3a01456 	mov	r1, #1442840576	; 0x56000000
300014e8:	e5913050 	ldr	r3, [r1, #80]
300014ec:	e3c33033 	bic	r3, r3, #51	; 0x33
300014f0:	e5813050 	str	r3, [r1, #80]
300014f4:	e5912050 	ldr	r2, [r1, #80]
300014f8:	e3822022 	orr	r2, r2, #34	; 0x22
300014fc:	e5812050 	str	r2, [r1, #80]
30001500:	e5913060 	ldr	r3, [r1, #96]
30001504:	e3c33503 	bic	r3, r3, #12582912	; 0xc00000
30001508:	e3c330c0 	bic	r3, r3, #192	; 0xc0
3000150c:	e5813060 	str	r3, [r1, #96]
30001510:	e5912060 	ldr	r2, [r1, #96]
30001514:	e3822502 	orr	r2, r2, #8388608	; 0x800000
30001518:	e3822080 	orr	r2, r2, #128	; 0x80
3000151c:	e5812060 	str	r2, [r1, #96]
30001520:	e5913088 	ldr	r3, [r1, #136]
30001524:	e3833c07 	orr	r3, r3, #1792	; 0x700
30001528:	e3833007 	orr	r3, r3, #7	; 0x7
3000152c:	e5813088 	str	r3, [r1, #136]
30001530:	e591208c 	ldr	r2, [r1, #140]
30001534:	e3822a07 	orr	r2, r2, #28672	; 0x7000
30001538:	e581208c 	str	r2, [r1, #140]
3000153c:	e5913090 	ldr	r3, [r1, #144]
30001540:	e3833a07 	orr	r3, r3, #28672	; 0x7000
30001544:	e5813090 	str	r3, [r1, #144]
30001548:	e59120a4 	ldr	r2, [r1, #164]
3000154c:	e3c22702 	bic	r2, r2, #524288	; 0x80000
30001550:	e3c22b02 	bic	r2, r2, #2048	; 0x800
30001554:	e58120a4 	str	r2, [r1, #164]
30001558:	e1a0f00e 	mov	pc, lr

3000155c <KeyEintIrq>:
3000155c:	e3a02456 	mov	r2, #1442840576	; 0x56000000
30001560:	e3500000 	cmp	r0, #0	; 0x0
30001564:	e592c0a8 	ldr	ip, [r2, #168]
30001568:	e5923054 	ldr	r3, [r2, #84]
3000156c:	e5921064 	ldr	r1, [r2, #100]
30001570:	1a000008 	bne	30001598 <KeyEintIrq+0x3c>
30001574:	e3130001 	tst	r3, #1	; 0x1
30001578:	15923054 	ldrne	r3, [r2, #84]
3000157c:	05923054 	ldreq	r3, [r2, #84]
30001580:	13833040 	orrne	r3, r3, #64	; 0x40
30001584:	03c33040 	biceq	r3, r3, #64	; 0x40
30001588:	e5823054 	str	r3, [r2, #84]
3000158c:	e3a03456 	mov	r3, #1442840576	; 0x56000000
30001590:	e583c0a8 	str	ip, [r3, #168]
30001594:	e1a0f00e 	mov	pc, lr
30001598:	e3500002 	cmp	r0, #2	; 0x2
3000159c:	0a000009 	beq	300015c8 <KeyEintIrq+0x6c>
300015a0:	e3500005 	cmp	r0, #5	; 0x5
300015a4:	1afffff8 	bne	3000158c <KeyEintIrq+0x30>
300015a8:	e31c0b02 	tst	ip, #2048	; 0x800
300015ac:	0a00000b 	beq	300015e0 <KeyEintIrq+0x84>
300015b0:	e3110008 	tst	r1, #8	; 0x8
300015b4:	15923054 	ldrne	r3, [r2, #84]
300015b8:	05923054 	ldreq	r3, [r2, #84]
300015bc:	13833010 	orrne	r3, r3, #16	; 0x10
300015c0:	03c33010 	biceq	r3, r3, #16	; 0x10
300015c4:	eaffffef 	b	30001588 <KeyEintIrq+0x2c>
300015c8:	e3130004 	tst	r3, #4	; 0x4
300015cc:	15923054 	ldrne	r3, [r2, #84]
300015d0:	05923054 	ldreq	r3, [r2, #84]
300015d4:	13833020 	orrne	r3, r3, #32	; 0x20
300015d8:	03c33020 	biceq	r3, r3, #32	; 0x20
300015dc:	eaffffe9 	b	30001588 <KeyEintIrq+0x2c>
300015e0:	e31c0702 	tst	ip, #524288	; 0x80000
300015e4:	0affffe8 	beq	3000158c <KeyEintIrq+0x30>
300015e8:	e3110b02 	tst	r1, #2048	; 0x800
300015ec:	15923054 	ldrne	r3, [r2, #84]
300015f0:	05923054 	ldreq	r3, [r2, #84]
300015f4:	13833070 	orrne	r3, r3, #112	; 0x70
300015f8:	03c33070 	biceq	r3, r3, #112	; 0x70
300015fc:	eaffffe1 	b	30001588 <KeyEintIrq+0x2c>

30001600 <HandleIrqC>:
30001600:	e92d4030 	stmdb	sp!, {r4, r5, lr}
30001604:	e3a0544a 	mov	r5, #1241513984	; 0x4a000000
30001608:	e5954014 	ldr	r4, [r5, #20]
3000160c:	e59f201c 	ldr	r2, [pc, #28]	; 30001630 <.text+0x1630>
30001610:	e1a00004 	mov	r0, r4
30001614:	e1a0e00f 	mov	lr, pc
30001618:	e792f104 	ldr	pc, [r2, r4, lsl #2]
3000161c:	e3a03001 	mov	r3, #1	; 0x1
30001620:	e1a03413 	mov	r3, r3, lsl r4
30001624:	e5853000 	str	r3, [r5]
30001628:	e5853010 	str	r3, [r5, #16]
3000162c:	e8bd8030 	ldmia	sp!, {r4, r5, pc}
30001630:	300050f0 	strccd	r5, [r0], -r0

30001634 <RegisterIrq>:
30001634:	e52de004 	str	lr, [sp, #-4]!
30001638:	e3a0e44a 	mov	lr, #1241513984	; 0x4a000000
3000163c:	e59ec008 	ldr	ip, [lr, #8]
30001640:	e3a03001 	mov	r3, #1	; 0x1
30001644:	e59f200c 	ldr	r2, [pc, #12]	; 30001658 <.text+0x1658>
30001648:	e1ccc013 	bic	ip, ip, r3, lsl r0
3000164c:	e7821100 	str	r1, [r2, r0, lsl #2]
30001650:	e58ec008 	str	ip, [lr, #8]
30001654:	e49df004 	ldr	pc, [sp], #4
30001658:	300050f0 	strccd	r5, [r0], -r0

3000165c <RegisterTimer>:
3000165c:	e52de004 	str	lr, [sp, #-4]!
30001660:	e59fc038 	ldr	ip, [pc, #56]	; 300016a0 <.text+0x16a0>
30001664:	e1a0e000 	mov	lr, r0
30001668:	e3a03000 	mov	r3, #0	; 0x0
3000166c:	ea000002 	b	3000167c <RegisterTimer+0x20>
30001670:	e2833001 	add	r3, r3, #1	; 0x1
30001674:	e353001f 	cmp	r3, #31	; 0x1f
30001678:	ca000006 	bgt	30001698 <RegisterTimer+0x3c>
3000167c:	e08c2183 	add	r2, ip, r3, lsl #3
30001680:	e5920004 	ldr	r0, [r2, #4]
30001684:	e3500000 	cmp	r0, #0	; 0x0
30001688:	1afffff8 	bne	30001670 <RegisterTimer+0x14>
3000168c:	e78ce183 	str	lr, [ip, r3, lsl #3]
30001690:	e5821004 	str	r1, [r2, #4]
30001694:	e49df004 	ldr	pc, [sp], #4
30001698:	e3e00000 	mvn	r0, #0	; 0x0
3000169c:	e49df004 	ldr	pc, [sp], #4
300016a0:	30005170 	andcc	r5, r0, r0, ror r1

300016a4 <UnregisterTimer>:
300016a4:	e92d40f0 	stmdb	sp!, {r4, r5, r6, r7, lr}
300016a8:	e59f5050 	ldr	r5, [pc, #80]	; 30001700 <.text+0x1700>
300016ac:	e1a06000 	mov	r6, r0
300016b0:	e3a04000 	mov	r4, #0	; 0x0
300016b4:	e1a07005 	mov	r7, r5
300016b8:	ea000003 	b	300016cc <UnregisterTimer+0x28>
300016bc:	e2844001 	add	r4, r4, #1	; 0x1
300016c0:	e354001f 	cmp	r4, #31	; 0x1f
300016c4:	e2855008 	add	r5, r5, #8	; 0x8
300016c8:	ca000009 	bgt	300016f4 <UnregisterTimer+0x50>
300016cc:	e7970184 	ldr	r0, [r7, r4, lsl #3]
300016d0:	e1a01006 	mov	r1, r6
300016d4:	ebffff54 	bl	3000142c <strcmp>
300016d8:	e3500000 	cmp	r0, #0	; 0x0
300016dc:	1afffff6 	bne	300016bc <UnregisterTimer+0x18>
300016e0:	e1a03000 	mov	r3, r0
300016e4:	e7870184 	str	r0, [r7, r4, lsl #3]
300016e8:	e5850004 	str	r0, [r5, #4]
300016ec:	e1a00003 	mov	r0, r3
300016f0:	e8bd80f0 	ldmia	sp!, {r4, r5, r6, r7, pc}
300016f4:	e3e03000 	mvn	r3, #0	; 0x0
300016f8:	e1a00003 	mov	r0, r3
300016fc:	e8bd80f0 	ldmia	sp!, {r4, r5, r6, r7, pc}
30001700:	30005170 	andcc	r5, r0, r0, ror r1

30001704 <TimerIrq>:
30001704:	e92d4030 	stmdb	sp!, {r4, r5, lr}
30001708:	e59f5030 	ldr	r5, [pc, #48]	; 30001740 <.text+0x1740>
3000170c:	e3a0401f 	mov	r4, #31	; 0x1f
30001710:	ea000001 	b	3000171c <TimerIrq+0x18>
30001714:	e2544001 	subs	r4, r4, #1	; 0x1
30001718:	4a000007 	bmi	3000173c <TimerIrq+0x38>
3000171c:	e5953004 	ldr	r3, [r5, #4]
30001720:	e3530000 	cmp	r3, #0	; 0x0
30001724:	e2855008 	add	r5, r5, #8	; 0x8
30001728:	0afffff9 	beq	30001714 <TimerIrq+0x10>
3000172c:	e1a0e00f 	mov	lr, pc
30001730:	e1a0f003 	mov	pc, r3
30001734:	e2544001 	subs	r4, r4, #1	; 0x1
30001738:	5afffff7 	bpl	3000171c <TimerIrq+0x18>
3000173c:	e8bd8030 	ldmia	sp!, {r4, r5, pc}
30001740:	30005170 	andcc	r5, r0, r0, ror r1

30001744 <InitTimer>:
30001744:	e3a0c451 	mov	ip, #1358954496	; 0x51000000
30001748:	e3a02031 	mov	r2, #49	; 0x31
3000174c:	e58c2000 	str	r2, [ip]
30001750:	e59c3004 	ldr	r3, [ip, #4]
30001754:	e3c3300f 	bic	r3, r3, #15	; 0xf
30001758:	e58c3004 	str	r3, [ip, #4]
3000175c:	e59c2004 	ldr	r2, [ip, #4]
30001760:	e3a01e27 	mov	r1, #624	; 0x270
30001764:	e3822003 	orr	r2, r2, #3	; 0x3
30001768:	e2811001 	add	r1, r1, #1	; 0x1
3000176c:	e58c2004 	str	r2, [ip, #4]
30001770:	e58c100c 	str	r1, [ip, #12]
30001774:	e59c3008 	ldr	r3, [ip, #8]
30001778:	e3833002 	orr	r3, r3, #2	; 0x2
3000177c:	e58c3008 	str	r3, [ip, #8]
30001780:	e59c2008 	ldr	r2, [ip, #8]
30001784:	e3c22002 	bic	r2, r2, #2	; 0x2
30001788:	e58c2008 	str	r2, [ip, #8]
3000178c:	e59c3008 	ldr	r3, [ip, #8]
30001790:	e59f100c 	ldr	r1, [pc, #12]	; 300017a4 <.text+0x17a4>
30001794:	e3833009 	orr	r3, r3, #9	; 0x9
30001798:	e3a0000a 	mov	r0, #10	; 0xa
3000179c:	e58c3008 	str	r3, [ip, #8]
300017a0:	eaffffa3 	b	30001634 <RegisterIrq>
300017a4:	30001704 	andcc	r1, r0, r4, lsl #14

300017a8 <Delay>:
300017a8:	e24dd004 	sub	sp, sp, #4	; 0x4
300017ac:	e58d0000 	str	r0, [sp]
300017b0:	e59d3000 	ldr	r3, [sp]
300017b4:	e2433001 	sub	r3, r3, #1	; 0x1
300017b8:	e58d3000 	str	r3, [sp]
300017bc:	e59d2000 	ldr	r2, [sp]
300017c0:	e3720001 	cmn	r2, #1	; 0x1
300017c4:	1afffff9 	bne	300017b0 <Delay+0x8>
300017c8:	e28dd004 	add	sp, sp, #4	; 0x4
300017cc:	e1a0f00e 	mov	pc, lr

300017d0 <BootInit>:
300017d0:	ea00066a 	b	30003180 <InitLed>

300017d4 <BootScreen>:
300017d4:	e92d4070 	stmdb	sp!, {r4, r5, r6, lr}
300017d8:	e24dd010 	sub	sp, sp, #16	; 0x10
300017dc:	e28d2004 	add	r2, sp, #4	; 0x4
300017e0:	e1a0300d 	mov	r3, sp
300017e4:	e28d000c 	add	r0, sp, #12	; 0xc
300017e8:	e28d1008 	add	r1, sp, #8	; 0x8
300017ec:	eb00031e 	bl	3000246c <GetLcdParams>
300017f0:	e59d3000 	ldr	r3, [sp]
300017f4:	e3530008 	cmp	r3, #8	; 0x8
300017f8:	e3a02000 	mov	r2, #0	; 0x0
300017fc:	0a00003e 	beq	300018fc <BootScreen+0x128>
30001800:	e3530010 	cmp	r3, #16	; 0x10
30001804:	0a000050 	beq	3000194c <BootScreen+0x178>
30001808:	e3530020 	cmp	r3, #32	; 0x20
3000180c:	0a000065 	beq	300019a8 <BootScreen+0x1d4>
30001810:	e3a00a7a 	mov	r0, #499712	; 0x7a000
30001814:	e2800e12 	add	r0, r0, #288	; 0x120
30001818:	ebffffe2 	bl	300017a8 <Delay>
3000181c:	e3a0000a 	mov	r0, #10	; 0xa
30001820:	e1a01000 	mov	r1, r0
30001824:	e59f21d0 	ldr	r2, [pc, #464]	; 300019fc <.text+0x19fc>
30001828:	e3a03000 	mov	r3, #0	; 0x0
3000182c:	eb000632 	bl	300030fc <PrintFbString8x16>
30001830:	e3a0097a 	mov	r0, #1998848	; 0x1e8000
30001834:	e2800d12 	add	r0, r0, #1152	; 0x480
30001838:	ebffffda 	bl	300017a8 <Delay>
3000183c:	e3a01032 	mov	r1, #50	; 0x32
30001840:	e59f21b8 	ldr	r2, [pc, #440]	; 30001a00 <.text+0x1a00>
30001844:	e3a03000 	mov	r3, #0	; 0x0
30001848:	e3a0000a 	mov	r0, #10	; 0xa
3000184c:	eb00062a 	bl	300030fc <PrintFbString8x16>
30001850:	e3a0097a 	mov	r0, #1998848	; 0x1e8000
30001854:	e2800d12 	add	r0, r0, #1152	; 0x480
30001858:	ebffffd2 	bl	300017a8 <Delay>
3000185c:	e3a0105a 	mov	r1, #90	; 0x5a
30001860:	e59f219c 	ldr	r2, [pc, #412]	; 30001a04 <.text+0x1a04>
30001864:	e3a03000 	mov	r3, #0	; 0x0
30001868:	e3a0000a 	mov	r0, #10	; 0xa
3000186c:	eb000622 	bl	300030fc <PrintFbString8x16>
30001870:	e3a0097a 	mov	r0, #1998848	; 0x1e8000
30001874:	e2800d12 	add	r0, r0, #1152	; 0x480
30001878:	ebffffca 	bl	300017a8 <Delay>
3000187c:	e3a01082 	mov	r1, #130	; 0x82
30001880:	e59f2180 	ldr	r2, [pc, #384]	; 30001a08 <.text+0x1a08>
30001884:	e3a03000 	mov	r3, #0	; 0x0
30001888:	e3a0000a 	mov	r0, #10	; 0xa
3000188c:	eb00061a 	bl	300030fc <PrintFbString8x16>
30001890:	e3a0097a 	mov	r0, #1998848	; 0x1e8000
30001894:	e2800d12 	add	r0, r0, #1152	; 0x480
30001898:	ebffffc2 	bl	300017a8 <Delay>
3000189c:	e3a0000a 	mov	r0, #10	; 0xa
300018a0:	e3a010aa 	mov	r1, #170	; 0xaa
300018a4:	e59f2160 	ldr	r2, [pc, #352]	; 30001a0c <.text+0x1a0c>
300018a8:	e3a03000 	mov	r3, #0	; 0x0
300018ac:	eb000612 	bl	300030fc <PrintFbString8x16>
300018b0:	e3a010be 	mov	r1, #190	; 0xbe
300018b4:	e59f2154 	ldr	r2, [pc, #340]	; 30001a10 <.text+0x1a10>
300018b8:	e3a03000 	mov	r3, #0	; 0x0
300018bc:	e3a0000a 	mov	r0, #10	; 0xa
300018c0:	eb00060d 	bl	300030fc <PrintFbString8x16>
300018c4:	e3a0097a 	mov	r0, #1998848	; 0x1e8000
300018c8:	e2800d12 	add	r0, r0, #1152	; 0x480
300018cc:	ebffffb5 	bl	300017a8 <Delay>
300018d0:	e3a0000a 	mov	r0, #10	; 0xa
300018d4:	e3a010e6 	mov	r1, #230	; 0xe6
300018d8:	e59f2134 	ldr	r2, [pc, #308]	; 30001a14 <.text+0x1a14>
300018dc:	e3a03000 	mov	r3, #0	; 0x0
300018e0:	eb000605 	bl	300030fc <PrintFbString8x16>
300018e4:	e3a00713 	mov	r0, #4980736	; 0x4c0000
300018e8:	e2800c4b 	add	r0, r0, #19200	; 0x4b00
300018ec:	e2800040 	add	r0, r0, #64	; 0x40
300018f0:	ebffffac 	bl	300017a8 <Delay>
300018f4:	e28dd010 	add	sp, sp, #16	; 0x10
300018f8:	e8bd8070 	ldmia	sp!, {r4, r5, r6, pc}
300018fc:	e59d0008 	ldr	r0, [sp, #8]
30001900:	e1520000 	cmp	r2, r0
30001904:	e1a06002 	mov	r6, r2
30001908:	e59d200c 	ldr	r2, [sp, #12]
3000190c:	aaffffbf 	bge	30001810 <BootScreen+0x3c>
30001910:	e59d3004 	ldr	r3, [sp, #4]
30001914:	e3a04000 	mov	r4, #0	; 0x0
30001918:	e1540003 	cmp	r4, r3
3000191c:	aa000006 	bge	3000193c <BootScreen+0x168>
30001920:	e1a01004 	mov	r1, r4
30001924:	e4c21001 	strb	r1, [r2], #1
30001928:	e59d3004 	ldr	r3, [sp, #4]
3000192c:	e2844001 	add	r4, r4, #1	; 0x1
30001930:	e1540003 	cmp	r4, r3
30001934:	bafffffa 	blt	30001924 <BootScreen+0x150>
30001938:	e59d0008 	ldr	r0, [sp, #8]
3000193c:	e2866001 	add	r6, r6, #1	; 0x1
30001940:	e1560000 	cmp	r6, r0
30001944:	bafffff2 	blt	30001914 <BootScreen+0x140>
30001948:	eaffffb0 	b	30001810 <BootScreen+0x3c>
3000194c:	e59d0008 	ldr	r0, [sp, #8]
30001950:	e1520000 	cmp	r2, r0
30001954:	e1a06002 	mov	r6, r2
30001958:	e59d500c 	ldr	r5, [sp, #12]
3000195c:	aaffffab 	bge	30001810 <BootScreen+0x3c>
30001960:	e59d3004 	ldr	r3, [sp, #4]
30001964:	ea000002 	b	30001974 <BootScreen+0x1a0>
30001968:	e2866001 	add	r6, r6, #1	; 0x1
3000196c:	e1560000 	cmp	r6, r0
30001970:	aaffffa6 	bge	30001810 <BootScreen+0x3c>
30001974:	e3a04000 	mov	r4, #0	; 0x0
30001978:	e1540003 	cmp	r4, r3
3000197c:	aafffff9 	bge	30001968 <BootScreen+0x194>
30001980:	e3a0071f 	mov	r0, #8126464	; 0x7c0000
30001984:	e2800b3f 	add	r0, r0, #64512	; 0xfc00
30001988:	eb00043c 	bl	30002a80 <Convert32BppTo16Bpp>
3000198c:	e59d3004 	ldr	r3, [sp, #4]
30001990:	e2844001 	add	r4, r4, #1	; 0x1
30001994:	e1540003 	cmp	r4, r3
30001998:	e0c500b2 	strh	r0, [r5], #2
3000199c:	bafffff7 	blt	30001980 <BootScreen+0x1ac>
300019a0:	e59d0008 	ldr	r0, [sp, #8]
300019a4:	eaffffef 	b	30001968 <BootScreen+0x194>
300019a8:	e59d0008 	ldr	r0, [sp, #8]
300019ac:	e1520000 	cmp	r2, r0
300019b0:	e1a06002 	mov	r6, r2
300019b4:	e59d100c 	ldr	r1, [sp, #12]
300019b8:	aaffff94 	bge	30001810 <BootScreen+0x3c>
300019bc:	e59d3004 	ldr	r3, [sp, #4]
300019c0:	e3a04000 	mov	r4, #0	; 0x0
300019c4:	e1540003 	cmp	r4, r3
300019c8:	aa000007 	bge	300019ec <BootScreen+0x218>
300019cc:	e3a0271f 	mov	r2, #8126464	; 0x7c0000
300019d0:	e2822b3f 	add	r2, r2, #64512	; 0xfc00
300019d4:	e4812004 	str	r2, [r1], #4
300019d8:	e59d3004 	ldr	r3, [sp, #4]
300019dc:	e2844001 	add	r4, r4, #1	; 0x1
300019e0:	e1540003 	cmp	r4, r3
300019e4:	bafffffa 	blt	300019d4 <BootScreen+0x200>
300019e8:	e59d0008 	ldr	r0, [sp, #8]
300019ec:	e2866001 	add	r6, r6, #1	; 0x1
300019f0:	e1560000 	cmp	r6, r0
300019f4:	bafffff1 	blt	300019c0 <BootScreen+0x1ec>
300019f8:	eaffff84 	b	30001810 <BootScreen+0x3c>
300019fc:	30004d78 	andcc	r4, r0, r8, ror sp
30001a00:	30004db0 	strcch	r4, [r0], -r0
30001a04:	30004dc4 	andcc	r4, r0, r4, asr #27
30001a08:	30004dd4 	ldrccd	r4, [r0], -r4
30001a0c:	30004df0 	strccd	r4, [r0], -r0
30001a10:	30004e1c 	andcc	r4, r0, ip, lsl lr
30001a14:	30004e48 	andcc	r4, r0, r8, asr #28

30001a18 <MainPage>:
30001a18:	e92d4070 	stmdb	sp!, {r4, r5, r6, lr}
30001a1c:	e24dd010 	sub	sp, sp, #16	; 0x10
30001a20:	e1a0300d 	mov	r3, sp
30001a24:	e28d000c 	add	r0, sp, #12	; 0xc
30001a28:	e28d1008 	add	r1, sp, #8	; 0x8
30001a2c:	e28d2004 	add	r2, sp, #4	; 0x4
30001a30:	eb00028d 	bl	3000246c <GetLcdParams>
30001a34:	e59d3000 	ldr	r3, [sp]
30001a38:	e3530008 	cmp	r3, #8	; 0x8
30001a3c:	0a000008 	beq	30001a64 <MainPage+0x4c>
30001a40:	e3530010 	cmp	r3, #16	; 0x10
30001a44:	0a00001a 	beq	30001ab4 <MainPage+0x9c>
30001a48:	e3530020 	cmp	r3, #32	; 0x20
30001a4c:	0a000030 	beq	30001b14 <MainPage+0xfc>
30001a50:	e3a00a7a 	mov	r0, #499712	; 0x7a000
30001a54:	e2800e12 	add	r0, r0, #288	; 0x120
30001a58:	ebffff52 	bl	300017a8 <Delay>
30001a5c:	e28dd010 	add	sp, sp, #16	; 0x10
30001a60:	e8bd8070 	ldmia	sp!, {r4, r5, r6, pc}
30001a64:	e59d1008 	ldr	r1, [sp, #8]
30001a68:	e3a06000 	mov	r6, #0	; 0x0
30001a6c:	e1560001 	cmp	r6, r1
30001a70:	e59d200c 	ldr	r2, [sp, #12]
30001a74:	aafffff5 	bge	30001a50 <MainPage+0x38>
30001a78:	e59d3004 	ldr	r3, [sp, #4]
30001a7c:	e3a04000 	mov	r4, #0	; 0x0
30001a80:	e1540003 	cmp	r4, r3
30001a84:	aa000006 	bge	30001aa4 <MainPage+0x8c>
30001a88:	e1a01004 	mov	r1, r4
30001a8c:	e4c21001 	strb	r1, [r2], #1
30001a90:	e59d3004 	ldr	r3, [sp, #4]
30001a94:	e2844001 	add	r4, r4, #1	; 0x1
30001a98:	e1540003 	cmp	r4, r3
30001a9c:	bafffffa 	blt	30001a8c <MainPage+0x74>
30001aa0:	e59d1008 	ldr	r1, [sp, #8]
30001aa4:	e2866001 	add	r6, r6, #1	; 0x1
30001aa8:	e1560001 	cmp	r6, r1
30001aac:	bafffff2 	blt	30001a7c <MainPage+0x64>
30001ab0:	eaffffe6 	b	30001a50 <MainPage+0x38>
30001ab4:	e59d1008 	ldr	r1, [sp, #8]
30001ab8:	e3a06000 	mov	r6, #0	; 0x0
30001abc:	e1560001 	cmp	r6, r1
30001ac0:	e59d500c 	ldr	r5, [sp, #12]
30001ac4:	aaffffe1 	bge	30001a50 <MainPage+0x38>
30001ac8:	e59d3004 	ldr	r3, [sp, #4]
30001acc:	ea000002 	b	30001adc <MainPage+0xc4>
30001ad0:	e2866001 	add	r6, r6, #1	; 0x1
30001ad4:	e1560001 	cmp	r6, r1
30001ad8:	aaffffdc 	bge	30001a50 <MainPage+0x38>
30001adc:	e3a04000 	mov	r4, #0	; 0x0
30001ae0:	e1540003 	cmp	r4, r3
30001ae4:	aafffff9 	bge	30001ad0 <MainPage+0xb8>
30001ae8:	e3a0073d 	mov	r0, #15990784	; 0xf40000
30001aec:	e2800b29 	add	r0, r0, #41984	; 0xa400
30001af0:	e2800060 	add	r0, r0, #96	; 0x60
30001af4:	eb0003e1 	bl	30002a80 <Convert32BppTo16Bpp>
30001af8:	e59d3004 	ldr	r3, [sp, #4]
30001afc:	e2844001 	add	r4, r4, #1	; 0x1
30001b00:	e1540003 	cmp	r4, r3
30001b04:	e0c500b2 	strh	r0, [r5], #2
30001b08:	bafffff6 	blt	30001ae8 <MainPage+0xd0>
30001b0c:	e59d1008 	ldr	r1, [sp, #8]
30001b10:	eaffffee 	b	30001ad0 <MainPage+0xb8>
30001b14:	e59d1008 	ldr	r1, [sp, #8]
30001b18:	e3a06000 	mov	r6, #0	; 0x0
30001b1c:	e1560001 	cmp	r6, r1
30001b20:	e59d000c 	ldr	r0, [sp, #12]
30001b24:	aaffffc9 	bge	30001a50 <MainPage+0x38>
30001b28:	e59d3004 	ldr	r3, [sp, #4]
30001b2c:	e3a04000 	mov	r4, #0	; 0x0
30001b30:	e1540003 	cmp	r4, r3
30001b34:	aa000008 	bge	30001b5c <MainPage+0x144>
30001b38:	e3a0273d 	mov	r2, #15990784	; 0xf40000
30001b3c:	e2822b29 	add	r2, r2, #41984	; 0xa400
30001b40:	e2822060 	add	r2, r2, #96	; 0x60
30001b44:	e4802004 	str	r2, [r0], #4
30001b48:	e59d3004 	ldr	r3, [sp, #4]
30001b4c:	e2844001 	add	r4, r4, #1	; 0x1
30001b50:	e1540003 	cmp	r4, r3
30001b54:	bafffffa 	blt	30001b44 <MainPage+0x12c>
30001b58:	e59d1008 	ldr	r1, [sp, #8]
30001b5c:	e2866001 	add	r6, r6, #1	; 0x1
30001b60:	e1560001 	cmp	r6, r1
30001b64:	bafffff0 	blt	30001b2c <MainPage+0x114>
30001b68:	eaffffb8 	b	30001a50 <MainPage+0x38>

30001b6c <NorWriteWord>:
30001b6c:	e1a01081 	mov	r1, r1, lsl #1
30001b70:	e18120b0 	strh	r2, [r1, r0]
30001b74:	e1a0f00e 	mov	pc, lr

30001b78 <NorCmd>:
30001b78:	e1a02001 	mov	r2, r1
30001b7c:	e1a01000 	mov	r1, r0
30001b80:	e3a00000 	mov	r0, #0	; 0x0
30001b84:	eafffff8 	b	30001b6c <NorWriteWord>

30001b88 <NorReadWord>:
30001b88:	e1a01081 	mov	r1, r1, lsl #1
30001b8c:	e19100b0 	ldrh	r0, [r1, r0]
30001b90:	e1a0f00e 	mov	pc, lr

30001b94 <NorDat>:
30001b94:	e1a01000 	mov	r1, r0
30001b98:	e3a00000 	mov	r0, #0	; 0x0
30001b9c:	eafffff9 	b	30001b88 <NorReadWord>

30001ba0 <NorWaitReady>:
30001ba0:	e92d4030 	stmdb	sp!, {r4, r5, lr}
30001ba4:	e1a050a0 	mov	r5, r0, lsr #1
30001ba8:	e1a00005 	mov	r0, r5
30001bac:	ebfffff8 	bl	30001b94 <NorDat>
30001bb0:	e1a04000 	mov	r4, r0
30001bb4:	e1a00005 	mov	r0, r5
30001bb8:	ebfffff5 	bl	30001b94 <NorDat>
30001bbc:	e2042040 	and	r2, r4, #64	; 0x40
30001bc0:	e2003040 	and	r3, r0, #64	; 0x40
30001bc4:	e1530002 	cmp	r3, r2
30001bc8:	e1a01000 	mov	r1, r0
30001bcc:	08bd8030 	ldmeqia	sp!, {r4, r5, pc}
30001bd0:	e1a00005 	mov	r0, r5
30001bd4:	e1a04001 	mov	r4, r1
30001bd8:	ebffffed 	bl	30001b94 <NorDat>
30001bdc:	e2042040 	and	r2, r4, #64	; 0x40
30001be0:	e2003040 	and	r3, r0, #64	; 0x40
30001be4:	e1530002 	cmp	r3, r2
30001be8:	e1a01000 	mov	r1, r0
30001bec:	1afffff7 	bne	30001bd0 <NorWaitReady+0x30>
30001bf0:	e8bd8030 	ldmia	sp!, {r4, r5, pc}

30001bf4 <DoScanNorFlash>:
30001bf4:	e92d4ff0 	stmdb	sp!, {r4, r5, r6, r7, r8, r9, sl, fp, lr}
30001bf8:	e3a00e55 	mov	r0, #1360	; 0x550
30001bfc:	e24dd008 	sub	sp, sp, #8	; 0x8
30001c00:	e2800005 	add	r0, r0, #5	; 0x5
30001c04:	e3a010aa 	mov	r1, #170	; 0xaa
30001c08:	ebffffda 	bl	30001b78 <NorCmd>
30001c0c:	e3a00faa 	mov	r0, #680	; 0x2a8
30001c10:	e2800002 	add	r0, r0, #2	; 0x2
30001c14:	e3a01055 	mov	r1, #85	; 0x55
30001c18:	ebffffd6 	bl	30001b78 <NorCmd>
30001c1c:	e3a00e55 	mov	r0, #1360	; 0x550
30001c20:	e3a01090 	mov	r1, #144	; 0x90
30001c24:	e2800005 	add	r0, r0, #5	; 0x5
30001c28:	ebffffd2 	bl	30001b78 <NorCmd>
30001c2c:	e3a00000 	mov	r0, #0	; 0x0
30001c30:	ebffffd7 	bl	30001b94 <NorDat>
30001c34:	e1a06000 	mov	r6, r0
30001c38:	e3a00001 	mov	r0, #1	; 0x1
30001c3c:	ebffffd4 	bl	30001b94 <NorDat>
30001c40:	e3a010f0 	mov	r1, #240	; 0xf0
30001c44:	e1a05000 	mov	r5, r0
30001c48:	e3a00000 	mov	r0, #0	; 0x0
30001c4c:	ebffffc9 	bl	30001b78 <NorCmd>
30001c50:	e3a01098 	mov	r1, #152	; 0x98
30001c54:	e3a00055 	mov	r0, #85	; 0x55
30001c58:	ebffffc6 	bl	30001b78 <NorCmd>
30001c5c:	e3a00010 	mov	r0, #16	; 0x10
30001c60:	ebffffcb 	bl	30001b94 <NorDat>
30001c64:	e5cd0004 	strb	r0, [sp, #4]
30001c68:	e3a00011 	mov	r0, #17	; 0x11
30001c6c:	ebffffc8 	bl	30001b94 <NorDat>
30001c70:	e5cd0005 	strb	r0, [sp, #5]
30001c74:	e3a00012 	mov	r0, #18	; 0x12
30001c78:	ebffffc5 	bl	30001b94 <NorDat>
30001c7c:	e3a04000 	mov	r4, #0	; 0x0
30001c80:	e28d1004 	add	r1, sp, #4	; 0x4
30001c84:	e5cd0006 	strb	r0, [sp, #6]
30001c88:	e59f011c 	ldr	r0, [pc, #284]	; 30001dac <.text+0x1dac>
30001c8c:	e5cd4007 	strb	r4, [sp, #7]
30001c90:	ebfffd01 	bl	3000109c <printf>
30001c94:	e3a00027 	mov	r0, #39	; 0x27
30001c98:	ebffffbd 	bl	30001b94 <NorDat>
30001c9c:	e3a0c001 	mov	ip, #1	; 0x1
30001ca0:	e1a0c01c 	mov	ip, ip, lsl r0
30001ca4:	e1a01006 	mov	r1, r6
30001ca8:	e1a0300c 	mov	r3, ip
30001cac:	e1a02005 	mov	r2, r5
30001cb0:	e1a0ca2c 	mov	ip, ip, lsr #20
30001cb4:	e59f00f4 	ldr	r0, [pc, #244]	; 30001db0 <.text+0x1db0>
30001cb8:	e58dc000 	str	ip, [sp]
30001cbc:	ebfffcf6 	bl	3000109c <printf>
30001cc0:	e3a0002c 	mov	r0, #44	; 0x2c
30001cc4:	ebffffb2 	bl	30001b94 <NorDat>
30001cc8:	e1a0b000 	mov	fp, r0
30001ccc:	e59f00e0 	ldr	r0, [pc, #224]	; 30001db4 <.text+0x1db4>
30001cd0:	ebfffcf1 	bl	3000109c <printf>
30001cd4:	e154000b 	cmp	r4, fp
30001cd8:	e1a07004 	mov	r7, r4
30001cdc:	e1a09004 	mov	r9, r4
30001ce0:	e3a0a02d 	mov	sl, #45	; 0x2d
30001ce4:	e1a06004 	mov	r6, r4
30001ce8:	aa000025 	bge	30001d84 <DoScanNorFlash+0x190>
30001cec:	e1a0000a 	mov	r0, sl
30001cf0:	ebffffa7 	bl	30001b94 <NorDat>
30001cf4:	e1a04000 	mov	r4, r0
30001cf8:	e28a0001 	add	r0, sl, #1	; 0x1
30001cfc:	ebffffa4 	bl	30001b94 <NorDat>
30001d00:	e0844400 	add	r4, r4, r0, lsl #8
30001d04:	e28a0002 	add	r0, sl, #2	; 0x2
30001d08:	ebffffa1 	bl	30001b94 <NorDat>
30001d0c:	e2848001 	add	r8, r4, #1	; 0x1
30001d10:	e1a04000 	mov	r4, r0
30001d14:	e28a0003 	add	r0, sl, #3	; 0x3
30001d18:	ebffff9d 	bl	30001b94 <NorDat>
30001d1c:	e3a05000 	mov	r5, #0	; 0x0
30001d20:	e0844400 	add	r4, r4, r0, lsl #8
30001d24:	e1550008 	cmp	r5, r8
30001d28:	e1a04404 	mov	r4, r4, lsl #8
30001d2c:	e28aa004 	add	sl, sl, #4	; 0x4
30001d30:	aa000010 	bge	30001d78 <DoScanNorFlash+0x184>
30001d34:	e1a00007 	mov	r0, r7
30001d38:	ebfffd23 	bl	300011cc <printHex>
30001d3c:	e3a00020 	mov	r0, #32	; 0x20
30001d40:	ebfffc53 	bl	30000e94 <PutChar>
30001d44:	e59f306c 	ldr	r3, [pc, #108]	; 30001db8 <.text+0x1db8>
30001d48:	e2866001 	add	r6, r6, #1	; 0x1
30001d4c:	e0c12693 	smull	r2, r1, r3, r6
30001d50:	e1a02fc6 	mov	r2, r6, asr #31
30001d54:	e06220c1 	rsb	r2, r2, r1, asr #1
30001d58:	e0822102 	add	r2, r2, r2, lsl #2
30001d5c:	e1560002 	cmp	r6, r2
30001d60:	e2855001 	add	r5, r5, #1	; 0x1
30001d64:	e59f0050 	ldr	r0, [pc, #80]	; 30001dbc <.text+0x1dbc>
30001d68:	e0877004 	add	r7, r7, r4
30001d6c:	0a00000b 	beq	30001da0 <DoScanNorFlash+0x1ac>
30001d70:	e1550008 	cmp	r5, r8
30001d74:	baffffee 	blt	30001d34 <DoScanNorFlash+0x140>
30001d78:	e2899001 	add	r9, r9, #1	; 0x1
30001d7c:	e159000b 	cmp	r9, fp
30001d80:	baffffd9 	blt	30001cec <DoScanNorFlash+0xf8>
30001d84:	e59f0030 	ldr	r0, [pc, #48]	; 30001dbc <.text+0x1dbc>
30001d88:	ebfffcc3 	bl	3000109c <printf>
30001d8c:	e3a00000 	mov	r0, #0	; 0x0
30001d90:	e3a010f0 	mov	r1, #240	; 0xf0
30001d94:	ebffff77 	bl	30001b78 <NorCmd>
30001d98:	e28dd008 	add	sp, sp, #8	; 0x8
30001d9c:	e8bd8ff0 	ldmia	sp!, {r4, r5, r6, r7, r8, r9, sl, fp, pc}
30001da0:	ebfffcbd 	bl	3000109c <printf>
30001da4:	e1550008 	cmp	r5, r8
30001da8:	eafffff1 	b	30001d74 <DoScanNorFlash+0x180>
30001dac:	30004e74 	andcc	r4, r0, r4, ror lr
30001db0:	30004e80 	andcc	r4, r0, r0, lsl #29
30001db4:	30004ebc 	strcch	r4, [r0], -ip
30001db8:	66666667 	strvsbt	r6, [r6], -r7, ror #12
30001dbc:	30004eb8 	strcch	r4, [r0], -r8

30001dc0 <DoEraseNorFlash>:
30001dc0:	e92d4070 	stmdb	sp!, {r4, r5, r6, lr}
30001dc4:	e59f0074 	ldr	r0, [pc, #116]	; 30001e40 <.text+0x1e40>
30001dc8:	ebfffcb3 	bl	3000109c <printf>
30001dcc:	ebfffd82 	bl	300013dc <get_uint>
30001dd0:	e3a05e55 	mov	r5, #1360	; 0x550
30001dd4:	e1a04000 	mov	r4, r0
30001dd8:	e2855005 	add	r5, r5, #5	; 0x5
30001ddc:	e59f0060 	ldr	r0, [pc, #96]	; 30001e44 <.text+0x1e44>
30001de0:	e3a06faa 	mov	r6, #680	; 0x2a8
30001de4:	ebfffcac 	bl	3000109c <printf>
30001de8:	e2866002 	add	r6, r6, #2	; 0x2
30001dec:	e1a00005 	mov	r0, r5
30001df0:	e3a010aa 	mov	r1, #170	; 0xaa
30001df4:	ebffff5f 	bl	30001b78 <NorCmd>
30001df8:	e1a00006 	mov	r0, r6
30001dfc:	e3a01055 	mov	r1, #85	; 0x55
30001e00:	ebffff5c 	bl	30001b78 <NorCmd>
30001e04:	e1a00005 	mov	r0, r5
30001e08:	e3a01080 	mov	r1, #128	; 0x80
30001e0c:	ebffff59 	bl	30001b78 <NorCmd>
30001e10:	e1a00005 	mov	r0, r5
30001e14:	e3a010aa 	mov	r1, #170	; 0xaa
30001e18:	ebffff56 	bl	30001b78 <NorCmd>
30001e1c:	e1a00006 	mov	r0, r6
30001e20:	e3a01055 	mov	r1, #85	; 0x55
30001e24:	ebffff53 	bl	30001b78 <NorCmd>
30001e28:	e1a000a4 	mov	r0, r4, lsr #1
30001e2c:	e3a01030 	mov	r1, #48	; 0x30
30001e30:	ebffff50 	bl	30001b78 <NorCmd>
30001e34:	e1a00004 	mov	r0, r4
30001e38:	e8bd4070 	ldmia	sp!, {r4, r5, r6, lr}
30001e3c:	eaffff57 	b	30001ba0 <NorWaitReady>
30001e40:	30004cb0 	strcch	r4, [r0], -r0
30001e44:	30004cd8 	ldrccd	r4, [r0], -r8

30001e48 <DoWriteNorFlash>:
30001e48:	e92d40f0 	stmdb	sp!, {r4, r5, r6, r7, lr}
30001e4c:	e59f0120 	ldr	r0, [pc, #288]	; 30001f74 <.text+0x1f74>
30001e50:	e24dd064 	sub	sp, sp, #100	; 0x64
30001e54:	ebfffc90 	bl	3000109c <printf>
30001e58:	ebfffd5f 	bl	300013dc <get_uint>
30001e5c:	e1a05000 	mov	r5, r0
30001e60:	e59f0110 	ldr	r0, [pc, #272]	; 30001f78 <.text+0x1f78>
30001e64:	ebfffc8c 	bl	3000109c <printf>
30001e68:	e1a0000d 	mov	r0, sp
30001e6c:	ebfffd34 	bl	30001344 <gets>
30001e70:	e59f0104 	ldr	r0, [pc, #260]	; 30001f7c <.text+0x1f7c>
30001e74:	ebfffc88 	bl	3000109c <printf>
30001e78:	e5dd3000 	ldrb	r3, [sp]
30001e7c:	e3530000 	cmp	r3, #0	; 0x0
30001e80:	0a000026 	beq	30001f20 <DoWriteNorFlash+0xd8>
30001e84:	e5dd3001 	ldrb	r3, [sp, #1]
30001e88:	e3530000 	cmp	r3, #0	; 0x0
30001e8c:	0a000023 	beq	30001f20 <DoWriteNorFlash+0xd8>
30001e90:	e28d6065 	add	r6, sp, #101	; 0x65
30001e94:	e28d2064 	add	r2, sp, #100	; 0x64
30001e98:	e1a01006 	mov	r1, r6
30001e9c:	e28d7064 	add	r7, sp, #100	; 0x64
30001ea0:	e5513064 	ldrb	r3, [r1, #-100]
30001ea4:	e5522064 	ldrb	r2, [r2, #-100]
30001ea8:	e3a00e55 	mov	r0, #1360	; 0x550
30001eac:	e2800005 	add	r0, r0, #5	; 0x5
30001eb0:	e3a010aa 	mov	r1, #170	; 0xaa
30001eb4:	e0824403 	add	r4, r2, r3, lsl #8
30001eb8:	ebffff2e 	bl	30001b78 <NorCmd>
30001ebc:	e3a00faa 	mov	r0, #680	; 0x2a8
30001ec0:	e2800002 	add	r0, r0, #2	; 0x2
30001ec4:	e3a01055 	mov	r1, #85	; 0x55
30001ec8:	ebffff2a 	bl	30001b78 <NorCmd>
30001ecc:	e3a00e55 	mov	r0, #1360	; 0x550
30001ed0:	e2800005 	add	r0, r0, #5	; 0x5
30001ed4:	e3a010a0 	mov	r1, #160	; 0xa0
30001ed8:	ebffff26 	bl	30001b78 <NorCmd>
30001edc:	e1a01004 	mov	r1, r4
30001ee0:	e1a000a5 	mov	r0, r5, lsr #1
30001ee4:	ebffff23 	bl	30001b78 <NorCmd>
30001ee8:	e2877002 	add	r7, r7, #2	; 0x2
30001eec:	e1a00005 	mov	r0, r5
30001ef0:	ebffff2a 	bl	30001ba0 <NorWaitReady>
30001ef4:	e5573064 	ldrb	r3, [r7, #-100]
30001ef8:	e2866002 	add	r6, r6, #2	; 0x2
30001efc:	e3530000 	cmp	r3, #0	; 0x0
30001f00:	e1a02007 	mov	r2, r7
30001f04:	e1a01006 	mov	r1, r6
30001f08:	e2855002 	add	r5, r5, #2	; 0x2
30001f0c:	0a000004 	beq	30001f24 <DoWriteNorFlash+0xdc>
30001f10:	e5563064 	ldrb	r3, [r6, #-100]
30001f14:	e3530000 	cmp	r3, #0	; 0x0
30001f18:	1affffe0 	bne	30001ea0 <DoWriteNorFlash+0x58>
30001f1c:	ea000000 	b	30001f24 <DoWriteNorFlash+0xdc>
30001f20:	e28d2064 	add	r2, sp, #100	; 0x64
30001f24:	e3a00e55 	mov	r0, #1360	; 0x550
30001f28:	e2800005 	add	r0, r0, #5	; 0x5
30001f2c:	e3a010aa 	mov	r1, #170	; 0xaa
30001f30:	e5524064 	ldrb	r4, [r2, #-100]
30001f34:	ebffff0f 	bl	30001b78 <NorCmd>
30001f38:	e3a00faa 	mov	r0, #680	; 0x2a8
30001f3c:	e2800002 	add	r0, r0, #2	; 0x2
30001f40:	e3a01055 	mov	r1, #85	; 0x55
30001f44:	ebffff0b 	bl	30001b78 <NorCmd>
30001f48:	e3a00e55 	mov	r0, #1360	; 0x550
30001f4c:	e2800005 	add	r0, r0, #5	; 0x5
30001f50:	e3a010a0 	mov	r1, #160	; 0xa0
30001f54:	ebffff07 	bl	30001b78 <NorCmd>
30001f58:	e1a000a5 	mov	r0, r5, lsr #1
30001f5c:	e1a01004 	mov	r1, r4
30001f60:	ebffff04 	bl	30001b78 <NorCmd>
30001f64:	e1a00005 	mov	r0, r5
30001f68:	ebffff0c 	bl	30001ba0 <NorWaitReady>
30001f6c:	e28dd064 	add	sp, sp, #100	; 0x64
30001f70:	e8bd80f0 	ldmia	sp!, {r4, r5, r6, r7, pc}
30001f74:	30004ce8 	andcc	r4, r0, r8, ror #25
30001f78:	30004d10 	andcc	r4, r0, r0, lsl sp
30001f7c:	30004d2c 	andcc	r4, r0, ip, lsr #26

30001f80 <DoReadNorFlash>:
30001f80:	e92d40f0 	stmdb	sp!, {r4, r5, r6, r7, lr}
30001f84:	e59f008c 	ldr	r0, [pc, #140]	; 30002018 <.text+0x2018>
30001f88:	e24dd010 	sub	sp, sp, #16	; 0x10
30001f8c:	ebfffc42 	bl	3000109c <printf>
30001f90:	ebfffd11 	bl	300013dc <get_uint>
30001f94:	e1a06000 	mov	r6, r0
30001f98:	e59f007c 	ldr	r0, [pc, #124]	; 3000201c <.text+0x201c>
30001f9c:	ebfffc3e 	bl	3000109c <printf>
30001fa0:	e3a07000 	mov	r7, #0	; 0x0
30001fa4:	e1a0500d 	mov	r5, sp
30001fa8:	e3a0400f 	mov	r4, #15	; 0xf
30001fac:	e4d63001 	ldrb	r3, [r6], #1
30001fb0:	e20330ff 	and	r3, r3, #255	; 0xff
30001fb4:	e1a01003 	mov	r1, r3
30001fb8:	e59f0060 	ldr	r0, [pc, #96]	; 30002020 <.text+0x2020>
30001fbc:	e4c53001 	strb	r3, [r5], #1
30001fc0:	ebfffc35 	bl	3000109c <printf>
30001fc4:	e2544001 	subs	r4, r4, #1	; 0x1
30001fc8:	5afffff7 	bpl	30001fac <DoReadNorFlash+0x2c>
30001fcc:	e59f0050 	ldr	r0, [pc, #80]	; 30002024 <.text+0x2024>
30001fd0:	ebfffc31 	bl	3000109c <printf>
30001fd4:	e1a0500d 	mov	r5, sp
30001fd8:	e3a0400f 	mov	r4, #15	; 0xf
30001fdc:	e4d52001 	ldrb	r2, [r5], #1
30001fe0:	e2423020 	sub	r3, r2, #32	; 0x20
30001fe4:	e353005e 	cmp	r3, #94	; 0x5e
30001fe8:	e3a0002e 	mov	r0, #46	; 0x2e
30001fec:	91a00002 	movls	r0, r2
30001ff0:	ebfffba7 	bl	30000e94 <PutChar>
30001ff4:	e2544001 	subs	r4, r4, #1	; 0x1
30001ff8:	5afffff7 	bpl	30001fdc <DoReadNorFlash+0x5c>
30001ffc:	e2877001 	add	r7, r7, #1	; 0x1
30002000:	e59f0020 	ldr	r0, [pc, #32]	; 30002028 <.text+0x2028>
30002004:	ebfffc24 	bl	3000109c <printf>
30002008:	e3570003 	cmp	r7, #3	; 0x3
3000200c:	daffffe4 	ble	30001fa4 <DoReadNorFlash+0x24>
30002010:	e28dd010 	add	sp, sp, #16	; 0x10
30002014:	e8bd80f0 	ldmia	sp!, {r4, r5, r6, r7, pc}
30002018:	30004c78 	andcc	r4, r0, r8, ror ip
3000201c:	30004c94 	mulcc	r0, r4, ip
30002020:	30004ca0 	andcc	r4, r0, r0, lsr #25
30002024:	30004ca8 	andcc	r4, r0, r8, lsr #25
30002028:	30004eb8 	strcch	r4, [r0], -r8

3000202c <RegisterLcdController>:
3000202c:	e59f1030 	ldr	r1, [pc, #48]	; 30002064 <.text+0x2064>
30002030:	e1a0c000 	mov	ip, r0
30002034:	e3a02000 	mov	r2, #0	; 0x0
30002038:	e7913102 	ldr	r3, [r1, r2, lsl #2]
3000203c:	e3530000 	cmp	r3, #0	; 0x0
30002040:	0a000004 	beq	30002058 <RegisterLcdController+0x2c>
30002044:	e2822001 	add	r2, r2, #1	; 0x1
30002048:	e3520009 	cmp	r2, #9	; 0x9
3000204c:	dafffff9 	ble	30002038 <RegisterLcdController+0xc>
30002050:	e3e00000 	mvn	r0, #0	; 0x0
30002054:	e1a0f00e 	mov	pc, lr
30002058:	e1a00002 	mov	r0, r2
3000205c:	e781c102 	str	ip, [r1, r2, lsl #2]
30002060:	e1a0f00e 	mov	pc, lr
30002064:	30005078 	andcc	r5, r0, r8, ror r0

30002068 <SelectLcdController>:
30002068:	e92d40f0 	stmdb	sp!, {r4, r5, r6, r7, lr}
3000206c:	e59f7048 	ldr	r7, [pc, #72]	; 300020bc <.text+0x20bc>
30002070:	e1a06000 	mov	r6, r0
30002074:	e3a05000 	mov	r5, #0	; 0x0
30002078:	e7974105 	ldr	r4, [r7, r5, lsl #2]
3000207c:	e3540000 	cmp	r4, #0	; 0x0
30002080:	e1a01006 	mov	r1, r6
30002084:	0a000003 	beq	30002098 <SelectLcdController+0x30>
30002088:	e5940000 	ldr	r0, [r4]
3000208c:	ebfffce6 	bl	3000142c <strcmp>
30002090:	e3500000 	cmp	r0, #0	; 0x0
30002094:	0a000004 	beq	300020ac <SelectLcdController+0x44>
30002098:	e2855001 	add	r5, r5, #1	; 0x1
3000209c:	e3550009 	cmp	r5, #9	; 0x9
300020a0:	dafffff4 	ble	30002078 <SelectLcdController+0x10>
300020a4:	e3e00000 	mvn	r0, #0	; 0x0
300020a8:	e8bd80f0 	ldmia	sp!, {r4, r5, r6, r7, pc}
300020ac:	e59f300c 	ldr	r3, [pc, #12]	; 300020c0 <.text+0x20c0>
300020b0:	e1a00005 	mov	r0, r5
300020b4:	e5834000 	str	r4, [r3]
300020b8:	e8bd80f0 	ldmia	sp!, {r4, r5, r6, r7, pc}
300020bc:	30005078 	andcc	r5, r0, r8, ror r0
300020c0:	300050a0 	andcc	r5, r0, r0, lsr #1

300020c4 <InitLcdController>:
300020c4:	e52de004 	str	lr, [sp, #-4]!
300020c8:	e59f301c 	ldr	r3, [pc, #28]	; 300020ec <.text+0x20ec>
300020cc:	e5933000 	ldr	r3, [r3]
300020d0:	e3530000 	cmp	r3, #0	; 0x0
300020d4:	03e00000 	mvneq	r0, #0	; 0x0
300020d8:	049df004 	ldreq	pc, [sp], #4
300020dc:	e1a0e00f 	mov	lr, pc
300020e0:	e593f004 	ldr	pc, [r3, #4]
300020e4:	e3a00000 	mov	r0, #0	; 0x0
300020e8:	e49df004 	ldr	pc, [sp], #4
300020ec:	300050a0 	andcc	r5, r0, r0, lsr #1

300020f0 <EnableLcdController>:
300020f0:	e52de004 	str	lr, [sp, #-4]!
300020f4:	e59f3014 	ldr	r3, [pc, #20]	; 30002110 <.text+0x2110>
300020f8:	e5933000 	ldr	r3, [r3]
300020fc:	e3530000 	cmp	r3, #0	; 0x0
30002100:	049df004 	ldreq	pc, [sp], #4
30002104:	e1a0e00f 	mov	lr, pc
30002108:	e593f008 	ldr	pc, [r3, #8]
3000210c:	e49df004 	ldr	pc, [sp], #4
30002110:	300050a0 	andcc	r5, r0, r0, lsr #1

30002114 <DisableLcdController>:
30002114:	e52de004 	str	lr, [sp, #-4]!
30002118:	e59f3014 	ldr	r3, [pc, #20]	; 30002134 <.text+0x2134>
3000211c:	e5933000 	ldr	r3, [r3]
30002120:	e3530000 	cmp	r3, #0	; 0x0
30002124:	049df004 	ldreq	pc, [sp], #4
30002128:	e1a0e00f 	mov	lr, pc
3000212c:	e593f00c 	ldr	pc, [r3, #12]
30002130:	e49df004 	ldr	pc, [sp], #4
30002134:	300050a0 	andcc	r5, r0, r0, lsr #1

30002138 <AddLcdContollerS3c2440>:
30002138:	ea0000a2 	b	300023c8 <AddS3c2440LcdContoller>

3000213c <InitJz2440LcdPin_>:
3000213c:	e3a01456 	mov	r1, #1442840576	; 0x56000000
30002140:	e5913010 	ldr	r3, [r1, #16]
30002144:	e3c33003 	bic	r3, r3, #3	; 0x3
30002148:	e5813010 	str	r3, [r1, #16]
3000214c:	e3a02caa 	mov	r2, #43520	; 0xaa00
30002150:	e5913010 	ldr	r3, [r1, #16]
30002154:	e28220aa 	add	r2, r2, #170	; 0xaa
30002158:	e1822802 	orr	r2, r2, r2, lsl #16
3000215c:	e3833001 	orr	r3, r3, #1	; 0x1
30002160:	e5813010 	str	r3, [r1, #16]
30002164:	e5812020 	str	r2, [r1, #32]
30002168:	e5812030 	str	r2, [r1, #48]
3000216c:	e5913060 	ldr	r3, [r1, #96]
30002170:	e3833c03 	orr	r3, r3, #768	; 0x300
30002174:	e5813060 	str	r3, [r1, #96]
30002178:	e1a0f00e 	mov	pc, lr

3000217c <InitS3c2440LcdController_>:
3000217c:	e92d4010 	stmdb	sp!, {r4, lr}
30002180:	e1a04000 	mov	r4, r0
30002184:	ebffffec 	bl	3000213c <InitJz2440LcdPin_>
30002188:	e5940034 	ldr	r0, [r4, #52]
3000218c:	eb0004db 	bl	30003500 <__floatsidf>
30002190:	e1a03001 	mov	r3, r1
30002194:	e1a02000 	mov	r2, r0
30002198:	e28f0f5a 	add	r0, pc, #360	; 0x168
3000219c:	e8900003 	ldmia	r0, {r0, r1}
300021a0:	eb0005b9 	bl	3000388c <__divdf3>
300021a4:	e28f2f59 	add	r2, pc, #356	; 0x164
300021a8:	e892000c 	ldmia	r2, {r2, r3}
300021ac:	eb0004f1 	bl	30003578 <__muldf3>
300021b0:	e28f2e16 	add	r2, pc, #352	; 0x160
300021b4:	e892000c 	ldmia	r2, {r2, r3}
300021b8:	eb00040c 	bl	300031f0 <__subdf3>
300021bc:	e28f2f53 	add	r2, pc, #332	; 0x14c
300021c0:	e892000c 	ldmia	r2, {r2, r3}
300021c4:	eb00040a 	bl	300031f4 <__adddf3>
300021c8:	eb00064a 	bl	30003af8 <__fixdfsi>
300021cc:	e5942040 	ldr	r2, [r4, #64]
300021d0:	e3520008 	cmp	r2, #8	; 0x8
300021d4:	03a0200b 	moveq	r2, #11	; 0xb
300021d8:	0a000002 	beq	300021e8 <InitS3c2440LcdController_+0x6c>
300021dc:	e3520010 	cmp	r2, #16	; 0x10
300021e0:	13a0200d 	movne	r2, #13	; 0xd
300021e4:	03a0200c 	moveq	r2, #12	; 0xc
300021e8:	e1a02082 	mov	r2, r2, lsl #1
300021ec:	e1822400 	orr	r2, r2, r0, lsl #8
300021f0:	e3a0c44d 	mov	ip, #1291845632	; 0x4d000000
300021f4:	e3822060 	orr	r2, r2, #96	; 0x60
300021f8:	e58c2000 	str	r2, [ip]
300021fc:	e594303c 	ldr	r3, [r4, #60]
30002200:	e5941020 	ldr	r1, [r4, #32]
30002204:	e5940024 	ldr	r0, [r4, #36]
30002208:	e2433001 	sub	r3, r3, #1	; 0x1
3000220c:	e594201c 	ldr	r2, [r4, #28]
30002210:	e2411001 	sub	r1, r1, #1	; 0x1
30002214:	e1a03703 	mov	r3, r3, lsl #14
30002218:	e1833c01 	orr	r3, r3, r1, lsl #24
3000221c:	e2400001 	sub	r0, r0, #1	; 0x1
30002220:	e2422001 	sub	r2, r2, #1	; 0x1
30002224:	e1833300 	orr	r3, r3, r0, lsl #6
30002228:	e1833002 	orr	r3, r3, r2
3000222c:	e58c3004 	str	r3, [ip, #4]
30002230:	e5942038 	ldr	r2, [r4, #56]
30002234:	e594302c 	ldr	r3, [r4, #44]
30002238:	e5941030 	ldr	r1, [r4, #48]
3000223c:	e2422001 	sub	r2, r2, #1	; 0x1
30002240:	e2433001 	sub	r3, r3, #1	; 0x1
30002244:	e1a02402 	mov	r2, r2, lsl #8
30002248:	e1822983 	orr	r2, r2, r3, lsl #19
3000224c:	e2411001 	sub	r1, r1, #1	; 0x1
30002250:	e1822001 	orr	r2, r2, r1
30002254:	e58c2008 	str	r2, [ip, #8]
30002258:	e5943028 	ldr	r3, [r4, #40]
3000225c:	e2433001 	sub	r3, r3, #1	; 0x1
30002260:	e58c300c 	str	r3, [ip, #12]
30002264:	e5943040 	ldr	r3, [r4, #64]
30002268:	e3530020 	cmp	r3, #32	; 0x20
3000226c:	e3a0e000 	mov	lr, #0	; 0x0
30002270:	0a000002 	beq	30002280 <InitS3c2440LcdController_+0x104>
30002274:	e3530010 	cmp	r3, #16	; 0x10
30002278:	13a0e002 	movne	lr, #2	; 0x2
3000227c:	03a0e001 	moveq	lr, #1	; 0x1
30002280:	e284200c 	add	r2, r4, #12	; 0xc
30002284:	e892000c 	ldmia	r2, {r2, r3}
30002288:	e5941014 	ldr	r1, [r4, #20]
3000228c:	e1a03383 	mov	r3, r3, lsl #7
30002290:	e5940018 	ldr	r0, [r4, #24]
30002294:	e1833502 	orr	r3, r3, r2, lsl #10
30002298:	e594c004 	ldr	ip, [r4, #4]
3000229c:	e1833481 	orr	r3, r3, r1, lsl #9
300022a0:	e5942008 	ldr	r2, [r4, #8]
300022a4:	e1833400 	orr	r3, r3, r0, lsl #8
300022a8:	e183330c 	orr	r3, r3, ip, lsl #6
300022ac:	e1833282 	orr	r3, r3, r2, lsl #5
300022b0:	e183300e 	orr	r3, r3, lr
300022b4:	e3a0c44d 	mov	ip, #1291845632	; 0x4d000000
300022b8:	e3833b02 	orr	r3, r3, #2048	; 0x800
300022bc:	e58c3010 	str	r3, [ip, #16]
300022c0:	e5942044 	ldr	r2, [r4, #68]
300022c4:	e3c20102 	bic	r0, r2, #-2147483648	; 0x80000000
300022c8:	e1a030a0 	mov	r3, r0, lsr #1
300022cc:	e58c3014 	str	r3, [ip, #20]
300022d0:	e2841038 	add	r1, r4, #56	; 0x38
300022d4:	e891000a 	ldmia	r1, {r1, r3}
300022d8:	e0000193 	mul	r0, r3, r1
300022dc:	e5942040 	ldr	r2, [r4, #64]
300022e0:	e0030092 	mul	r3, r2, r0
300022e4:	e5941044 	ldr	r1, [r4, #68]
300022e8:	e1a02fc3 	mov	r2, r3, asr #31
300022ec:	e0833ea2 	add	r3, r3, r2, lsr #29
300022f0:	e08101c3 	add	r0, r1, r3, asr #3
300022f4:	e1a000a0 	mov	r0, r0, lsr #1
300022f8:	e3c004ff 	bic	r0, r0, #-16777216	; 0xff000000
300022fc:	e3c0060e 	bic	r0, r0, #14680064	; 0xe00000
30002300:	e58c0018 	str	r0, [ip, #24]
30002304:	e8bd8010 	ldmia	sp!, {r4, pc}
30002308:	40590000 	submis	r0, r9, r0
3000230c:	00000000 	andeq	r0, r0, r0
30002310:	3fe00000 	swicc	0x00e00000
30002314:	00000000 	andeq	r0, r0, r0
30002318:	3ff00000 	swicc	0x00f00000	; IMB
3000231c:	00000000 	andeq	r0, r0, r0

30002320 <EnableS3c2440LcdController_>:
30002320:	e3a02456 	mov	r2, #1442840576	; 0x56000000
30002324:	e5923014 	ldr	r3, [r2, #20]
30002328:	e3833001 	orr	r3, r3, #1	; 0x1
3000232c:	e5823014 	str	r3, [r2, #20]
30002330:	e3a0144d 	mov	r1, #1291845632	; 0x4d000000
30002334:	e5913010 	ldr	r3, [r1, #16]
30002338:	e3833008 	orr	r3, r3, #8	; 0x8
3000233c:	e5813010 	str	r3, [r1, #16]
30002340:	e5912000 	ldr	r2, [r1]
30002344:	e3822001 	orr	r2, r2, #1	; 0x1
30002348:	e5812000 	str	r2, [r1]
3000234c:	e1a0f00e 	mov	pc, lr

30002350 <DisableS3c2440LcdController_>:
30002350:	e3a02456 	mov	r2, #1442840576	; 0x56000000
30002354:	e5923014 	ldr	r3, [r2, #20]
30002358:	e3c33001 	bic	r3, r3, #1	; 0x1
3000235c:	e5823014 	str	r3, [r2, #20]
30002360:	e3a0144d 	mov	r1, #1291845632	; 0x4d000000
30002364:	e5913010 	ldr	r3, [r1, #16]
30002368:	e3c33008 	bic	r3, r3, #8	; 0x8
3000236c:	e5813010 	str	r3, [r1, #16]
30002370:	e5912000 	ldr	r2, [r1]
30002374:	e3c22001 	bic	r2, r2, #1	; 0x1
30002378:	e5812000 	str	r2, [r1]
3000237c:	e1a0f00e 	mov	pc, lr

30002380 <InitS3c2440LcdControllerPalette>:
30002380:	e3a0144d 	mov	r1, #1291845632	; 0x4d000000
30002384:	e5913000 	ldr	r3, [r1]
30002388:	e2130001 	ands	r0, r3, #1	; 0x1
3000238c:	15913000 	ldrne	r3, [r1]
30002390:	13c33001 	bicne	r3, r3, #1	; 0x1
30002394:	15813000 	strne	r3, [r1]
30002398:	e2812b01 	add	r2, r1, #1024	; 0x400
3000239c:	e3a03000 	mov	r3, #0	; 0x0
300023a0:	e4823004 	str	r3, [r2], #4
300023a4:	e2833001 	add	r3, r3, #1	; 0x1
300023a8:	e35300ff 	cmp	r3, #255	; 0xff
300023ac:	dafffffb 	ble	300023a0 <InitS3c2440LcdControllerPalette+0x20>
300023b0:	e3500000 	cmp	r0, #0	; 0x0
300023b4:	13a0244d 	movne	r2, #1291845632	; 0x4d000000
300023b8:	15923000 	ldrne	r3, [r2]
300023bc:	13833001 	orrne	r3, r3, #1	; 0x1
300023c0:	15823000 	strne	r3, [r2]
300023c4:	e1a0f00e 	mov	pc, lr

300023c8 <AddS3c2440LcdContoller>:
300023c8:	e59f0000 	ldr	r0, [pc, #0]	; 300023d0 <.text+0x23d0>
300023cc:	eaffff16 	b	3000202c <RegisterLcdController>
300023d0:	3000501c 	andcc	r5, r0, ip, lsl r0

300023d4 <RegisterLcd>:
300023d4:	e59f1030 	ldr	r1, [pc, #48]	; 3000240c <.text+0x240c>
300023d8:	e1a0c000 	mov	ip, r0
300023dc:	e3a02000 	mov	r2, #0	; 0x0
300023e0:	e7913102 	ldr	r3, [r1, r2, lsl #2]
300023e4:	e3530000 	cmp	r3, #0	; 0x0
300023e8:	0a000004 	beq	30002400 <RegisterLcd+0x2c>
300023ec:	e2822001 	add	r2, r2, #1	; 0x1
300023f0:	e3520009 	cmp	r2, #9	; 0x9
300023f4:	dafffff9 	ble	300023e0 <RegisterLcd+0xc>
300023f8:	e3e00000 	mvn	r0, #0	; 0x0
300023fc:	e1a0f00e 	mov	pc, lr
30002400:	e1a00002 	mov	r0, r2
30002404:	e781c102 	str	ip, [r1, r2, lsl #2]
30002408:	e1a0f00e 	mov	pc, lr
3000240c:	300050a4 	andcc	r5, r0, r4, lsr #1

30002410 <SelectLcd>:
30002410:	e92d40f0 	stmdb	sp!, {r4, r5, r6, r7, lr}
30002414:	e59f7048 	ldr	r7, [pc, #72]	; 30002464 <.text+0x2464>
30002418:	e1a06000 	mov	r6, r0
3000241c:	e3a05000 	mov	r5, #0	; 0x0
30002420:	e7974105 	ldr	r4, [r7, r5, lsl #2]
30002424:	e3540000 	cmp	r4, #0	; 0x0
30002428:	e1a01006 	mov	r1, r6
3000242c:	0a000003 	beq	30002440 <SelectLcd+0x30>
30002430:	e5940000 	ldr	r0, [r4]
30002434:	ebfffbfc 	bl	3000142c <strcmp>
30002438:	e3500000 	cmp	r0, #0	; 0x0
3000243c:	0a000004 	beq	30002454 <SelectLcd+0x44>
30002440:	e2855001 	add	r5, r5, #1	; 0x1
30002444:	e3550009 	cmp	r5, #9	; 0x9
30002448:	dafffff4 	ble	30002420 <SelectLcd+0x10>
3000244c:	e3e00000 	mvn	r0, #0	; 0x0
30002450:	e8bd80f0 	ldmia	sp!, {r4, r5, r6, r7, pc}
30002454:	e59f300c 	ldr	r3, [pc, #12]	; 30002468 <.text+0x2468>
30002458:	e1a00005 	mov	r0, r5
3000245c:	e5834000 	str	r4, [r3]
30002460:	e8bd80f0 	ldmia	sp!, {r4, r5, r6, r7, pc}
30002464:	300050a4 	andcc	r5, r0, r4, lsr #1
30002468:	300050cc 	andcc	r5, r0, ip, asr #1

3000246c <GetLcdParams>:
3000246c:	e92d4010 	stmdb	sp!, {r4, lr}
30002470:	e59fc024 	ldr	ip, [pc, #36]	; 3000249c <.text+0x249c>
30002474:	e59c4000 	ldr	r4, [ip]
30002478:	e594e044 	ldr	lr, [r4, #68]
3000247c:	e580e000 	str	lr, [r0]
30002480:	e5940038 	ldr	r0, [r4, #56]
30002484:	e5810000 	str	r0, [r1]
30002488:	e594103c 	ldr	r1, [r4, #60]
3000248c:	e5821000 	str	r1, [r2]
30002490:	e5942040 	ldr	r2, [r4, #64]
30002494:	e5832000 	str	r2, [r3]
30002498:	e8bd8010 	ldmia	sp!, {r4, pc}
3000249c:	300050cc 	andcc	r5, r0, ip, asr #1

300024a0 <EnableLcd>:
300024a0:	eaffff12 	b	300020f0 <EnableLcdController>

300024a4 <DisableLcd>:
300024a4:	eaffff1a 	b	30002114 <DisableLcdController>

300024a8 <InitLcd>:
300024a8:	e52de004 	str	lr, [sp, #-4]!
300024ac:	eb000167 	bl	30002a50 <Add4Point3Lcd>
300024b0:	ebffff20 	bl	30002138 <AddLcdContollerS3c2440>
300024b4:	e59f001c 	ldr	r0, [pc, #28]	; 300024d8 <.text+0x24d8>
300024b8:	ebffffd4 	bl	30002410 <SelectLcd>
300024bc:	e59f0018 	ldr	r0, [pc, #24]	; 300024dc <.text+0x24dc>
300024c0:	ebfffee8 	bl	30002068 <SelectLcdController>
300024c4:	e59f3014 	ldr	r3, [pc, #20]	; 300024e0 <.text+0x24e0>
300024c8:	e5930000 	ldr	r0, [r3]
300024cc:	ebfffefc 	bl	300020c4 <InitLcdController>
300024d0:	e3a00000 	mov	r0, #0	; 0x0
300024d4:	e49df004 	ldr	pc, [sp], #4
300024d8:	30004ee4 	andcc	r4, r0, r4, ror #29
300024dc:	30004edc 	ldrccd	r4, [r0], -ip
300024e0:	300050cc 	andcc	r5, r0, ip, asr #1

300024e4 <LCDTest>:
300024e4:	e52de004 	str	lr, [sp, #-4]!
300024e8:	e24dd014 	sub	sp, sp, #20	; 0x14
300024ec:	e28d3004 	add	r3, sp, #4	; 0x4
300024f0:	e28d0010 	add	r0, sp, #16	; 0x10
300024f4:	e28d100c 	add	r1, sp, #12	; 0xc
300024f8:	e28d2008 	add	r2, sp, #8	; 0x8
300024fc:	ebffffda 	bl	3000246c <GetLcdParams>
30002500:	e59d3004 	ldr	r3, [sp, #4]
30002504:	e3530008 	cmp	r3, #8	; 0x8
30002508:	0a000055 	beq	30002664 <LCDTest+0x180>
3000250c:	e3530010 	cmp	r3, #16	; 0x10
30002510:	0a0000a9 	beq	300027bc <LCDTest+0x2d8>
30002514:	e3530020 	cmp	r3, #32	; 0x20
30002518:	0a0000f5 	beq	300028f4 <LCDTest+0x410>
3000251c:	e3a0093d 	mov	r0, #999424	; 0xf4000
30002520:	e2800d09 	add	r0, r0, #576	; 0x240
30002524:	ebfffc9f 	bl	300017a8 <Delay>
30002528:	e59d200c 	ldr	r2, [sp, #12]
3000252c:	e3a00000 	mov	r0, #0	; 0x0
30002530:	e1a01000 	mov	r1, r0
30002534:	e1a03000 	mov	r3, r0
30002538:	e3a0c8ff 	mov	ip, #16711680	; 0xff0000
3000253c:	e2422001 	sub	r2, r2, #1	; 0x1
30002540:	e58dc000 	str	ip, [sp]
30002544:	eb000216 	bl	30002da4 <DrawLine>
30002548:	e59d000c 	ldr	r0, [sp, #12]
3000254c:	e59d3008 	ldr	r3, [sp, #8]
30002550:	e2400001 	sub	r0, r0, #1	; 0x1
30002554:	e3a0c8ff 	mov	ip, #16711680	; 0xff0000
30002558:	e28cccff 	add	ip, ip, #65280	; 0xff00
3000255c:	e1a02000 	mov	r2, r0
30002560:	e2433001 	sub	r3, r3, #1	; 0x1
30002564:	e3a01000 	mov	r1, #0	; 0x0
30002568:	e58dc000 	str	ip, [sp]
3000256c:	eb00020c 	bl	30002da4 <DrawLine>
30002570:	e28d1008 	add	r1, sp, #8	; 0x8
30002574:	e8910006 	ldmia	r1, {r1, r2}
30002578:	e2411001 	sub	r1, r1, #1	; 0x1
3000257c:	e3a0c8ff 	mov	ip, #16711680	; 0xff0000
30002580:	e28cc0aa 	add	ip, ip, #170	; 0xaa
30002584:	e1a03001 	mov	r3, r1
30002588:	e2422001 	sub	r2, r2, #1	; 0x1
3000258c:	e3a00000 	mov	r0, #0	; 0x0
30002590:	e58dc000 	str	ip, [sp]
30002594:	eb000202 	bl	30002da4 <DrawLine>
30002598:	e59d3008 	ldr	r3, [sp, #8]
3000259c:	e3a00000 	mov	r0, #0	; 0x0
300025a0:	e3a0c8ff 	mov	ip, #16711680	; 0xff0000
300025a4:	e28cc0ef 	add	ip, ip, #239	; 0xef
300025a8:	e1a01000 	mov	r1, r0
300025ac:	e1a02000 	mov	r2, r0
300025b0:	e2433001 	sub	r3, r3, #1	; 0x1
300025b4:	e58dc000 	str	ip, [sp]
300025b8:	eb0001f9 	bl	30002da4 <DrawLine>
300025bc:	e59d200c 	ldr	r2, [sp, #12]
300025c0:	e59d3008 	ldr	r3, [sp, #8]
300025c4:	e3a00000 	mov	r0, #0	; 0x0
300025c8:	e3a0c8ff 	mov	ip, #16711680	; 0xff0000
300025cc:	e28ccc45 	add	ip, ip, #17664	; 0x4500
300025d0:	e1a01000 	mov	r1, r0
300025d4:	e2422001 	sub	r2, r2, #1	; 0x1
300025d8:	e2433001 	sub	r3, r3, #1	; 0x1
300025dc:	e58dc000 	str	ip, [sp]
300025e0:	eb0001ef 	bl	30002da4 <DrawLine>
300025e4:	e59d3008 	ldr	r3, [sp, #8]
300025e8:	e59d000c 	ldr	r0, [sp, #12]
300025ec:	e3a01000 	mov	r1, #0	; 0x0
300025f0:	e3a0c8ff 	mov	ip, #16711680	; 0xff0000
300025f4:	e28ccd1e 	add	ip, ip, #1920	; 0x780
300025f8:	e1a02001 	mov	r2, r1
300025fc:	e2433001 	sub	r3, r3, #1	; 0x1
30002600:	e2400001 	sub	r0, r0, #1	; 0x1
30002604:	e58dc000 	str	ip, [sp]
30002608:	eb0001e5 	bl	30002da4 <DrawLine>
3000260c:	e3a0093d 	mov	r0, #999424	; 0xf4000
30002610:	e2800d09 	add	r0, r0, #576	; 0x240
30002614:	ebfffc63 	bl	300017a8 <Delay>
30002618:	e59d1008 	ldr	r1, [sp, #8]
3000261c:	e59d000c 	ldr	r0, [sp, #12]
30002620:	e1a03fc1 	mov	r3, r1, asr #31
30002624:	e0812f23 	add	r2, r1, r3, lsr #30
30002628:	e0800fa0 	add	r0, r0, r0, lsr #31
3000262c:	e0811fa3 	add	r1, r1, r3, lsr #31
30002630:	e1a000c0 	mov	r0, r0, asr #1
30002634:	e1a010c1 	mov	r1, r1, asr #1
30002638:	e1a02142 	mov	r2, r2, asr #2
3000263c:	e3a03cff 	mov	r3, #65280	; 0xff00
30002640:	eb00018b 	bl	30002c74 <DrawCircle>
30002644:	e3a0000a 	mov	r0, #10	; 0xa
30002648:	e3a03cff 	mov	r3, #65280	; 0xff00
3000264c:	e28330ff 	add	r3, r3, #255	; 0xff
30002650:	e1a01000 	mov	r1, r0
30002654:	e59f23f0 	ldr	r2, [pc, #1008]	; 30002a4c <.text+0x2a4c>
30002658:	eb0002a7 	bl	300030fc <PrintFbString8x16>
3000265c:	e28dd014 	add	sp, sp, #20	; 0x14
30002660:	e8bd8000 	ldmia	sp!, {pc}
30002664:	e59d000c 	ldr	r0, [sp, #12]
30002668:	e3a0e000 	mov	lr, #0	; 0x0
3000266c:	e15e0000 	cmp	lr, r0
30002670:	e59d1010 	ldr	r1, [sp, #16]
30002674:	aa00000d 	bge	300026b0 <LCDTest+0x1cc>
30002678:	e59d2008 	ldr	r2, [sp, #8]
3000267c:	e3a03000 	mov	r3, #0	; 0x0
30002680:	e1530002 	cmp	r3, r2
30002684:	aa000006 	bge	300026a4 <LCDTest+0x1c0>
30002688:	e3a0000c 	mov	r0, #12	; 0xc
3000268c:	e4c10001 	strb	r0, [r1], #1
30002690:	e59d2008 	ldr	r2, [sp, #8]
30002694:	e2833001 	add	r3, r3, #1	; 0x1
30002698:	e1530002 	cmp	r3, r2
3000269c:	bafffffa 	blt	3000268c <LCDTest+0x1a8>
300026a0:	e59d000c 	ldr	r0, [sp, #12]
300026a4:	e28ee001 	add	lr, lr, #1	; 0x1
300026a8:	e15e0000 	cmp	lr, r0
300026ac:	bafffff2 	blt	3000267c <LCDTest+0x198>
300026b0:	e3a00a7a 	mov	r0, #499712	; 0x7a000
300026b4:	e2800e12 	add	r0, r0, #288	; 0x120
300026b8:	ebfffc3a 	bl	300017a8 <Delay>
300026bc:	e59d000c 	ldr	r0, [sp, #12]
300026c0:	e3a0e000 	mov	lr, #0	; 0x0
300026c4:	e15e0000 	cmp	lr, r0
300026c8:	e59d1010 	ldr	r1, [sp, #16]
300026cc:	aa00000d 	bge	30002708 <LCDTest+0x224>
300026d0:	e59d2008 	ldr	r2, [sp, #8]
300026d4:	e3a03000 	mov	r3, #0	; 0x0
300026d8:	e1530002 	cmp	r3, r2
300026dc:	aa000006 	bge	300026fc <LCDTest+0x218>
300026e0:	e3a0002f 	mov	r0, #47	; 0x2f
300026e4:	e4c10001 	strb	r0, [r1], #1
300026e8:	e59d2008 	ldr	r2, [sp, #8]
300026ec:	e2833001 	add	r3, r3, #1	; 0x1
300026f0:	e1530002 	cmp	r3, r2
300026f4:	bafffffa 	blt	300026e4 <LCDTest+0x200>
300026f8:	e59d000c 	ldr	r0, [sp, #12]
300026fc:	e28ee001 	add	lr, lr, #1	; 0x1
30002700:	e15e0000 	cmp	lr, r0
30002704:	bafffff2 	blt	300026d4 <LCDTest+0x1f0>
30002708:	e3a00a7a 	mov	r0, #499712	; 0x7a000
3000270c:	e2800e12 	add	r0, r0, #288	; 0x120
30002710:	ebfffc24 	bl	300017a8 <Delay>
30002714:	e59d000c 	ldr	r0, [sp, #12]
30002718:	e3a0e000 	mov	lr, #0	; 0x0
3000271c:	e15e0000 	cmp	lr, r0
30002720:	e59d1010 	ldr	r1, [sp, #16]
30002724:	aa00000d 	bge	30002760 <LCDTest+0x27c>
30002728:	e59d2008 	ldr	r2, [sp, #8]
3000272c:	e3a03000 	mov	r3, #0	; 0x0
30002730:	e1530002 	cmp	r3, r2
30002734:	aa000006 	bge	30002754 <LCDTest+0x270>
30002738:	e3a00058 	mov	r0, #88	; 0x58
3000273c:	e4c10001 	strb	r0, [r1], #1
30002740:	e59d2008 	ldr	r2, [sp, #8]
30002744:	e2833001 	add	r3, r3, #1	; 0x1
30002748:	e1530002 	cmp	r3, r2
3000274c:	bafffffa 	blt	3000273c <LCDTest+0x258>
30002750:	e59d000c 	ldr	r0, [sp, #12]
30002754:	e28ee001 	add	lr, lr, #1	; 0x1
30002758:	e15e0000 	cmp	lr, r0
3000275c:	bafffff2 	blt	3000272c <LCDTest+0x248>
30002760:	e3a00a7a 	mov	r0, #499712	; 0x7a000
30002764:	e2800e12 	add	r0, r0, #288	; 0x120
30002768:	ebfffc0e 	bl	300017a8 <Delay>
3000276c:	e59d000c 	ldr	r0, [sp, #12]
30002770:	e3a0e000 	mov	lr, #0	; 0x0
30002774:	e15e0000 	cmp	lr, r0
30002778:	e59d1010 	ldr	r1, [sp, #16]
3000277c:	aaffff66 	bge	3000251c <LCDTest+0x38>
30002780:	e59d2008 	ldr	r2, [sp, #8]
30002784:	e3a03000 	mov	r3, #0	; 0x0
30002788:	e1530002 	cmp	r3, r2
3000278c:	aa000006 	bge	300027ac <LCDTest+0x2c8>
30002790:	e1a00003 	mov	r0, r3
30002794:	e4c10001 	strb	r0, [r1], #1
30002798:	e59d2008 	ldr	r2, [sp, #8]
3000279c:	e2833001 	add	r3, r3, #1	; 0x1
300027a0:	e1530002 	cmp	r3, r2
300027a4:	bafffffa 	blt	30002794 <LCDTest+0x2b0>
300027a8:	e59d000c 	ldr	r0, [sp, #12]
300027ac:	e28ee001 	add	lr, lr, #1	; 0x1
300027b0:	e15e0000 	cmp	lr, r0
300027b4:	bafffff2 	blt	30002784 <LCDTest+0x2a0>
300027b8:	eaffff57 	b	3000251c <LCDTest+0x38>
300027bc:	e59d000c 	ldr	r0, [sp, #12]
300027c0:	e3a0e000 	mov	lr, #0	; 0x0
300027c4:	e15e0000 	cmp	lr, r0
300027c8:	e59d1010 	ldr	r1, [sp, #16]
300027cc:	aa00000b 	bge	30002800 <LCDTest+0x31c>
300027d0:	e59d2008 	ldr	r2, [sp, #8]
300027d4:	e3a03000 	mov	r3, #0	; 0x0
300027d8:	e1530002 	cmp	r3, r2
300027dc:	aa000004 	bge	300027f4 <LCDTest+0x310>
300027e0:	e3a0cb3e 	mov	ip, #63488	; 0xf800
300027e4:	e2833001 	add	r3, r3, #1	; 0x1
300027e8:	e1530002 	cmp	r3, r2
300027ec:	e0c1c0b2 	strh	ip, [r1], #2
300027f0:	bafffffb 	blt	300027e4 <LCDTest+0x300>
300027f4:	e28ee001 	add	lr, lr, #1	; 0x1
300027f8:	e15e0000 	cmp	lr, r0
300027fc:	bafffff4 	blt	300027d4 <LCDTest+0x2f0>
30002800:	e3a00a7a 	mov	r0, #499712	; 0x7a000
30002804:	e2800e12 	add	r0, r0, #288	; 0x120
30002808:	ebfffbe6 	bl	300017a8 <Delay>
3000280c:	e59d000c 	ldr	r0, [sp, #12]
30002810:	e3a0e000 	mov	lr, #0	; 0x0
30002814:	e15e0000 	cmp	lr, r0
30002818:	e59d1010 	ldr	r1, [sp, #16]
3000281c:	aa00000b 	bge	30002850 <LCDTest+0x36c>
30002820:	e59d2008 	ldr	r2, [sp, #8]
30002824:	e3a03000 	mov	r3, #0	; 0x0
30002828:	e1530002 	cmp	r3, r2
3000282c:	aa000004 	bge	30002844 <LCDTest+0x360>
30002830:	e2833001 	add	r3, r3, #1	; 0x1
30002834:	e3a0ce7e 	mov	ip, #2016	; 0x7e0
30002838:	e1530002 	cmp	r3, r2
3000283c:	e0c1c0b2 	strh	ip, [r1], #2
30002840:	bafffffa 	blt	30002830 <LCDTest+0x34c>
30002844:	e28ee001 	add	lr, lr, #1	; 0x1
30002848:	e15e0000 	cmp	lr, r0
3000284c:	bafffff4 	blt	30002824 <LCDTest+0x340>
30002850:	e3a00a7a 	mov	r0, #499712	; 0x7a000
30002854:	e2800e12 	add	r0, r0, #288	; 0x120
30002858:	ebfffbd2 	bl	300017a8 <Delay>
3000285c:	e59d000c 	ldr	r0, [sp, #12]
30002860:	e3a0e000 	mov	lr, #0	; 0x0
30002864:	e15e0000 	cmp	lr, r0
30002868:	e59d1010 	ldr	r1, [sp, #16]
3000286c:	aa00000b 	bge	300028a0 <LCDTest+0x3bc>
30002870:	e59d2008 	ldr	r2, [sp, #8]
30002874:	e3a03000 	mov	r3, #0	; 0x0
30002878:	e1530002 	cmp	r3, r2
3000287c:	aa000004 	bge	30002894 <LCDTest+0x3b0>
30002880:	e2833001 	add	r3, r3, #1	; 0x1
30002884:	e3a0c01f 	mov	ip, #31	; 0x1f
30002888:	e1530002 	cmp	r3, r2
3000288c:	e0c1c0b2 	strh	ip, [r1], #2
30002890:	bafffffa 	blt	30002880 <LCDTest+0x39c>
30002894:	e28ee001 	add	lr, lr, #1	; 0x1
30002898:	e15e0000 	cmp	lr, r0
3000289c:	bafffff4 	blt	30002874 <LCDTest+0x390>
300028a0:	e3a00a7a 	mov	r0, #499712	; 0x7a000
300028a4:	e2800e12 	add	r0, r0, #288	; 0x120
300028a8:	ebfffbbe 	bl	300017a8 <Delay>
300028ac:	e59d000c 	ldr	r0, [sp, #12]
300028b0:	e3a0e000 	mov	lr, #0	; 0x0
300028b4:	e15e0000 	cmp	lr, r0
300028b8:	e59d1010 	ldr	r1, [sp, #16]
300028bc:	aaffff16 	bge	3000251c <LCDTest+0x38>
300028c0:	e59d2008 	ldr	r2, [sp, #8]
300028c4:	e3a03000 	mov	r3, #0	; 0x0
300028c8:	e1530002 	cmp	r3, r2
300028cc:	aa000004 	bge	300028e4 <LCDTest+0x400>
300028d0:	e2833001 	add	r3, r3, #1	; 0x1
300028d4:	e3a0c000 	mov	ip, #0	; 0x0
300028d8:	e1530002 	cmp	r3, r2
300028dc:	e0c1c0b2 	strh	ip, [r1], #2
300028e0:	bafffffa 	blt	300028d0 <LCDTest+0x3ec>
300028e4:	e28ee001 	add	lr, lr, #1	; 0x1
300028e8:	e15e0000 	cmp	lr, r0
300028ec:	bafffff4 	blt	300028c4 <LCDTest+0x3e0>
300028f0:	eaffff09 	b	3000251c <LCDTest+0x38>
300028f4:	e59d000c 	ldr	r0, [sp, #12]
300028f8:	e3a0e000 	mov	lr, #0	; 0x0
300028fc:	e15e0000 	cmp	lr, r0
30002900:	e59d1010 	ldr	r1, [sp, #16]
30002904:	aa00000d 	bge	30002940 <LCDTest+0x45c>
30002908:	e59d2008 	ldr	r2, [sp, #8]
3000290c:	e3a03000 	mov	r3, #0	; 0x0
30002910:	e1530002 	cmp	r3, r2
30002914:	aa000006 	bge	30002934 <LCDTest+0x450>
30002918:	e3a008ff 	mov	r0, #16711680	; 0xff0000
3000291c:	e4810004 	str	r0, [r1], #4
30002920:	e59d2008 	ldr	r2, [sp, #8]
30002924:	e2833001 	add	r3, r3, #1	; 0x1
30002928:	e1530002 	cmp	r3, r2
3000292c:	bafffffa 	blt	3000291c <LCDTest+0x438>
30002930:	e59d000c 	ldr	r0, [sp, #12]
30002934:	e28ee001 	add	lr, lr, #1	; 0x1
30002938:	e15e0000 	cmp	lr, r0
3000293c:	bafffff2 	blt	3000290c <LCDTest+0x428>
30002940:	e3a00a7a 	mov	r0, #499712	; 0x7a000
30002944:	e2800e12 	add	r0, r0, #288	; 0x120
30002948:	ebfffb96 	bl	300017a8 <Delay>
3000294c:	e59d000c 	ldr	r0, [sp, #12]
30002950:	e3a0e000 	mov	lr, #0	; 0x0
30002954:	e15e0000 	cmp	lr, r0
30002958:	e59d1010 	ldr	r1, [sp, #16]
3000295c:	aa00000d 	bge	30002998 <LCDTest+0x4b4>
30002960:	e59d2008 	ldr	r2, [sp, #8]
30002964:	e3a03000 	mov	r3, #0	; 0x0
30002968:	e1530002 	cmp	r3, r2
3000296c:	aa000006 	bge	3000298c <LCDTest+0x4a8>
30002970:	e3a00cff 	mov	r0, #65280	; 0xff00
30002974:	e4810004 	str	r0, [r1], #4
30002978:	e59d2008 	ldr	r2, [sp, #8]
3000297c:	e2833001 	add	r3, r3, #1	; 0x1
30002980:	e1530002 	cmp	r3, r2
30002984:	bafffffa 	blt	30002974 <LCDTest+0x490>
30002988:	e59d000c 	ldr	r0, [sp, #12]
3000298c:	e28ee001 	add	lr, lr, #1	; 0x1
30002990:	e15e0000 	cmp	lr, r0
30002994:	bafffff2 	blt	30002964 <LCDTest+0x480>
30002998:	e3a00a7a 	mov	r0, #499712	; 0x7a000
3000299c:	e2800e12 	add	r0, r0, #288	; 0x120
300029a0:	ebfffb80 	bl	300017a8 <Delay>
300029a4:	e59d000c 	ldr	r0, [sp, #12]
300029a8:	e3a0e000 	mov	lr, #0	; 0x0
300029ac:	e15e0000 	cmp	lr, r0
300029b0:	e59d1010 	ldr	r1, [sp, #16]
300029b4:	aa00000d 	bge	300029f0 <LCDTest+0x50c>
300029b8:	e59d2008 	ldr	r2, [sp, #8]
300029bc:	e3a03000 	mov	r3, #0	; 0x0
300029c0:	e1530002 	cmp	r3, r2
300029c4:	aa000006 	bge	300029e4 <LCDTest+0x500>
300029c8:	e3a000ff 	mov	r0, #255	; 0xff
300029cc:	e4810004 	str	r0, [r1], #4
300029d0:	e59d2008 	ldr	r2, [sp, #8]
300029d4:	e2833001 	add	r3, r3, #1	; 0x1
300029d8:	e1530002 	cmp	r3, r2
300029dc:	bafffffa 	blt	300029cc <LCDTest+0x4e8>
300029e0:	e59d000c 	ldr	r0, [sp, #12]
300029e4:	e28ee001 	add	lr, lr, #1	; 0x1
300029e8:	e15e0000 	cmp	lr, r0
300029ec:	bafffff2 	blt	300029bc <LCDTest+0x4d8>
300029f0:	e3a00a7a 	mov	r0, #499712	; 0x7a000
300029f4:	e2800e12 	add	r0, r0, #288	; 0x120
300029f8:	ebfffb6a 	bl	300017a8 <Delay>
300029fc:	e59d000c 	ldr	r0, [sp, #12]
30002a00:	e3a0e000 	mov	lr, #0	; 0x0
30002a04:	e15e0000 	cmp	lr, r0
30002a08:	e59d1010 	ldr	r1, [sp, #16]
30002a0c:	aafffec2 	bge	3000251c <LCDTest+0x38>
30002a10:	e59d2008 	ldr	r2, [sp, #8]
30002a14:	e3a03000 	mov	r3, #0	; 0x0
30002a18:	e1530002 	cmp	r3, r2
30002a1c:	aa000006 	bge	30002a3c <LCDTest+0x558>
30002a20:	e1a00003 	mov	r0, r3
30002a24:	e4810004 	str	r0, [r1], #4
30002a28:	e59d2008 	ldr	r2, [sp, #8]
30002a2c:	e2833001 	add	r3, r3, #1	; 0x1
30002a30:	e1530002 	cmp	r3, r2
30002a34:	bafffffa 	blt	30002a24 <LCDTest+0x540>
30002a38:	e59d000c 	ldr	r0, [sp, #12]
30002a3c:	e28ee001 	add	lr, lr, #1	; 0x1
30002a40:	e15e0000 	cmp	lr, r0
30002a44:	bafffff2 	blt	30002a14 <LCDTest+0x530>
30002a48:	eafffeb3 	b	3000251c <LCDTest+0x38>
30002a4c:	30004eec 	andcc	r4, r0, ip, ror #29

30002a50 <Add4Point3Lcd>:
30002a50:	e59f0000 	ldr	r0, [pc, #0]	; 30002a58 <.text+0x2a58>
30002a54:	eafffe5e 	b	300023d4 <RegisterLcd>
30002a58:	30005030 	andcc	r5, r0, r0, lsr r0

30002a5c <GetLcdParamsforFb>:
30002a5c:	e59f000c 	ldr	r0, [pc, #12]	; 30002a70 <.text+0x2a70>
30002a60:	e59f100c 	ldr	r1, [pc, #12]	; 30002a74 <.text+0x2a74>
30002a64:	e59f200c 	ldr	r2, [pc, #12]	; 30002a78 <.text+0x2a78>
30002a68:	e59f300c 	ldr	r3, [pc, #12]	; 30002a7c <.text+0x2a7c>
30002a6c:	eafffe7e 	b	3000246c <GetLcdParams>
30002a70:	300050d0 	ldrccd	r5, [r0], -r0
30002a74:	300050d4 	ldrccd	r5, [r0], -r4
30002a78:	300050d8 	ldrccd	r5, [r0], -r8
30002a7c:	300050dc 	ldrccd	r5, [r0], -ip

30002a80 <Convert32BppTo16Bpp>:
30002a80:	e1a022a0 	mov	r2, r0, lsr #5
30002a84:	e1a03420 	mov	r3, r0, lsr #8
30002a88:	e2022e7e 	and	r2, r2, #2016	; 0x7e0
30002a8c:	e2033b3e 	and	r3, r3, #63488	; 0xf800
30002a90:	e1833002 	orr	r3, r3, r2
30002a94:	e20000ff 	and	r0, r0, #255	; 0xff
30002a98:	e18301a0 	orr	r0, r3, r0, lsr #3
30002a9c:	e1a0f00e 	mov	pc, lr

30002aa0 <PutFbPixel>:
30002aa0:	e92d4070 	stmdb	sp!, {r4, r5, r6, lr}
30002aa4:	e59f3068 	ldr	r3, [pc, #104]	; 30002b14 <.text+0x2b14>
30002aa8:	e59fc068 	ldr	ip, [pc, #104]	; 30002b18 <.text+0x2b18>
30002aac:	e5934000 	ldr	r4, [r3]
30002ab0:	e59c5000 	ldr	r5, [ip]
30002ab4:	e00e0495 	mul	lr, r5, r4
30002ab8:	e00c0095 	mul	ip, r5, r0
30002abc:	e59f0058 	ldr	r0, [pc, #88]	; 30002b1c <.text+0x2b1c>
30002ac0:	e1a03fce 	mov	r3, lr, asr #31
30002ac4:	e5904000 	ldr	r4, [r0]
30002ac8:	e08eeea3 	add	lr, lr, r3, lsr #29
30002acc:	e1a03fcc 	mov	r3, ip, asr #31
30002ad0:	e08ccea3 	add	ip, ip, r3, lsr #29
30002ad4:	e1a0e1ce 	mov	lr, lr, asr #3
30002ad8:	e3550010 	cmp	r5, #16	; 0x10
30002adc:	e0264e91 	mla	r6, r1, lr, r4
30002ae0:	e1a00002 	mov	r0, r2
30002ae4:	e1a041cc 	mov	r4, ip, asr #3
30002ae8:	0a000006 	beq	30002b08 <PutFbPixel+0x68>
30002aec:	ca000002 	bgt	30002afc <PutFbPixel+0x5c>
30002af0:	e3550008 	cmp	r5, #8	; 0x8
30002af4:	07c62004 	streqb	r2, [r6, r4]
30002af8:	e8bd8070 	ldmia	sp!, {r4, r5, r6, pc}
30002afc:	e3550020 	cmp	r5, #32	; 0x20
30002b00:	07862004 	streq	r2, [r6, r4]
30002b04:	e8bd8070 	ldmia	sp!, {r4, r5, r6, pc}
30002b08:	ebffffdc 	bl	30002a80 <Convert32BppTo16Bpp>
30002b0c:	e18600b4 	strh	r0, [r6, r4]
30002b10:	e8bd8070 	ldmia	sp!, {r4, r5, r6, pc}
30002b14:	300050d4 	ldrccd	r5, [r0], -r4
30002b18:	300050dc 	ldrccd	r5, [r0], -ip
30002b1c:	300050d0 	ldrccd	r5, [r0], -r0

30002b20 <ClearScreen>:
30002b20:	e92d45f0 	stmdb	sp!, {r4, r5, r6, r7, r8, sl, lr}
30002b24:	e59f3138 	ldr	r3, [pc, #312]	; 30002c64 <.text+0x2c64>
30002b28:	e5933000 	ldr	r3, [r3]
30002b2c:	e3530008 	cmp	r3, #8	; 0x8
30002b30:	e1a06000 	mov	r6, r0
30002b34:	0a000018 	beq	30002b9c <ClearScreen+0x7c>
30002b38:	e3530010 	cmp	r3, #16	; 0x10
30002b3c:	0a00002b 	beq	30002bf0 <ClearScreen+0xd0>
30002b40:	e3530020 	cmp	r3, #32	; 0x20
30002b44:	18bd85f0 	ldmneia	sp!, {r4, r5, r6, r7, r8, sl, pc}
30002b48:	e59fa118 	ldr	sl, [pc, #280]	; 30002c68 <.text+0x2c68>
30002b4c:	e59a2000 	ldr	r2, [sl]
30002b50:	e3a07000 	mov	r7, #0	; 0x0
30002b54:	e59f3110 	ldr	r3, [pc, #272]	; 30002c6c <.text+0x2c6c>
30002b58:	e1570002 	cmp	r7, r2
30002b5c:	e5932000 	ldr	r2, [r3]
30002b60:	a8bd85f0 	ldmgeia	sp!, {r4, r5, r6, r7, r8, sl, pc}
30002b64:	e59f1104 	ldr	r1, [pc, #260]	; 30002c70 <.text+0x2c70>
30002b68:	e5913000 	ldr	r3, [r1]
30002b6c:	e3a04000 	mov	r4, #0	; 0x0
30002b70:	ea000002 	b	30002b80 <ClearScreen+0x60>
30002b74:	e4826004 	str	r6, [r2], #4
30002b78:	e5913000 	ldr	r3, [r1]
30002b7c:	e2844001 	add	r4, r4, #1	; 0x1
30002b80:	e1540003 	cmp	r4, r3
30002b84:	bafffffa 	blt	30002b74 <ClearScreen+0x54>
30002b88:	e59a3000 	ldr	r3, [sl]
30002b8c:	e2877001 	add	r7, r7, #1	; 0x1
30002b90:	e1570003 	cmp	r7, r3
30002b94:	bafffff3 	blt	30002b68 <ClearScreen+0x48>
30002b98:	e8bd85f0 	ldmia	sp!, {r4, r5, r6, r7, r8, sl, pc}
30002b9c:	e59fa0c4 	ldr	sl, [pc, #196]	; 30002c68 <.text+0x2c68>
30002ba0:	e59a2000 	ldr	r2, [sl]
30002ba4:	e3a07000 	mov	r7, #0	; 0x0
30002ba8:	e59f30bc 	ldr	r3, [pc, #188]	; 30002c6c <.text+0x2c6c>
30002bac:	e1570002 	cmp	r7, r2
30002bb0:	e5932000 	ldr	r2, [r3]
30002bb4:	a8bd85f0 	ldmgeia	sp!, {r4, r5, r6, r7, r8, sl, pc}
30002bb8:	e59f80b0 	ldr	r8, [pc, #176]	; 30002c70 <.text+0x2c70>
30002bbc:	e5983000 	ldr	r3, [r8]
30002bc0:	e3a04000 	mov	r4, #0	; 0x0
30002bc4:	ea000002 	b	30002bd4 <ClearScreen+0xb4>
30002bc8:	e4c26001 	strb	r6, [r2], #1
30002bcc:	e5983000 	ldr	r3, [r8]
30002bd0:	e2844001 	add	r4, r4, #1	; 0x1
30002bd4:	e1540003 	cmp	r4, r3
30002bd8:	bafffffa 	blt	30002bc8 <ClearScreen+0xa8>
30002bdc:	e59a3000 	ldr	r3, [sl]
30002be0:	e2877001 	add	r7, r7, #1	; 0x1
30002be4:	e1570003 	cmp	r7, r3
30002be8:	bafffff3 	blt	30002bbc <ClearScreen+0x9c>
30002bec:	e8bd85f0 	ldmia	sp!, {r4, r5, r6, r7, r8, sl, pc}
30002bf0:	e59fa070 	ldr	sl, [pc, #112]	; 30002c68 <.text+0x2c68>
30002bf4:	e59a2000 	ldr	r2, [sl]
30002bf8:	e3a07000 	mov	r7, #0	; 0x0
30002bfc:	e59f3068 	ldr	r3, [pc, #104]	; 30002c6c <.text+0x2c6c>
30002c00:	e1570002 	cmp	r7, r2
30002c04:	e5935000 	ldr	r5, [r3]
30002c08:	a8bd85f0 	ldmgeia	sp!, {r4, r5, r6, r7, r8, sl, pc}
30002c0c:	e59f805c 	ldr	r8, [pc, #92]	; 30002c70 <.text+0x2c70>
30002c10:	ea000003 	b	30002c24 <ClearScreen+0x104>
30002c14:	e59a3000 	ldr	r3, [sl]
30002c18:	e2877001 	add	r7, r7, #1	; 0x1
30002c1c:	e1570003 	cmp	r7, r3
30002c20:	aa00000e 	bge	30002c60 <ClearScreen+0x140>
30002c24:	e5983000 	ldr	r3, [r8]
30002c28:	e3a04000 	mov	r4, #0	; 0x0
30002c2c:	e1540003 	cmp	r4, r3
30002c30:	aafffff7 	bge	30002c14 <ClearScreen+0xf4>
30002c34:	e1a00006 	mov	r0, r6
30002c38:	ebffff90 	bl	30002a80 <Convert32BppTo16Bpp>
30002c3c:	e5983000 	ldr	r3, [r8]
30002c40:	e2844001 	add	r4, r4, #1	; 0x1
30002c44:	e1540003 	cmp	r4, r3
30002c48:	e0c500b2 	strh	r0, [r5], #2
30002c4c:	bafffffb 	blt	30002c40 <ClearScreen+0x120>
30002c50:	e59a3000 	ldr	r3, [sl]
30002c54:	e2877001 	add	r7, r7, #1	; 0x1
30002c58:	e1570003 	cmp	r7, r3
30002c5c:	bafffff0 	blt	30002c24 <ClearScreen+0x104>
30002c60:	e8bd85f0 	ldmia	sp!, {r4, r5, r6, r7, r8, sl, pc}
30002c64:	300050dc 	ldrccd	r5, [r0], -ip
30002c68:	300050d4 	ldrccd	r5, [r0], -r4
30002c6c:	300050d0 	ldrccd	r5, [r0], -r0
30002c70:	300050d8 	ldrccd	r5, [r0], -r8

30002c74 <DrawCircle>:
30002c74:	e92d4ff0 	stmdb	sp!, {r4, r5, r6, r7, r8, r9, sl, fp, lr}
30002c78:	e1a0a002 	mov	sl, r2
30002c7c:	e0020a9a 	mul	r2, sl, sl
30002c80:	e24dd00c 	sub	sp, sp, #12	; 0xc
30002c84:	e1a0c002 	mov	ip, r2
30002c88:	e58d2000 	str	r2, [sp]
30002c8c:	e0822102 	add	r2, r2, r2, lsl #2
30002c90:	e08c2082 	add	r2, ip, r2, lsl #1
30002c94:	e15c0082 	cmp	ip, r2, lsl #1
30002c98:	e58d0008 	str	r0, [sp, #8]
30002c9c:	e58d1004 	str	r1, [sp, #4]
30002ca0:	e1a08003 	mov	r8, r3
30002ca4:	e3a09000 	mov	r9, #0	; 0x0
30002ca8:	ca00003b 	bgt	30002d9c <DrawCircle+0x128>
30002cac:	e1a0b00c 	mov	fp, ip
30002cb0:	e99d4004 	ldmib	sp, {r2, lr}
30002cb4:	e08e7009 	add	r7, lr, r9
30002cb8:	e06a4002 	rsb	r4, sl, r2
30002cbc:	e1a00007 	mov	r0, r7
30002cc0:	e1a01004 	mov	r1, r4
30002cc4:	e1a02008 	mov	r2, r8
30002cc8:	e069600e 	rsb	r6, r9, lr
30002ccc:	ebffff73 	bl	30002aa0 <PutFbPixel>
30002cd0:	e59d3004 	ldr	r3, [sp, #4]
30002cd4:	e1a01004 	mov	r1, r4
30002cd8:	e083500a 	add	r5, r3, sl
30002cdc:	e1a00006 	mov	r0, r6
30002ce0:	e1a02008 	mov	r2, r8
30002ce4:	ebffff6d 	bl	30002aa0 <PutFbPixel>
30002ce8:	e1a00006 	mov	r0, r6
30002cec:	e1a01005 	mov	r1, r5
30002cf0:	e1a02008 	mov	r2, r8
30002cf4:	ebffff69 	bl	30002aa0 <PutFbPixel>
30002cf8:	e59dc008 	ldr	ip, [sp, #8]
30002cfc:	e59de004 	ldr	lr, [sp, #4]
30002d00:	e1a00007 	mov	r0, r7
30002d04:	e1a01005 	mov	r1, r5
30002d08:	e1a02008 	mov	r2, r8
30002d0c:	e08c400a 	add	r4, ip, sl
30002d10:	e08e7009 	add	r7, lr, r9
30002d14:	ebffff61 	bl	30002aa0 <PutFbPixel>
30002d18:	e59d2004 	ldr	r2, [sp, #4]
30002d1c:	e1a00004 	mov	r0, r4
30002d20:	e0696002 	rsb	r6, r9, r2
30002d24:	e1a01007 	mov	r1, r7
30002d28:	e1a02008 	mov	r2, r8
30002d2c:	ebffff5b 	bl	30002aa0 <PutFbPixel>
30002d30:	e59d3008 	ldr	r3, [sp, #8]
30002d34:	e1a00004 	mov	r0, r4
30002d38:	e06a5003 	rsb	r5, sl, r3
30002d3c:	e1a01006 	mov	r1, r6
30002d40:	e1a02008 	mov	r2, r8
30002d44:	ebffff55 	bl	30002aa0 <PutFbPixel>
30002d48:	e1a01006 	mov	r1, r6
30002d4c:	e1a00005 	mov	r0, r5
30002d50:	e1a02008 	mov	r2, r8
30002d54:	ebffff51 	bl	30002aa0 <PutFbPixel>
30002d58:	e2899001 	add	r9, r9, #1	; 0x1
30002d5c:	e1a00005 	mov	r0, r5
30002d60:	e1a01007 	mov	r1, r7
30002d64:	e1a02008 	mov	r2, r8
30002d68:	ebffff4c 	bl	30002aa0 <PutFbPixel>
30002d6c:	e023b999 	mla	r3, r9, r9, fp
30002d70:	e59dc000 	ldr	ip, [sp]
30002d74:	e06c3003 	rsb	r3, ip, r3
30002d78:	e3530000 	cmp	r3, #0	; 0x0
30002d7c:	c24aa001 	subgt	sl, sl, #1	; 0x1
30002d80:	c00b0a9a 	mulgt	fp, sl, sl
30002d84:	e59de000 	ldr	lr, [sp]
30002d88:	e08b310b 	add	r3, fp, fp, lsl #2
30002d8c:	e08b3083 	add	r3, fp, r3, lsl #1
30002d90:	c2499001 	subgt	r9, r9, #1	; 0x1
30002d94:	e15e0083 	cmp	lr, r3, lsl #1
30002d98:	daffffc4 	ble	30002cb0 <DrawCircle+0x3c>
30002d9c:	e28dd00c 	add	sp, sp, #12	; 0xc
30002da0:	e8bd8ff0 	ldmia	sp!, {r4, r5, r6, r7, r8, r9, sl, fp, pc}

30002da4 <DrawLine>:
30002da4:	e92d4ff0 	stmdb	sp!, {r4, r5, r6, r7, r8, r9, sl, fp, lr}
30002da8:	e0528000 	subs	r8, r2, r0
30002dac:	e1a05000 	mov	r5, r0
30002db0:	e1a0a002 	mov	sl, r2
30002db4:	e1a06001 	mov	r6, r1
30002db8:	e1a09003 	mov	r9, r3
30002dbc:	e59db024 	ldr	fp, [sp, #36]
30002dc0:	e0617003 	rsb	r7, r1, r3
30002dc4:	4a000023 	bmi	30002e58 <DrawLine+0xb4>
30002dc8:	e3570000 	cmp	r7, #0	; 0x0
30002dcc:	ba000036 	blt	30002eac <DrawLine+0x108>
30002dd0:	e1580007 	cmp	r8, r7
30002dd4:	ba00000f 	blt	30002e18 <DrawLine+0x74>
30002dd8:	e0883fa8 	add	r3, r8, r8, lsr #31
30002ddc:	e1500002 	cmp	r0, r2
30002de0:	e04740c3 	sub	r4, r7, r3, asr #1
30002de4:	c8bd8ff0 	ldmgtia	sp!, {r4, r5, r6, r7, r8, r9, sl, fp, pc}
30002de8:	e1a00005 	mov	r0, r5
30002dec:	e1a01006 	mov	r1, r6
30002df0:	e1a0200b 	mov	r2, fp
30002df4:	e2855001 	add	r5, r5, #1	; 0x1
30002df8:	ebffff28 	bl	30002aa0 <PutFbPixel>
30002dfc:	e3540000 	cmp	r4, #0	; 0x0
30002e00:	c0684004 	rsbgt	r4, r8, r4
30002e04:	c2866001 	addgt	r6, r6, #1	; 0x1
30002e08:	e155000a 	cmp	r5, sl
30002e0c:	e0844007 	add	r4, r4, r7
30002e10:	dafffff4 	ble	30002de8 <DrawLine+0x44>
30002e14:	e8bd8ff0 	ldmia	sp!, {r4, r5, r6, r7, r8, r9, sl, fp, pc}
30002e18:	e1510003 	cmp	r1, r3
30002e1c:	e0873fa7 	add	r3, r7, r7, lsr #31
30002e20:	e04840c3 	sub	r4, r8, r3, asr #1
30002e24:	c8bd8ff0 	ldmgtia	sp!, {r4, r5, r6, r7, r8, r9, sl, fp, pc}
30002e28:	e1a00005 	mov	r0, r5
30002e2c:	e1a01006 	mov	r1, r6
30002e30:	e1a0200b 	mov	r2, fp
30002e34:	e2866001 	add	r6, r6, #1	; 0x1
30002e38:	ebffff18 	bl	30002aa0 <PutFbPixel>
30002e3c:	e3540000 	cmp	r4, #0	; 0x0
30002e40:	c0674004 	rsbgt	r4, r7, r4
30002e44:	c2855001 	addgt	r5, r5, #1	; 0x1
30002e48:	e1560009 	cmp	r6, r9
30002e4c:	e0844008 	add	r4, r4, r8
30002e50:	dafffff4 	ble	30002e28 <DrawLine+0x84>
30002e54:	e8bd8ff0 	ldmia	sp!, {r4, r5, r6, r7, r8, r9, sl, fp, pc}
30002e58:	e3570000 	cmp	r7, #0	; 0x0
30002e5c:	e2688000 	rsb	r8, r8, #0	; 0x0
30002e60:	ba000044 	blt	30002f78 <DrawLine+0x1d4>
30002e64:	e1580007 	cmp	r8, r7
30002e68:	ba000022 	blt	30002ef8 <DrawLine+0x154>
30002e6c:	e0883fa8 	add	r3, r8, r8, lsr #31
30002e70:	e1500002 	cmp	r0, r2
30002e74:	e04740c3 	sub	r4, r7, r3, asr #1
30002e78:	b8bd8ff0 	ldmltia	sp!, {r4, r5, r6, r7, r8, r9, sl, fp, pc}
30002e7c:	e1a00005 	mov	r0, r5
30002e80:	e1a01006 	mov	r1, r6
30002e84:	e1a0200b 	mov	r2, fp
30002e88:	e2455001 	sub	r5, r5, #1	; 0x1
30002e8c:	ebffff03 	bl	30002aa0 <PutFbPixel>
30002e90:	e3540000 	cmp	r4, #0	; 0x0
30002e94:	c0684004 	rsbgt	r4, r8, r4
30002e98:	c2866001 	addgt	r6, r6, #1	; 0x1
30002e9c:	e155000a 	cmp	r5, sl
30002ea0:	e0844007 	add	r4, r4, r7
30002ea4:	aafffff4 	bge	30002e7c <DrawLine+0xd8>
30002ea8:	e8bd8ff0 	ldmia	sp!, {r4, r5, r6, r7, r8, r9, sl, fp, pc}
30002eac:	e2677000 	rsb	r7, r7, #0	; 0x0
30002eb0:	e1580007 	cmp	r8, r7
30002eb4:	ba00001f 	blt	30002f38 <DrawLine+0x194>
30002eb8:	e0883fa8 	add	r3, r8, r8, lsr #31
30002ebc:	e1500002 	cmp	r0, r2
30002ec0:	e04740c3 	sub	r4, r7, r3, asr #1
30002ec4:	c8bd8ff0 	ldmgtia	sp!, {r4, r5, r6, r7, r8, r9, sl, fp, pc}
30002ec8:	e1a00005 	mov	r0, r5
30002ecc:	e1a01006 	mov	r1, r6
30002ed0:	e1a0200b 	mov	r2, fp
30002ed4:	e2855001 	add	r5, r5, #1	; 0x1
30002ed8:	ebfffef0 	bl	30002aa0 <PutFbPixel>
30002edc:	e3540000 	cmp	r4, #0	; 0x0
30002ee0:	c0684004 	rsbgt	r4, r8, r4
30002ee4:	c2466001 	subgt	r6, r6, #1	; 0x1
30002ee8:	e155000a 	cmp	r5, sl
30002eec:	e0844007 	add	r4, r4, r7
30002ef0:	dafffff4 	ble	30002ec8 <DrawLine+0x124>
30002ef4:	e8bd8ff0 	ldmia	sp!, {r4, r5, r6, r7, r8, r9, sl, fp, pc}
30002ef8:	e1510003 	cmp	r1, r3
30002efc:	e0873fa7 	add	r3, r7, r7, lsr #31
30002f00:	e04840c3 	sub	r4, r8, r3, asr #1
30002f04:	c8bd8ff0 	ldmgtia	sp!, {r4, r5, r6, r7, r8, r9, sl, fp, pc}
30002f08:	e1a00005 	mov	r0, r5
30002f0c:	e1a01006 	mov	r1, r6
30002f10:	e1a0200b 	mov	r2, fp
30002f14:	e2866001 	add	r6, r6, #1	; 0x1
30002f18:	ebfffee0 	bl	30002aa0 <PutFbPixel>
30002f1c:	e3540000 	cmp	r4, #0	; 0x0
30002f20:	c0674004 	rsbgt	r4, r7, r4
30002f24:	c2455001 	subgt	r5, r5, #1	; 0x1
30002f28:	e1560009 	cmp	r6, r9
30002f2c:	e0844008 	add	r4, r4, r8
30002f30:	dafffff4 	ble	30002f08 <DrawLine+0x164>
30002f34:	e8bd8ff0 	ldmia	sp!, {r4, r5, r6, r7, r8, r9, sl, fp, pc}
30002f38:	e1510003 	cmp	r1, r3
30002f3c:	e0873fa7 	add	r3, r7, r7, lsr #31
30002f40:	e04840c3 	sub	r4, r8, r3, asr #1
30002f44:	b8bd8ff0 	ldmltia	sp!, {r4, r5, r6, r7, r8, r9, sl, fp, pc}
30002f48:	e1a00005 	mov	r0, r5
30002f4c:	e1a01006 	mov	r1, r6
30002f50:	e1a0200b 	mov	r2, fp
30002f54:	e2466001 	sub	r6, r6, #1	; 0x1
30002f58:	ebfffed0 	bl	30002aa0 <PutFbPixel>
30002f5c:	e3540000 	cmp	r4, #0	; 0x0
30002f60:	c0674004 	rsbgt	r4, r7, r4
30002f64:	c2855001 	addgt	r5, r5, #1	; 0x1
30002f68:	e1560009 	cmp	r6, r9
30002f6c:	e0844008 	add	r4, r4, r8
30002f70:	aafffff4 	bge	30002f48 <DrawLine+0x1a4>
30002f74:	e8bd8ff0 	ldmia	sp!, {r4, r5, r6, r7, r8, r9, sl, fp, pc}
30002f78:	e2677000 	rsb	r7, r7, #0	; 0x0
30002f7c:	e1580007 	cmp	r8, r7
30002f80:	ba00000f 	blt	30002fc4 <DrawLine+0x220>
30002f84:	e0883fa8 	add	r3, r8, r8, lsr #31
30002f88:	e1500002 	cmp	r0, r2
30002f8c:	e04740c3 	sub	r4, r7, r3, asr #1
30002f90:	b8bd8ff0 	ldmltia	sp!, {r4, r5, r6, r7, r8, r9, sl, fp, pc}
30002f94:	e1a00005 	mov	r0, r5
30002f98:	e1a01006 	mov	r1, r6
30002f9c:	e1a0200b 	mov	r2, fp
30002fa0:	e2455001 	sub	r5, r5, #1	; 0x1
30002fa4:	ebfffebd 	bl	30002aa0 <PutFbPixel>
30002fa8:	e3540000 	cmp	r4, #0	; 0x0
30002fac:	c0684004 	rsbgt	r4, r8, r4
30002fb0:	c2466001 	subgt	r6, r6, #1	; 0x1
30002fb4:	e155000a 	cmp	r5, sl
30002fb8:	e0844007 	add	r4, r4, r7
30002fbc:	aafffff4 	bge	30002f94 <DrawLine+0x1f0>
30002fc0:	e8bd8ff0 	ldmia	sp!, {r4, r5, r6, r7, r8, r9, sl, fp, pc}
30002fc4:	e1510003 	cmp	r1, r3
30002fc8:	e0873fa7 	add	r3, r7, r7, lsr #31
30002fcc:	e04840c3 	sub	r4, r8, r3, asr #1
30002fd0:	b8bd8ff0 	ldmltia	sp!, {r4, r5, r6, r7, r8, r9, sl, fp, pc}
30002fd4:	e1a00005 	mov	r0, r5
30002fd8:	e1a01006 	mov	r1, r6
30002fdc:	e1a0200b 	mov	r2, fp
30002fe0:	e2466001 	sub	r6, r6, #1	; 0x1
30002fe4:	ebfffead 	bl	30002aa0 <PutFbPixel>
30002fe8:	e3540000 	cmp	r4, #0	; 0x0
30002fec:	c0674004 	rsbgt	r4, r7, r4
30002ff0:	c2455001 	subgt	r5, r5, #1	; 0x1
30002ff4:	e1560009 	cmp	r6, r9
30002ff8:	e0844008 	add	r4, r4, r8
30002ffc:	aafffff4 	bge	30002fd4 <DrawLine+0x230>
30003000:	e8bd8ff0 	ldmia	sp!, {r4, r5, r6, r7, r8, r9, sl, fp, pc}

30003004 <FbDispCross>:
30003004:	e92d4070 	stmdb	sp!, {r4, r5, r6, lr}
30003008:	e1a04000 	mov	r4, r0
3000300c:	e24dd004 	sub	sp, sp, #4	; 0x4
30003010:	e1a05001 	mov	r5, r1
30003014:	e1a06002 	mov	r6, r2
30003018:	e1a03001 	mov	r3, r1
3000301c:	e284200a 	add	r2, r4, #10	; 0xa
30003020:	e240000a 	sub	r0, r0, #10	; 0xa
30003024:	e58d6000 	str	r6, [sp]
30003028:	ebffff5d 	bl	30002da4 <DrawLine>
3000302c:	e1a00004 	mov	r0, r4
30003030:	e285300a 	add	r3, r5, #10	; 0xa
30003034:	e245100a 	sub	r1, r5, #10	; 0xa
30003038:	e1a02004 	mov	r2, r4
3000303c:	e58d6000 	str	r6, [sp]
30003040:	ebffff57 	bl	30002da4 <DrawLine>
30003044:	e28dd004 	add	sp, sp, #4	; 0x4
30003048:	e8bd8070 	ldmia	sp!, {r4, r5, r6, pc}

3000304c <InitFont>:
3000304c:	e59f000c 	ldr	r0, [pc, #12]	; 30003060 <.text+0x3060>
30003050:	e59f100c 	ldr	r1, [pc, #12]	; 30003064 <.text+0x3064>
30003054:	e59f200c 	ldr	r2, [pc, #12]	; 30003068 <.text+0x3068>
30003058:	e59f300c 	ldr	r3, [pc, #12]	; 3000306c <.text+0x306c>
3000305c:	eafffd02 	b	3000246c <GetLcdParams>
30003060:	300050e0 	andcc	r5, r0, r0, ror #1
30003064:	300050e4 	andcc	r5, r0, r4, ror #1
30003068:	300050e8 	andcc	r5, r0, r8, ror #1
3000306c:	300050ec 	andcc	r5, r0, ip, ror #1

30003070 <PrintFbChar8x16>:
30003070:	e92d4ff0 	stmdb	sp!, {r4, r5, r6, r7, r8, r9, sl, fp, lr}
30003074:	e1a02202 	mov	r2, r2, lsl #4
30003078:	e1a06001 	mov	r6, r1
3000307c:	e24dd004 	sub	sp, sp, #4	; 0x4
30003080:	e59f1070 	ldr	r1, [pc, #112]	; 300030f8 <.text+0x30f8>
30003084:	e2022eff 	and	r2, r2, #4080	; 0xff0
30003088:	e58d0000 	str	r0, [sp]
3000308c:	e0829001 	add	r9, r2, r1
30003090:	e1a0a003 	mov	sl, r3
30003094:	e286b010 	add	fp, r6, #16	; 0x10
30003098:	e2808008 	add	r8, r0, #8	; 0x8
3000309c:	e59d4000 	ldr	r4, [sp]
300030a0:	e1580004 	cmp	r8, r4
300030a4:	e4d97001 	ldrb	r7, [r9], #1
300030a8:	e3a05007 	mov	r5, #7	; 0x7
300030ac:	da000009 	ble	300030d8 <PrintFbChar8x16+0x68>
300030b0:	e1a03557 	mov	r3, r7, asr r5
300030b4:	e3130001 	tst	r3, #1	; 0x1
300030b8:	e1a00004 	mov	r0, r4
300030bc:	e2455001 	sub	r5, r5, #1	; 0x1
300030c0:	e2844001 	add	r4, r4, #1	; 0x1
300030c4:	e1a01006 	mov	r1, r6
300030c8:	e1a0200a 	mov	r2, sl
300030cc:	1a000006 	bne	300030ec <PrintFbChar8x16+0x7c>
300030d0:	e1580004 	cmp	r8, r4
300030d4:	cafffff5 	bgt	300030b0 <PrintFbChar8x16+0x40>
300030d8:	e2866001 	add	r6, r6, #1	; 0x1
300030dc:	e15b0006 	cmp	fp, r6
300030e0:	caffffed 	bgt	3000309c <PrintFbChar8x16+0x2c>
300030e4:	e28dd004 	add	sp, sp, #4	; 0x4
300030e8:	e8bd8ff0 	ldmia	sp!, {r4, r5, r6, r7, r8, r9, sl, fp, pc}
300030ec:	ebfffe6b 	bl	30002aa0 <PutFbPixel>
300030f0:	e1580004 	cmp	r8, r4
300030f4:	eafffff6 	b	300030d4 <PrintFbChar8x16+0x64>
300030f8:	30003b78 	andcc	r3, r0, r8, ror fp

300030fc <PrintFbString8x16>:
300030fc:	e92d41f0 	stmdb	sp!, {r4, r5, r6, r7, r8, lr}
30003100:	e1a07002 	mov	r7, r2
30003104:	e5d22000 	ldrb	r2, [r2]
30003108:	e3520000 	cmp	r2, #0	; 0x0
3000310c:	e1a04000 	mov	r4, r0
30003110:	e1a05001 	mov	r5, r1
30003114:	e1a08003 	mov	r8, r3
30003118:	e3a06000 	mov	r6, #0	; 0x0
3000311c:	08bd81f0 	ldmeqia	sp!, {r4, r5, r6, r7, r8, pc}
30003120:	e1a0c002 	mov	ip, r2
30003124:	e35c000a 	cmp	ip, #10	; 0xa
30003128:	02855010 	addeq	r5, r5, #16	; 0x10
3000312c:	0a00000d 	beq	30003168 <PrintFbString8x16+0x6c>
30003130:	e35c000d 	cmp	ip, #13	; 0xd
30003134:	e1a00004 	mov	r0, r4
30003138:	e1a0200c 	mov	r2, ip
3000313c:	e1a01005 	mov	r1, r5
30003140:	e1a03008 	mov	r3, r8
30003144:	e2844008 	add	r4, r4, #8	; 0x8
30003148:	0a000005 	beq	30003164 <PrintFbString8x16+0x68>
3000314c:	ebffffc7 	bl	30003070 <PrintFbChar8x16>
30003150:	e59f3024 	ldr	r3, [pc, #36]	; 3000317c <.text+0x317c>
30003154:	e5932000 	ldr	r2, [r3]
30003158:	e1540002 	cmp	r4, r2
3000315c:	ba000001 	blt	30003168 <PrintFbString8x16+0x6c>
30003160:	e2855010 	add	r5, r5, #16	; 0x10
30003164:	e3a04000 	mov	r4, #0	; 0x0
30003168:	e2866001 	add	r6, r6, #1	; 0x1
3000316c:	e7d7c006 	ldrb	ip, [r7, r6]
30003170:	e35c0000 	cmp	ip, #0	; 0x0
30003174:	1affffea 	bne	30003124 <PrintFbString8x16+0x28>
30003178:	e8bd81f0 	ldmia	sp!, {r4, r5, r6, r7, r8, pc}
3000317c:	300050e4 	andcc	r5, r0, r4, ror #1

30003180 <InitLed>:
30003180:	e3a03456 	mov	r3, #1442840576	; 0x56000000
30003184:	e5932050 	ldr	r2, [r3, #80]
30003188:	e3c22c3f 	bic	r2, r2, #16128	; 0x3f00
3000318c:	e5832050 	str	r2, [r3, #80]
30003190:	e5931050 	ldr	r1, [r3, #80]
30003194:	e3a00000 	mov	r0, #0	; 0x0
30003198:	e3811c15 	orr	r1, r1, #5376	; 0x1500
3000319c:	e5831050 	str	r1, [r3, #80]
300031a0:	e1a0f00e 	mov	pc, lr

300031a4 <LEDTest>:
300031a4:	e92d4070 	stmdb	sp!, {r4, r5, r6, lr}
300031a8:	e3a04000 	mov	r4, #0	; 0x0
300031ac:	e1a06004 	mov	r6, r4
300031b0:	e3a05456 	mov	r5, #1442840576	; 0x56000000
300031b4:	e5953054 	ldr	r3, [r5, #84]
300031b8:	e3c33070 	bic	r3, r3, #112	; 0x70
300031bc:	e5853054 	str	r3, [r5, #84]
300031c0:	e5952054 	ldr	r2, [r5, #84]
300031c4:	e2066007 	and	r6, r6, #7	; 0x7
300031c8:	e1822206 	orr	r2, r2, r6, lsl #4
300031cc:	e3a00b61 	mov	r0, #99328	; 0x18400
300031d0:	e2800e2a 	add	r0, r0, #672	; 0x2a0
300031d4:	e5852054 	str	r2, [r5, #84]
300031d8:	ebfff972 	bl	300017a8 <Delay>
300031dc:	e1e04004 	mvn	r4, r4
300031e0:	e2844001 	add	r4, r4, #1	; 0x1
300031e4:	e3540008 	cmp	r4, #8	; 0x8
300031e8:	02444008 	subeq	r4, r4, #8	; 0x8
300031ec:	eafffff0 	b	300031b4 <LEDTest+0x10>

300031f0 <__subdf3>:
300031f0:	e2222102 	eor	r2, r2, #-2147483648	; 0x80000000

300031f4 <__adddf3>:
300031f4:	e1310003 	teq	r1, r3
300031f8:	0020c002 	eoreq	ip, r0, r2
300031fc:	033c0102 	teqeq	ip, #-2147483648	; 0x80000000
30003200:	0a00009e 	beq	30003480 <__adddf3+0x28c>
30003204:	e191c080 	orrs	ip, r1, r0, lsl #1
30003208:	01a01003 	moveq	r1, r3
3000320c:	01a00002 	moveq	r0, r2
30003210:	1193c082 	orrnes	ip, r3, r2, lsl #1
30003214:	01a0f00e 	moveq	pc, lr
30003218:	e92d4030 	stmdb	sp!, {r4, r5, lr}
3000321c:	e3a0c47f 	mov	ip, #2130706432	; 0x7f000000
30003220:	e38cc60f 	orr	ip, ip, #15728640	; 0xf00000
30003224:	e000400c 	and	r4, r0, ip
30003228:	e002500c 	and	r5, r2, ip
3000322c:	e134000c 	teq	r4, ip
30003230:	1135000c 	teqne	r5, ip
30003234:	0a00009c 	beq	300034ac <__adddf3+0x2b8>
30003238:	e0555004 	subs	r5, r5, r4
3000323c:	b2655000 	rsblt	r5, r5, #0	; 0x0
30003240:	da000006 	ble	30003260 <__adddf3+0x6c>
30003244:	e0844005 	add	r4, r4, r5
30003248:	e0213003 	eor	r3, r1, r3
3000324c:	e0202002 	eor	r2, r0, r2
30003250:	e0231001 	eor	r1, r3, r1
30003254:	e0220000 	eor	r0, r2, r0
30003258:	e0213003 	eor	r3, r1, r3
3000325c:	e0202002 	eor	r2, r0, r2
30003260:	e3550636 	cmp	r5, #56623104	; 0x3600000
30003264:	88bd8030 	ldmhiia	sp!, {r4, r5, pc}
30003268:	e3100102 	tst	r0, #-2147483648	; 0x80000000
3000326c:	e1c0008c 	bic	r0, r0, ip, lsl #1
30003270:	e3800601 	orr	r0, r0, #1048576	; 0x100000
30003274:	0a000001 	beq	30003280 <__adddf3+0x8c>
30003278:	e2711000 	rsbs	r1, r1, #0	; 0x0
3000327c:	e2e00000 	rsc	r0, r0, #0	; 0x0
30003280:	e3120102 	tst	r2, #-2147483648	; 0x80000000
30003284:	e1c2208c 	bic	r2, r2, ip, lsl #1
30003288:	e3822601 	orr	r2, r2, #1048576	; 0x100000
3000328c:	0a000001 	beq	30003298 <__adddf3+0xa4>
30003290:	e2733000 	rsbs	r3, r3, #0	; 0x0
30003294:	e2e22000 	rsc	r2, r2, #0	; 0x0
30003298:	e1340005 	teq	r4, r5
3000329c:	0a000071 	beq	30003468 <__adddf3+0x274>
300032a0:	e3a0c000 	mov	ip, #0	; 0x0
300032a4:	e1b05a25 	movs	r5, r5, lsr #20
300032a8:	0a000013 	beq	300032fc <__adddf3+0x108>
300032ac:	e3340601 	teq	r4, #1048576	; 0x100000
300032b0:	0a000004 	beq	300032c8 <__adddf3+0xd4>
300032b4:	e1b01081 	movs	r1, r1, lsl #1
300032b8:	e0ac0080 	adc	r0, ip, r0, lsl #1
300032bc:	e2444601 	sub	r4, r4, #1048576	; 0x100000
300032c0:	e2555001 	subs	r5, r5, #1	; 0x1
300032c4:	0a00000c 	beq	300032fc <__adddf3+0x108>
300032c8:	e275e020 	rsbs	lr, r5, #32	; 0x20
300032cc:	ba000004 	blt	300032e4 <__adddf3+0xf0>
300032d0:	e1a0ce13 	mov	ip, r3, lsl lr
300032d4:	e1a03533 	mov	r3, r3, lsr r5
300032d8:	e1833e12 	orr	r3, r3, r2, lsl lr
300032dc:	e1a02552 	mov	r2, r2, asr r5
300032e0:	ea000005 	b	300032fc <__adddf3+0x108>
300032e4:	e2455020 	sub	r5, r5, #32	; 0x20
300032e8:	e28ee020 	add	lr, lr, #32	; 0x20
300032ec:	e3530001 	cmp	r3, #1	; 0x1
300032f0:	e0acce12 	adc	ip, ip, r2, lsl lr
300032f4:	e1a03552 	mov	r3, r2, asr r5
300032f8:	e1a02042 	mov	r2, r2, asr #32
300032fc:	e0911003 	adds	r1, r1, r3
30003300:	e0a00002 	adc	r0, r0, r2
30003304:	e2105102 	ands	r5, r0, #-2147483648	; 0x80000000
30003308:	5a000002 	bpl	30003318 <__adddf3+0x124>
3000330c:	e27cc000 	rsbs	ip, ip, #0	; 0x0
30003310:	e2f11000 	rscs	r1, r1, #0	; 0x0
30003314:	e2e00000 	rsc	r0, r0, #0	; 0x0
30003318:	e3500601 	cmp	r0, #1048576	; 0x100000
3000331c:	3a000019 	bcc	30003388 <__adddf3+0x194>
30003320:	e3500602 	cmp	r0, #2097152	; 0x200000
30003324:	3a00000b 	bcc	30003358 <__adddf3+0x164>
30003328:	e3500501 	cmp	r0, #4194304	; 0x400000
3000332c:	3a000004 	bcc	30003344 <__adddf3+0x150>
30003330:	e1b000a0 	movs	r0, r0, lsr #1
30003334:	e1b01061 	movs	r1, r1, rrx
30003338:	e1b0c06c 	movs	ip, ip, rrx
3000333c:	238cc001 	orrcs	ip, ip, #1	; 0x1
30003340:	e2844601 	add	r4, r4, #1048576	; 0x100000
30003344:	e1b000a0 	movs	r0, r0, lsr #1
30003348:	e1b01061 	movs	r1, r1, rrx
3000334c:	e1b0c06c 	movs	ip, ip, rrx
30003350:	238cc001 	orrcs	ip, ip, #1	; 0x1
30003354:	e2844601 	add	r4, r4, #1048576	; 0x100000
30003358:	e0911fac 	adds	r1, r1, ip, lsr #31
3000335c:	e2a00000 	adc	r0, r0, #0	; 0x0
30003360:	e33c0102 	teq	ip, #-2147483648	; 0x80000000
30003364:	03c11001 	biceq	r1, r1, #1	; 0x1
30003368:	e3100602 	tst	r0, #2097152	; 0x200000
3000336c:	12844601 	addne	r4, r4, #1048576	; 0x100000
30003370:	e294c601 	adds	ip, r4, #1048576	; 0x100000
30003374:	4a000048 	bmi	3000349c <__adddf3+0x2a8>
30003378:	e3c00603 	bic	r0, r0, #3145728	; 0x300000
3000337c:	e1800004 	orr	r0, r0, r4
30003380:	e1800005 	orr	r0, r0, r5
30003384:	e8bd8030 	ldmia	sp!, {r4, r5, pc}
30003388:	e3300000 	teq	r0, #0	; 0x0
3000338c:	13e0300a 	mvnne	r3, #10	; 0xa
30003390:	03a03015 	moveq	r3, #21	; 0x15
30003394:	01a00001 	moveq	r0, r1
30003398:	03a01000 	moveq	r1, #0	; 0x0
3000339c:	e1a02000 	mov	r2, r0
300033a0:	e1b0c820 	movs	ip, r0, lsr #16
300033a4:	01a02802 	moveq	r2, r2, lsl #16
300033a8:	02833010 	addeq	r3, r3, #16	; 0x10
300033ac:	e31204ff 	tst	r2, #-16777216	; 0xff000000
300033b0:	01a02402 	moveq	r2, r2, lsl #8
300033b4:	02833008 	addeq	r3, r3, #8	; 0x8
300033b8:	e312020f 	tst	r2, #-268435456	; 0xf0000000
300033bc:	01a02202 	moveq	r2, r2, lsl #4
300033c0:	02833004 	addeq	r3, r3, #4	; 0x4
300033c4:	e3120103 	tst	r2, #-1073741824	; 0xc0000000
300033c8:	01a02102 	moveq	r2, r2, lsl #2
300033cc:	02833002 	addeq	r3, r3, #2	; 0x2
300033d0:	e3120102 	tst	r2, #-2147483648	; 0x80000000
300033d4:	02833001 	addeq	r3, r3, #1	; 0x1
300033d8:	e2532020 	subs	r2, r3, #32	; 0x20
300033dc:	aa000007 	bge	30003400 <__adddf3+0x20c>
300033e0:	e292200c 	adds	r2, r2, #12	; 0xc
300033e4:	da000004 	ble	300033fc <__adddf3+0x208>
300033e8:	e282c014 	add	ip, r2, #20	; 0x14
300033ec:	e262200c 	rsb	r2, r2, #12	; 0xc
300033f0:	e1a01c10 	mov	r1, r0, lsl ip
300033f4:	e1a00230 	mov	r0, r0, lsr r2
300033f8:	ea000004 	b	30003410 <__adddf3+0x21c>
300033fc:	e2822014 	add	r2, r2, #20	; 0x14
30003400:	d262c020 	rsble	ip, r2, #32	; 0x20
30003404:	e1a00210 	mov	r0, r0, lsl r2
30003408:	d1800c31 	orrle	r0, r0, r1, lsr ip
3000340c:	d1a01211 	movle	r1, r1, lsl r2
30003410:	e0544a03 	subs	r4, r4, r3, lsl #20
30003414:	caffffd7 	bgt	30003378 <__adddf3+0x184>
30003418:	e1e04a44 	mvn	r4, r4, asr #20
3000341c:	e254401e 	subs	r4, r4, #30	; 0x1e
30003420:	aa00000d 	bge	3000345c <__adddf3+0x268>
30003424:	e294400c 	adds	r4, r4, #12	; 0xc
30003428:	ca000005 	bgt	30003444 <__adddf3+0x250>
3000342c:	e2844014 	add	r4, r4, #20	; 0x14
30003430:	e2642020 	rsb	r2, r4, #32	; 0x20
30003434:	e1a01431 	mov	r1, r1, lsr r4
30003438:	e1811210 	orr	r1, r1, r0, lsl r2
3000343c:	e1850430 	orr	r0, r5, r0, lsr r4
30003440:	e8bd8030 	ldmia	sp!, {r4, r5, pc}
30003444:	e264400c 	rsb	r4, r4, #12	; 0xc
30003448:	e2642020 	rsb	r2, r4, #32	; 0x20
3000344c:	e1a01231 	mov	r1, r1, lsr r2
30003450:	e1811410 	orr	r1, r1, r0, lsl r4
30003454:	e1a00005 	mov	r0, r5
30003458:	e8bd8030 	ldmia	sp!, {r4, r5, pc}
3000345c:	e1a01430 	mov	r1, r0, lsr r4
30003460:	e1a00005 	mov	r0, r5
30003464:	e8bd8030 	ldmia	sp!, {r4, r5, pc}
30003468:	e3340000 	teq	r4, #0	; 0x0
3000346c:	02200601 	eoreq	r0, r0, #1048576	; 0x100000
30003470:	02844601 	addeq	r4, r4, #1048576	; 0x100000
30003474:	e2222601 	eor	r2, r2, #1048576	; 0x100000
30003478:	12455601 	subne	r5, r5, #1048576	; 0x100000
3000347c:	eaffff87 	b	300032a0 <__adddf3+0xac>
30003480:	e24cc601 	sub	ip, ip, #1048576	; 0x100000
30003484:	e000200c 	and	r2, r0, ip
30003488:	e132000c 	teq	r2, ip
3000348c:	038c0702 	orreq	r0, ip, #524288	; 0x80000
30003490:	13a00000 	movne	r0, #0	; 0x0
30003494:	e3a01000 	mov	r1, #0	; 0x0
30003498:	e1a0f00e 	mov	pc, lr
3000349c:	e385047f 	orr	r0, r5, #2130706432	; 0x7f000000
300034a0:	e380060f 	orr	r0, r0, #15728640	; 0xf00000
300034a4:	e3a01000 	mov	r1, #0	; 0x0
300034a8:	e8bd8030 	ldmia	sp!, {r4, r5, pc}
300034ac:	e134000c 	teq	r4, ip
300034b0:	11a00002 	movne	r0, r2
300034b4:	11a01003 	movne	r1, r3
300034b8:	0135000c 	teqeq	r5, ip
300034bc:	18bd8030 	ldmneia	sp!, {r4, r5, pc}
300034c0:	e1914600 	orrs	r4, r1, r0, lsl #12
300034c4:	01934602 	orreqs	r4, r3, r2, lsl #12
300034c8:	01300002 	teqeq	r0, r2
300034cc:	13850702 	orrne	r0, r5, #524288	; 0x80000
300034d0:	13a01000 	movne	r1, #0	; 0x0
300034d4:	e8bd8030 	ldmia	sp!, {r4, r5, pc}

300034d8 <__floatunsidf>:
300034d8:	e3300000 	teq	r0, #0	; 0x0
300034dc:	03a01000 	moveq	r1, #0	; 0x0
300034e0:	01a0f00e 	moveq	pc, lr
300034e4:	e92d4030 	stmdb	sp!, {r4, r5, lr}
300034e8:	e3a04101 	mov	r4, #1073741824	; 0x40000000
300034ec:	e2844633 	add	r4, r4, #53477376	; 0x3300000
300034f0:	e3a05000 	mov	r5, #0	; 0x0
300034f4:	e1a01000 	mov	r1, r0
300034f8:	e3a00000 	mov	r0, #0	; 0x0
300034fc:	eaffffa1 	b	30003388 <__adddf3+0x194>

30003500 <__floatsidf>:
30003500:	e3300000 	teq	r0, #0	; 0x0
30003504:	03a01000 	moveq	r1, #0	; 0x0
30003508:	01a0f00e 	moveq	pc, lr
3000350c:	e92d4030 	stmdb	sp!, {r4, r5, lr}
30003510:	e3a04101 	mov	r4, #1073741824	; 0x40000000
30003514:	e2844633 	add	r4, r4, #53477376	; 0x3300000
30003518:	e2105102 	ands	r5, r0, #-2147483648	; 0x80000000
3000351c:	42600000 	rsbmi	r0, r0, #0	; 0x0
30003520:	e1a01000 	mov	r1, r0
30003524:	e3a00000 	mov	r0, #0	; 0x0
30003528:	eaffff96 	b	30003388 <__adddf3+0x194>

3000352c <__extendsfdf2>:
3000352c:	e1b02080 	movs	r2, r0, lsl #1
30003530:	0a000007 	beq	30003554 <__extendsfdf2+0x28>
30003534:	e1a001c2 	mov	r0, r2, asr #3
30003538:	e1a00060 	mov	r0, r0, rrx
3000353c:	e1a01e02 	mov	r1, r2, lsl #28
30003540:	e21224ff 	ands	r2, r2, #-16777216	; 0xff000000
30003544:	0a000005 	beq	30003560 <__extendsfdf2+0x34>
30003548:	e33204ff 	teq	r2, #-16777216	; 0xff000000
3000354c:	1220030e 	eorne	r0, r0, #939524096	; 0x38000000
30003550:	e1a0f00e 	mov	pc, lr
30003554:	e1a00000 	nop			(mov r0,r0)
30003558:	e3a01000 	mov	r1, #0	; 0x0
3000355c:	e1a0f00e 	mov	pc, lr
30003560:	e92d4030 	stmdb	sp!, {r4, r5, lr}
30003564:	e3a0430e 	mov	r4, #939524096	; 0x38000000
30003568:	e2844601 	add	r4, r4, #1048576	; 0x100000
3000356c:	e2005102 	and	r5, r0, #-2147483648	; 0x80000000
30003570:	e3c00102 	bic	r0, r0, #-2147483648	; 0x80000000
30003574:	eaffff83 	b	30003388 <__adddf3+0x194>

30003578 <__muldf3>:
30003578:	e92d4070 	stmdb	sp!, {r4, r5, r6, lr}
3000357c:	e3a0c47f 	mov	ip, #2130706432	; 0x7f000000
30003580:	e38cc60f 	orr	ip, ip, #15728640	; 0xf00000
30003584:	e000400c 	and	r4, r0, ip
30003588:	e002500c 	and	r5, r2, ip
3000358c:	e134000c 	teq	r4, ip
30003590:	1135000c 	teqne	r5, ip
30003594:	0a0000a8 	beq	3000383c <__muldf3+0x2c4>
30003598:	e1916080 	orrs	r6, r1, r0, lsl #1
3000359c:	11936082 	orrnes	r6, r3, r2, lsl #1
300035a0:	0a00005e 	beq	30003720 <__muldf3+0x1a8>
300035a4:	e1b040a4 	movs	r4, r4, lsr #1
300035a8:	13350000 	teqne	r5, #0	; 0x0
300035ac:	0a00008e 	beq	300037ec <__muldf3+0x274>
300035b0:	e08440c5 	add	r4, r4, r5, asr #1
300035b4:	e1300002 	teq	r0, r2
300035b8:	43844902 	orrmi	r4, r4, #32768	; 0x8000
300035bc:	e1c0008c 	bic	r0, r0, ip, lsl #1
300035c0:	e1c2208c 	bic	r2, r2, ip, lsl #1
300035c4:	e3800601 	orr	r0, r0, #1048576	; 0x100000
300035c8:	e3822601 	orr	r2, r2, #1048576	; 0x100000
300035cc:	e92d0f80 	stmdb	sp!, {r7, r8, r9, sl, fp}
300035d0:	e1a07821 	mov	r7, r1, lsr #16
300035d4:	e1a08823 	mov	r8, r3, lsr #16
300035d8:	e1a09820 	mov	r9, r0, lsr #16
300035dc:	e1a0a822 	mov	sl, r2, lsr #16
300035e0:	e1c11807 	bic	r1, r1, r7, lsl #16
300035e4:	e1c33808 	bic	r3, r3, r8, lsl #16
300035e8:	e1c00809 	bic	r0, r0, r9, lsl #16
300035ec:	e1c2280a 	bic	r2, r2, sl, lsl #16
300035f0:	e00c0391 	mul	ip, r1, r3
300035f4:	e00b0891 	mul	fp, r1, r8
300035f8:	e3a0e000 	mov	lr, #0	; 0x0
300035fc:	e09cc80b 	adds	ip, ip, fp, lsl #16
30003600:	e0aee82b 	adc	lr, lr, fp, lsr #16
30003604:	e00b0397 	mul	fp, r7, r3
30003608:	e09cc80b 	adds	ip, ip, fp, lsl #16
3000360c:	e0aee82b 	adc	lr, lr, fp, lsr #16
30003610:	e00b0a91 	mul	fp, r1, sl
30003614:	e3a05000 	mov	r5, #0	; 0x0
30003618:	e09ee80b 	adds	lr, lr, fp, lsl #16
3000361c:	e0a5582b 	adc	r5, r5, fp, lsr #16
30003620:	e00b0297 	mul	fp, r7, r2
30003624:	e09ee80b 	adds	lr, lr, fp, lsl #16
30003628:	e0a5582b 	adc	r5, r5, fp, lsr #16
3000362c:	e00b0890 	mul	fp, r0, r8
30003630:	e09ee80b 	adds	lr, lr, fp, lsl #16
30003634:	e0a5582b 	adc	r5, r5, fp, lsr #16
30003638:	e00b0399 	mul	fp, r9, r3
3000363c:	e09ee80b 	adds	lr, lr, fp, lsl #16
30003640:	e0a5582b 	adc	r5, r5, fp, lsr #16
30003644:	e00b0a90 	mul	fp, r0, sl
30003648:	e0060a99 	mul	r6, r9, sl
3000364c:	e095580b 	adds	r5, r5, fp, lsl #16
30003650:	e0a6682b 	adc	r6, r6, fp, lsr #16
30003654:	e00b0299 	mul	fp, r9, r2
30003658:	e095580b 	adds	r5, r5, fp, lsl #16
3000365c:	e0a6682b 	adc	r6, r6, fp, lsr #16
30003660:	e00b0291 	mul	fp, r1, r2
30003664:	e09ee00b 	adds	lr, lr, fp
30003668:	e00b0a97 	mul	fp, r7, sl
3000366c:	e0b5500b 	adcs	r5, r5, fp
30003670:	e00b0390 	mul	fp, r0, r3
30003674:	e2a66000 	adc	r6, r6, #0	; 0x0
30003678:	e09ee00b 	adds	lr, lr, fp
3000367c:	e00b0899 	mul	fp, r9, r8
30003680:	e0b5500b 	adcs	r5, r5, fp
30003684:	e00b0897 	mul	fp, r7, r8
30003688:	e2a66000 	adc	r6, r6, #0	; 0x0
3000368c:	e09ee00b 	adds	lr, lr, fp
30003690:	e00b0290 	mul	fp, r0, r2
30003694:	e0b5500b 	adcs	r5, r5, fp
30003698:	e2a66000 	adc	r6, r6, #0	; 0x0
3000369c:	e8bd0f80 	ldmia	sp!, {r7, r8, r9, sl, fp}
300036a0:	e33c0000 	teq	ip, #0	; 0x0
300036a4:	138ee001 	orrne	lr, lr, #1	; 0x1
300036a8:	e1a00804 	mov	r0, r4, lsl #16
300036ac:	e3c44902 	bic	r4, r4, #32768	; 0x8000
300036b0:	e3160c02 	tst	r6, #512	; 0x200
300036b4:	0a000004 	beq	300036cc <__muldf3+0x154>
300036b8:	e2844702 	add	r4, r4, #524288	; 0x80000
300036bc:	e1b060a6 	movs	r6, r6, lsr #1
300036c0:	e1b05065 	movs	r5, r5, rrx
300036c4:	e1b0e06e 	movs	lr, lr, rrx
300036c8:	238ee001 	orrcs	lr, lr, #1	; 0x1
300036cc:	e1800606 	orr	r0, r0, r6, lsl #12
300036d0:	e1800a25 	orr	r0, r0, r5, lsr #20
300036d4:	e1a01605 	mov	r1, r5, lsl #12
300036d8:	e1811a2e 	orr	r1, r1, lr, lsr #20
300036dc:	e244473e 	sub	r4, r4, #16252928	; 0xf80000
300036e0:	e254441f 	subs	r4, r4, #520093696	; 0x1f000000
300036e4:	da000011 	ble	30003730 <__muldf3+0x1b8>
300036e8:	e1b0e60e 	movs	lr, lr, lsl #12
300036ec:	5a000005 	bpl	30003708 <__muldf3+0x190>
300036f0:	e2911001 	adds	r1, r1, #1	; 0x1
300036f4:	e2a00000 	adc	r0, r0, #0	; 0x0
300036f8:	e33e0102 	teq	lr, #-2147483648	; 0x80000000
300036fc:	03c11001 	biceq	r1, r1, #1	; 0x1
30003700:	e3100602 	tst	r0, #2097152	; 0x200000
30003704:	12844702 	addne	r4, r4, #524288	; 0x80000
30003708:	e294c702 	adds	ip, r4, #524288	; 0x80000
3000370c:	e31c0101 	tst	ip, #1073741824	; 0x40000000
30003710:	1a000055 	bne	3000386c <__muldf3+0x2f4>
30003714:	e3c00603 	bic	r0, r0, #3145728	; 0x300000
30003718:	e1800084 	orr	r0, r0, r4, lsl #1
3000371c:	e8bd8070 	ldmia	sp!, {r4, r5, r6, pc}
30003720:	e0200002 	eor	r0, r0, r2
30003724:	e2000102 	and	r0, r0, #-2147483648	; 0x80000000
30003728:	e3a01000 	mov	r1, #0	; 0x0
3000372c:	e8bd8070 	ldmia	sp!, {r4, r5, r6, pc}
30003730:	e374076a 	cmn	r4, #27787264	; 0x1a80000
30003734:	d3a01000 	movle	r1, #0	; 0x0
30003738:	d2000102 	andle	r0, r0, #-2147483648	; 0x80000000
3000373c:	d8bd8070 	ldmleia	sp!, {r4, r5, r6, pc}
30003740:	e1e049c4 	mvn	r4, r4, asr #19
30003744:	e254401e 	subs	r4, r4, #30	; 0x1e
30003748:	aa00001b 	bge	300037bc <__muldf3+0x244>
3000374c:	e294400c 	adds	r4, r4, #12	; 0xc
30003750:	ca00000d 	bgt	3000378c <__muldf3+0x214>
30003754:	e2844014 	add	r4, r4, #20	; 0x14
30003758:	e2645020 	rsb	r5, r4, #32	; 0x20
3000375c:	e1a03511 	mov	r3, r1, lsl r5
30003760:	e1a01431 	mov	r1, r1, lsr r4
30003764:	e1811510 	orr	r1, r1, r0, lsl r5
30003768:	e1b00080 	movs	r0, r0, lsl #1
3000376c:	e1a00430 	mov	r0, r0, lsr r4
30003770:	e1a00060 	mov	r0, r0, rrx
30003774:	e0911fa3 	adds	r1, r1, r3, lsr #31
30003778:	e2a00000 	adc	r0, r0, #0	; 0x0
3000377c:	e33e0000 	teq	lr, #0	; 0x0
30003780:	03330102 	teqeq	r3, #-2147483648	; 0x80000000
30003784:	03c11001 	biceq	r1, r1, #1	; 0x1
30003788:	e8bd8070 	ldmia	sp!, {r4, r5, r6, pc}
3000378c:	e264400c 	rsb	r4, r4, #12	; 0xc
30003790:	e2645020 	rsb	r5, r4, #32	; 0x20
30003794:	e1a03411 	mov	r3, r1, lsl r4
30003798:	e1a01531 	mov	r1, r1, lsr r5
3000379c:	e1811410 	orr	r1, r1, r0, lsl r4
300037a0:	e2000102 	and	r0, r0, #-2147483648	; 0x80000000
300037a4:	e0911fa3 	adds	r1, r1, r3, lsr #31
300037a8:	e2a00000 	adc	r0, r0, #0	; 0x0
300037ac:	e33e0000 	teq	lr, #0	; 0x0
300037b0:	03330102 	teqeq	r3, #-2147483648	; 0x80000000
300037b4:	03c11001 	biceq	r1, r1, #1	; 0x1
300037b8:	e8bd8070 	ldmia	sp!, {r4, r5, r6, pc}
300037bc:	e2645020 	rsb	r5, r4, #32	; 0x20
300037c0:	e1a06511 	mov	r6, r1, lsl r5
300037c4:	e1a03431 	mov	r3, r1, lsr r4
300037c8:	e1833510 	orr	r3, r3, r0, lsl r5
300037cc:	e1a01430 	mov	r1, r0, lsr r4
300037d0:	e2000102 	and	r0, r0, #-2147483648	; 0x80000000
300037d4:	e1c11430 	bic	r1, r1, r0, lsr r4
300037d8:	e0811fa3 	add	r1, r1, r3, lsr #31
300037dc:	e196600e 	orrs	r6, r6, lr
300037e0:	03330102 	teqeq	r3, #-2147483648	; 0x80000000
300037e4:	03c11001 	biceq	r1, r1, #1	; 0x1
300037e8:	e8bd8070 	ldmia	sp!, {r4, r5, r6, pc}
300037ec:	e3a0e000 	mov	lr, #0	; 0x0
300037f0:	e3340000 	teq	r4, #0	; 0x0
300037f4:	1a000008 	bne	3000381c <__muldf3+0x2a4>
300037f8:	e2006102 	and	r6, r0, #-2147483648	; 0x80000000
300037fc:	e1b01081 	movs	r1, r1, lsl #1
30003800:	e0ae0080 	adc	r0, lr, r0, lsl #1
30003804:	e3100601 	tst	r0, #1048576	; 0x100000
30003808:	02444702 	subeq	r4, r4, #524288	; 0x80000
3000380c:	0afffffa 	beq	300037fc <__muldf3+0x284>
30003810:	e1800006 	orr	r0, r0, r6
30003814:	e3350000 	teq	r5, #0	; 0x0
30003818:	1affff64 	bne	300035b0 <__muldf3+0x38>
3000381c:	e2026102 	and	r6, r2, #-2147483648	; 0x80000000
30003820:	e1b03083 	movs	r3, r3, lsl #1
30003824:	e0ae2082 	adc	r2, lr, r2, lsl #1
30003828:	e3120601 	tst	r2, #1048576	; 0x100000
3000382c:	02455601 	subeq	r5, r5, #1048576	; 0x100000
30003830:	0afffffa 	beq	30003820 <__muldf3+0x2a8>
30003834:	e1822006 	orr	r2, r2, r6
30003838:	eaffff5c 	b	300035b0 <__muldf3+0x38>
3000383c:	e1916080 	orrs	r6, r1, r0, lsl #1
30003840:	11936082 	orrnes	r6, r3, r2, lsl #1
30003844:	0a00000d 	beq	30003880 <__muldf3+0x308>
30003848:	e134000c 	teq	r4, ip
3000384c:	1a000001 	bne	30003858 <__muldf3+0x2e0>
30003850:	e1916600 	orrs	r6, r1, r0, lsl #12
30003854:	1a000009 	bne	30003880 <__muldf3+0x308>
30003858:	e135000c 	teq	r5, ip
3000385c:	1a000001 	bne	30003868 <__muldf3+0x2f0>
30003860:	e1936602 	orrs	r6, r3, r2, lsl #12
30003864:	1a000005 	bne	30003880 <__muldf3+0x308>
30003868:	e0200002 	eor	r0, r0, r2
3000386c:	e2000102 	and	r0, r0, #-2147483648	; 0x80000000
30003870:	e380047f 	orr	r0, r0, #2130706432	; 0x7f000000
30003874:	e380060f 	orr	r0, r0, #15728640	; 0xf00000
30003878:	e3a01000 	mov	r1, #0	; 0x0
3000387c:	e8bd8070 	ldmia	sp!, {r4, r5, r6, pc}
30003880:	e3a0047f 	mov	r0, #2130706432	; 0x7f000000
30003884:	e380073e 	orr	r0, r0, #16252928	; 0xf80000
30003888:	e8bd8070 	ldmia	sp!, {r4, r5, r6, pc}

3000388c <__divdf3>:
3000388c:	e92d4070 	stmdb	sp!, {r4, r5, r6, lr}
30003890:	e3a0c47f 	mov	ip, #2130706432	; 0x7f000000
30003894:	e38cc60f 	orr	ip, ip, #15728640	; 0xf00000
30003898:	e000400c 	and	r4, r0, ip
3000389c:	e002500c 	and	r5, r2, ip
300038a0:	e134000c 	teq	r4, ip
300038a4:	1135000c 	teqne	r5, ip
300038a8:	11916080 	orrnes	r6, r1, r0, lsl #1
300038ac:	11936082 	orrnes	r6, r3, r2, lsl #1
300038b0:	0a00007e 	beq	30003ab0 <__divdf3+0x224>
300038b4:	e1b040a4 	movs	r4, r4, lsr #1
300038b8:	13350000 	teqne	r5, #0	; 0x0
300038bc:	0a000067 	beq	30003a60 <__divdf3+0x1d4>
300038c0:	e04440c5 	sub	r4, r4, r5, asr #1
300038c4:	e020e002 	eor	lr, r0, r2
300038c8:	e3a05201 	mov	r5, #268435456	; 0x10000000
300038cc:	e1a02602 	mov	r2, r2, lsl #12
300038d0:	e1852222 	orr	r2, r5, r2, lsr #4
300038d4:	e1822c23 	orr	r2, r2, r3, lsr #24
300038d8:	e1b03403 	movs	r3, r3, lsl #8
300038dc:	e1a00600 	mov	r0, r0, lsl #12
300038e0:	01320005 	teqeq	r2, r5
300038e4:	0a00004d 	beq	30003a20 <__divdf3+0x194>
300038e8:	e1855220 	orr	r5, r5, r0, lsr #4
300038ec:	e1855c21 	orr	r5, r5, r1, lsr #24
300038f0:	e1a06401 	mov	r6, r1, lsl #8
300038f4:	e20e0102 	and	r0, lr, #-2147483648	; 0x80000000
300038f8:	e1550002 	cmp	r5, r2
300038fc:	01560003 	cmpeq	r6, r3
30003900:	2a000002 	bcs	30003910 <__divdf3+0x84>
30003904:	e2444702 	sub	r4, r4, #524288	; 0x80000
30003908:	e1b020a2 	movs	r2, r2, lsr #1
3000390c:	e1a03063 	mov	r3, r3, rrx
30003910:	e284441f 	add	r4, r4, #520093696	; 0x1f000000
30003914:	e284473e 	add	r4, r4, #16252928	; 0xf80000
30003918:	e374076a 	cmn	r4, #27787264	; 0x1a80000
3000391c:	daffff80 	ble	30003724 <__muldf3+0x1ac>
30003920:	e15400ac 	cmp	r4, ip, lsr #1
30003924:	aaffffd0 	bge	3000386c <__muldf3+0x2f4>
30003928:	e0566003 	subs	r6, r6, r3
3000392c:	e0c55002 	sbc	r5, r5, r2
30003930:	e1b020a2 	movs	r2, r2, lsr #1
30003934:	e1a03063 	mov	r3, r3, rrx
30003938:	e3a01601 	mov	r1, #1048576	; 0x100000
3000393c:	e3a0c702 	mov	ip, #524288	; 0x80000
30003940:	e056e003 	subs	lr, r6, r3
30003944:	e0d5e002 	sbcs	lr, r5, r2
30003948:	20466003 	subcs	r6, r6, r3
3000394c:	21a0500e 	movcs	r5, lr
30003950:	2181100c 	orrcs	r1, r1, ip
30003954:	e1b020a2 	movs	r2, r2, lsr #1
30003958:	e1a03063 	mov	r3, r3, rrx
3000395c:	e056e003 	subs	lr, r6, r3
30003960:	e0d5e002 	sbcs	lr, r5, r2
30003964:	20466003 	subcs	r6, r6, r3
30003968:	21a0500e 	movcs	r5, lr
3000396c:	218110ac 	orrcs	r1, r1, ip, lsr #1
30003970:	e1b020a2 	movs	r2, r2, lsr #1
30003974:	e1a03063 	mov	r3, r3, rrx
30003978:	e056e003 	subs	lr, r6, r3
3000397c:	e0d5e002 	sbcs	lr, r5, r2
30003980:	20466003 	subcs	r6, r6, r3
30003984:	21a0500e 	movcs	r5, lr
30003988:	2181112c 	orrcs	r1, r1, ip, lsr #2
3000398c:	e1b020a2 	movs	r2, r2, lsr #1
30003990:	e1a03063 	mov	r3, r3, rrx
30003994:	e056e003 	subs	lr, r6, r3
30003998:	e0d5e002 	sbcs	lr, r5, r2
3000399c:	20466003 	subcs	r6, r6, r3
300039a0:	21a0500e 	movcs	r5, lr
300039a4:	218111ac 	orrcs	r1, r1, ip, lsr #3
300039a8:	e195e006 	orrs	lr, r5, r6
300039ac:	0a00000d 	beq	300039e8 <__divdf3+0x15c>
300039b0:	e1a05205 	mov	r5, r5, lsl #4
300039b4:	e1855e26 	orr	r5, r5, r6, lsr #28
300039b8:	e1a06206 	mov	r6, r6, lsl #4
300039bc:	e1a02182 	mov	r2, r2, lsl #3
300039c0:	e1822ea3 	orr	r2, r2, r3, lsr #29
300039c4:	e1a03183 	mov	r3, r3, lsl #3
300039c8:	e1b0c22c 	movs	ip, ip, lsr #4
300039cc:	1affffdb 	bne	30003940 <__divdf3+0xb4>
300039d0:	e3100601 	tst	r0, #1048576	; 0x100000
300039d4:	1a000006 	bne	300039f4 <__divdf3+0x168>
300039d8:	e1800001 	orr	r0, r0, r1
300039dc:	e3a01000 	mov	r1, #0	; 0x0
300039e0:	e3a0c102 	mov	ip, #-2147483648	; 0x80000000
300039e4:	eaffffd5 	b	30003940 <__divdf3+0xb4>
300039e8:	e3100601 	tst	r0, #1048576	; 0x100000
300039ec:	01800001 	orreq	r0, r0, r1
300039f0:	03a01000 	moveq	r1, #0	; 0x0
300039f4:	e3540000 	cmp	r4, #0	; 0x0
300039f8:	da000016 	ble	30003a58 <__divdf3+0x1cc>
300039fc:	e055c002 	subs	ip, r5, r2
30003a00:	0056c003 	subeqs	ip, r6, r3
30003a04:	e2b11000 	adcs	r1, r1, #0	; 0x0
30003a08:	e2a00000 	adc	r0, r0, #0	; 0x0
30003a0c:	e33c0000 	teq	ip, #0	; 0x0
30003a10:	03c11001 	biceq	r1, r1, #1	; 0x1
30003a14:	e3c00601 	bic	r0, r0, #1048576	; 0x100000
30003a18:	e1800084 	orr	r0, r0, r4, lsl #1
30003a1c:	e8bd8070 	ldmia	sp!, {r4, r5, r6, pc}
30003a20:	e20ee102 	and	lr, lr, #-2147483648	; 0x80000000
30003a24:	e18e0620 	orr	r0, lr, r0, lsr #12
30003a28:	e284441f 	add	r4, r4, #520093696	; 0x1f000000
30003a2c:	e284473e 	add	r4, r4, #16252928	; 0xf80000
30003a30:	e15400ac 	cmp	r4, ip, lsr #1
30003a34:	aaffff8c 	bge	3000386c <__muldf3+0x2f4>
30003a38:	e3540000 	cmp	r4, #0	; 0x0
30003a3c:	c1800084 	orrgt	r0, r0, r4, lsl #1
30003a40:	c8bd8070 	ldmgtia	sp!, {r4, r5, r6, pc}
30003a44:	e374076a 	cmn	r4, #27787264	; 0x1a80000
30003a48:	daffff35 	ble	30003724 <__muldf3+0x1ac>
30003a4c:	e3800601 	orr	r0, r0, #1048576	; 0x100000
30003a50:	e3a0e000 	mov	lr, #0	; 0x0
30003a54:	eaffff39 	b	30003740 <__muldf3+0x1c8>
30003a58:	e185e006 	orr	lr, r5, r6
30003a5c:	eaffff37 	b	30003740 <__muldf3+0x1c8>
30003a60:	e3a0e000 	mov	lr, #0	; 0x0
30003a64:	e3340000 	teq	r4, #0	; 0x0
30003a68:	1a000008 	bne	30003a90 <__divdf3+0x204>
30003a6c:	e2006102 	and	r6, r0, #-2147483648	; 0x80000000
30003a70:	e1b01081 	movs	r1, r1, lsl #1
30003a74:	e0ae0080 	adc	r0, lr, r0, lsl #1
30003a78:	e3100601 	tst	r0, #1048576	; 0x100000
30003a7c:	02444702 	subeq	r4, r4, #524288	; 0x80000
30003a80:	0afffffa 	beq	30003a70 <__divdf3+0x1e4>
30003a84:	e1800006 	orr	r0, r0, r6
30003a88:	e3350000 	teq	r5, #0	; 0x0
30003a8c:	1affff8b 	bne	300038c0 <__divdf3+0x34>
30003a90:	e2026102 	and	r6, r2, #-2147483648	; 0x80000000
30003a94:	e1b03083 	movs	r3, r3, lsl #1
30003a98:	e0ae2082 	adc	r2, lr, r2, lsl #1
30003a9c:	e3120601 	tst	r2, #1048576	; 0x100000
30003aa0:	02455601 	subeq	r5, r5, #1048576	; 0x100000
30003aa4:	0afffffa 	beq	30003a94 <__divdf3+0x208>
30003aa8:	e1822006 	orr	r2, r2, r6
30003aac:	eaffff83 	b	300038c0 <__divdf3+0x34>
30003ab0:	e134000c 	teq	r4, ip
30003ab4:	0135000c 	teqeq	r5, ip
30003ab8:	0affff70 	beq	30003880 <__muldf3+0x308>
30003abc:	e134000c 	teq	r4, ip
30003ac0:	1a000002 	bne	30003ad0 <__divdf3+0x244>
30003ac4:	e1914600 	orrs	r4, r1, r0, lsl #12
30003ac8:	1affff6c 	bne	30003880 <__muldf3+0x308>
30003acc:	eaffff65 	b	30003868 <__muldf3+0x2f0>
30003ad0:	e135000c 	teq	r5, ip
30003ad4:	1a000002 	bne	30003ae4 <__divdf3+0x258>
30003ad8:	e1935602 	orrs	r5, r3, r2, lsl #12
30003adc:	1affff67 	bne	30003880 <__muldf3+0x308>
30003ae0:	eaffff0e 	b	30003720 <__muldf3+0x1a8>
30003ae4:	e1914080 	orrs	r4, r1, r0, lsl #1
30003ae8:	1affff5e 	bne	30003868 <__muldf3+0x2f0>
30003aec:	e1935082 	orrs	r5, r3, r2, lsl #1
30003af0:	1affff0a 	bne	30003720 <__muldf3+0x1a8>
30003af4:	eaffff61 	b	30003880 <__muldf3+0x308>

30003af8 <__fixdfsi>:
30003af8:	e191c080 	orrs	ip, r1, r0, lsl #1
30003afc:	0a000014 	beq	30003b54 <__fixdfsi+0x5c>
30003b00:	e1a03063 	mov	r3, r3, rrx
30003b04:	e3a0c47f 	mov	ip, #2130706432	; 0x7f000000
30003b08:	e38cc60f 	orr	ip, ip, #15728640	; 0xf00000
30003b0c:	e000200c 	and	r2, r0, ip
30003b10:	e132000c 	teq	r2, ip
30003b14:	0a000010 	beq	30003b5c <__fixdfsi+0x64>
30003b18:	e3ccc101 	bic	ip, ip, #1073741824	; 0x40000000
30003b1c:	e152000c 	cmp	r2, ip
30003b20:	3a00000b 	bcc	30003b54 <__fixdfsi+0x5c>
30003b24:	e28cc61f 	add	ip, ip, #32505856	; 0x1f00000
30003b28:	e152000c 	cmp	r2, ip
30003b2c:	2a00000c 	bcs	30003b64 <__fixdfsi+0x6c>
30003b30:	e062200c 	rsb	r2, r2, ip
30003b34:	e1a0c580 	mov	ip, r0, lsl #11
30003b38:	e38cc102 	orr	ip, ip, #-2147483648	; 0x80000000
30003b3c:	e18ccaa1 	orr	ip, ip, r1, lsr #21
30003b40:	e1a02a22 	mov	r2, r2, lsr #20
30003b44:	e3130102 	tst	r3, #-2147483648	; 0x80000000
30003b48:	e1a0023c 	mov	r0, ip, lsr r2
30003b4c:	12600000 	rsbne	r0, r0, #0	; 0x0
30003b50:	e1a0f00e 	mov	pc, lr
30003b54:	e3a00000 	mov	r0, #0	; 0x0
30003b58:	e1a0f00e 	mov	pc, lr
30003b5c:	e1911600 	orrs	r1, r1, r0, lsl #12
30003b60:	1a000002 	bne	30003b70 <__fixdfsi+0x78>
30003b64:	e2130102 	ands	r0, r3, #-2147483648	; 0x80000000
30003b68:	03e00102 	mvneq	r0, #-2147483648	; 0x80000000
30003b6c:	e1a0f00e 	mov	pc, lr
30003b70:	e3a00000 	mov	r0, #0	; 0x0
30003b74:	e1a0f00e 	mov	pc, lr
Disassembly of section .rodata:

30003b78 <fontdata_8x16>:
	...
30003b88:	817e0000 	cmnhi	lr, r0
30003b8c:	bd8181a5 	stfltd	f0, [r1, #660]
30003b90:	7e818199 	mcrvc	1, 4, r8, cr1, cr9, {4}
30003b94:	00000000 	andeq	r0, r0, r0
30003b98:	ff7e0000 	swinv	0x007e0000
30003b9c:	c3ffffdb 	mvngts	pc, #876	; 0x36c
30003ba0:	7effffe7 	cdpvc	15, 15, cr15, cr15, cr7, {7}
	...
30003bac:	fefefe6c 	cdp2	14, 15, cr15, cr14, cr12, {3}
30003bb0:	10387cfe 	ldrnesh	r7, [r8], -lr
	...
30003bbc:	fe7c3810 	mrc2	8, 3, r3, cr12, cr0, {0}
30003bc0:	0010387c 	andeqs	r3, r0, ip, ror r8
30003bc4:	00000000 	andeq	r0, r0, r0
30003bc8:	18000000 	stmneda	r0, {}
30003bcc:	e7e73c3c 	undefined
30003bd0:	3c1818e7 	ldccc	8, cr1, [r8], {231}
30003bd4:	00000000 	andeq	r0, r0, r0
30003bd8:	18000000 	stmneda	r0, {}
30003bdc:	ffff7e3c 	swinv	0x00ff7e3c
30003be0:	3c18187e 	ldccc	8, cr1, [r8], {126}
	...
30003bec:	3c180000 	ldccc	0, cr0, [r8], {0}
30003bf0:	0000183c 	andeq	r1, r0, ip, lsr r8
30003bf4:	00000000 	andeq	r0, r0, r0
30003bf8:	ffffffff 	swinv	0x00ffffff
30003bfc:	c3e7ffff 	mvngt	pc, #1020	; 0x3fc
30003c00:	ffffe7c3 	swinv	0x00ffe7c3
30003c04:	ffffffff 	swinv	0x00ffffff
30003c08:	00000000 	andeq	r0, r0, r0
30003c0c:	42663c00 	rsbmi	r3, r6, #0	; 0x0
30003c10:	003c6642 	eoreqs	r6, ip, r2, asr #12
30003c14:	00000000 	andeq	r0, r0, r0
30003c18:	ffffffff 	swinv	0x00ffffff
30003c1c:	bd99c3ff 	ldclt	3, cr12, [r9, #1020]
30003c20:	ffc399bd 	swinv	0x00c399bd
30003c24:	ffffffff 	swinv	0x00ffffff
30003c28:	0e1e0000 	wxoreq	wr0, wr14, wr0
30003c2c:	cc78321a 	lfmgt	f3, 2, [r8], #-104
30003c30:	78cccccc 	stmvcia	ip, {r2, r3, r6, r7, sl, fp, lr, pc}^
30003c34:	00000000 	andeq	r0, r0, r0
30003c38:	663c0000 	ldrvst	r0, [ip], -r0
30003c3c:	3c666666 	stcccl	6, cr6, [r6], #-408
30003c40:	18187e18 	ldmneda	r8, {r3, r4, r9, sl, fp, ip, sp, lr}
30003c44:	00000000 	andeq	r0, r0, r0
30003c48:	333f0000 	teqcc	pc, #0	; 0x0
30003c4c:	3030303f 	eorccs	r3, r0, pc, lsr r0
30003c50:	e0f07030 	rscs	r7, r0, r0, lsr r0
30003c54:	00000000 	andeq	r0, r0, r0
30003c58:	637f0000 	cmnvs	pc, #0	; 0x0
30003c5c:	6363637f 	cmnvs	r3, #-67108863	; 0xfc000001
30003c60:	e6e76763 	strbt	r6, [r7], r3, ror #14
30003c64:	000000c0 	andeq	r0, r0, r0, asr #1
30003c68:	18000000 	stmneda	r0, {}
30003c6c:	e73cdb18 	undefined
30003c70:	1818db3c 	ldmneda	r8, {r2, r3, r4, r5, r8, r9, fp, ip, lr, pc}
30003c74:	00000000 	andeq	r0, r0, r0
30003c78:	e0c08000 	sbc	r8, r0, r0
30003c7c:	f8fef8f0 	ldmnvia	lr!, {r4, r5, r6, r7, fp, ip, sp, lr, pc}^
30003c80:	80c0e0f0 	strhid	lr, [r0]
30003c84:	00000000 	andeq	r0, r0, r0
30003c88:	0e060200 	cdpeq	2, 0, cr0, cr6, cr0, {0}
30003c8c:	3efe3e1e 	mrccc	14, 7, r3, cr14, cr14, {0}
30003c90:	02060e1e 	andeq	r0, r6, #480	; 0x1e0
30003c94:	00000000 	andeq	r0, r0, r0
30003c98:	3c180000 	ldccc	0, cr0, [r8], {0}
30003c9c:	1818187e 	ldmneda	r8, {r1, r2, r3, r4, r5, r6, fp, ip}
30003ca0:	00183c7e 	andeqs	r3, r8, lr, ror ip
30003ca4:	00000000 	andeq	r0, r0, r0
30003ca8:	66660000 	strvsbt	r0, [r6], -r0
30003cac:	66666666 	strvsbt	r6, [r6], -r6, ror #12
30003cb0:	66660066 	strvsbt	r0, [r6], -r6, rrx
30003cb4:	00000000 	andeq	r0, r0, r0
30003cb8:	db7f0000 	blle	31fc3cc0 <_end+0x1fbea50>
30003cbc:	1b7bdbdb 	blne	31efac30 <_end+0x1ef59c0>
30003cc0:	1b1b1b1b 	blne	306ca934 <_end+0x6c56c4>
30003cc4:	00000000 	andeq	r0, r0, r0
30003cc8:	60c67c00 	sbcvs	r7, r6, r0, lsl #24
30003ccc:	c6c66c38 	undefined
30003cd0:	c60c386c 	strgt	r3, [ip], -ip, ror #16
30003cd4:	0000007c 	andeq	r0, r0, ip, ror r0
	...
30003ce0:	fefefefe 	mrc2	14, 7, pc, cr14, cr14, {7}
30003ce4:	00000000 	andeq	r0, r0, r0
30003ce8:	3c180000 	ldccc	0, cr0, [r8], {0}
30003cec:	1818187e 	ldmneda	r8, {r1, r2, r3, r4, r5, r6, fp, ip}
30003cf0:	7e183c7e 	mrcvc	12, 0, r3, cr8, cr14, {3}
30003cf4:	00000000 	andeq	r0, r0, r0
30003cf8:	3c180000 	ldccc	0, cr0, [r8], {0}
30003cfc:	1818187e 	ldmneda	r8, {r1, r2, r3, r4, r5, r6, fp, ip}
30003d00:	18181818 	ldmneda	r8, {r3, r4, fp, ip}
30003d04:	00000000 	andeq	r0, r0, r0
30003d08:	18180000 	ldmneda	r8, {}
30003d0c:	18181818 	ldmneda	r8, {r3, r4, fp, ip}
30003d10:	183c7e18 	ldmneda	ip!, {r3, r4, r9, sl, fp, ip, sp, lr}
	...
30003d1c:	fe0c1800 	cdp2	8, 0, cr1, cr12, cr0, {0}
30003d20:	0000180c 	andeq	r1, r0, ip, lsl #16
	...
30003d2c:	fe603000 	cdp2	0, 6, cr3, cr0, cr0, {0}
30003d30:	00003060 	andeq	r3, r0, r0, rrx
	...
30003d3c:	c0c00000 	sbcgt	r0, r0, r0
30003d40:	0000fec0 	andeq	pc, r0, r0, asr #29
	...
30003d4c:	fe6c2800 	cdp2	8, 6, cr2, cr12, cr0, {0}
30003d50:	0000286c 	andeq	r2, r0, ip, ror #16
	...
30003d5c:	7c383810 	ldcvc	8, cr3, [r8], #-64
30003d60:	00fefe7c 	rsceqs	pc, lr, ip, ror lr
	...
30003d6c:	7c7cfefe 	ldcvcl	14, cr15, [ip], #-1016
30003d70:	00103838 	andeqs	r3, r0, r8, lsr r8
	...
30003d88:	3c180000 	ldccc	0, cr0, [r8], {0}
30003d8c:	18183c3c 	ldmneda	r8, {r2, r3, r4, r5, sl, fp, ip, sp}
30003d90:	18180018 	ldmneda	r8, {r3, r4}
30003d94:	00000000 	andeq	r0, r0, r0
30003d98:	66666600 	strvsbt	r6, [r6], -r0, lsl #12
30003d9c:	00000024 	andeq	r0, r0, r4, lsr #32
	...
30003da8:	6c000000 	stcvs	0, cr0, [r0], {0}
30003dac:	6c6cfe6c 	stcvsl	14, cr15, [ip], #-432
30003db0:	6c6cfe6c 	stcvsl	14, cr15, [ip], #-432
30003db4:	00000000 	andeq	r0, r0, r0
30003db8:	c67c1818 	undefined
30003dbc:	067cc0c2 	ldreqbt	ip, [ip], -r2, asr #1
30003dc0:	7cc68606 	stcvcl	6, cr8, [r6], {6}
30003dc4:	00001818 	andeq	r1, r0, r8, lsl r8
30003dc8:	00000000 	andeq	r0, r0, r0
30003dcc:	180cc6c2 	stmneda	ip, {r1, r6, r7, r9, sl, lr, pc}
30003dd0:	86c66030 	undefined
30003dd4:	00000000 	andeq	r0, r0, r0
30003dd8:	6c380000 	ldcvs	0, cr0, [r8]
30003ddc:	dc76386c 	ldclel	8, cr3, [r6], #-432
30003de0:	76cccccc 	strvcb	ip, [ip], ip, asr #25
30003de4:	00000000 	andeq	r0, r0, r0
30003de8:	30303000 	eorccs	r3, r0, r0
30003dec:	00000060 	andeq	r0, r0, r0, rrx
	...
30003df8:	180c0000 	stmneda	ip, {}
30003dfc:	30303030 	eorccs	r3, r0, r0, lsr r0
30003e00:	0c183030 	ldceq	0, cr3, [r8], {48}
30003e04:	00000000 	andeq	r0, r0, r0
30003e08:	18300000 	ldmneda	r0!, {}
30003e0c:	0c0c0c0c 	stceq	12, cr0, [ip], {12}
30003e10:	30180c0c 	andccs	r0, r8, ip, lsl #24
	...
30003e1c:	ff3c6600 	swinv	0x003c6600
30003e20:	0000663c 	andeq	r6, r0, ip, lsr r6
	...
30003e2c:	7e181800 	cdpvc	8, 1, cr1, cr8, cr0, {0}
30003e30:	00001818 	andeq	r1, r0, r8, lsl r8
	...
30003e40:	18181800 	ldmneda	r8, {fp, ip}
30003e44:	00000030 	andeq	r0, r0, r0, lsr r0
30003e48:	00000000 	andeq	r0, r0, r0
30003e4c:	fe000000 	cdp2	0, 0, cr0, cr0, cr0, {0}
	...
30003e60:	18180000 	ldmneda	r8, {}
	...
30003e6c:	180c0602 	stmneda	ip, {r1, r9, sl}
30003e70:	80c06030 	sbchi	r6, r0, r0, lsr r0
30003e74:	00000000 	andeq	r0, r0, r0
30003e78:	6c380000 	ldcvs	0, cr0, [r8]
30003e7c:	d6d6c6c6 	ldrleb	ip, [r6], r6, asr #13
30003e80:	386cc6c6 	stmccda	ip!, {r1, r2, r6, r7, r9, sl, lr, pc}^
30003e84:	00000000 	andeq	r0, r0, r0
30003e88:	38180000 	ldmccda	r8, {}
30003e8c:	18181878 	ldmneda	r8, {r3, r4, r5, r6, fp, ip}
30003e90:	7e181818 	mrcvc	8, 0, r1, cr8, cr8, {0}
30003e94:	00000000 	andeq	r0, r0, r0
30003e98:	c67c0000 	ldrgtbt	r0, [ip], -r0
30003e9c:	30180c06 	andccs	r0, r8, r6, lsl #24
30003ea0:	fec6c060 	cdp2	0, 12, cr12, cr6, cr0, {3}
30003ea4:	00000000 	andeq	r0, r0, r0
30003ea8:	c67c0000 	ldrgtbt	r0, [ip], -r0
30003eac:	063c0606 	ldreqt	r0, [ip], -r6, lsl #12
30003eb0:	7cc60606 	stcvcl	6, cr0, [r6], {6}
30003eb4:	00000000 	andeq	r0, r0, r0
30003eb8:	1c0c0000 	stcne	0, cr0, [ip], {0}
30003ebc:	fecc6c3c 	mcr2	12, 6, r6, cr12, cr12, {1}
30003ec0:	1e0c0c0c 	cdpne	12, 0, cr0, cr12, cr12, {0}
30003ec4:	00000000 	andeq	r0, r0, r0
30003ec8:	c0fe0000 	rscgts	r0, lr, r0
30003ecc:	06fcc0c0 	ldreqbt	ip, [ip], r0, asr #1
30003ed0:	7cc60606 	stcvcl	6, cr0, [r6], {6}
30003ed4:	00000000 	andeq	r0, r0, r0
30003ed8:	60380000 	eorvss	r0, r8, r0
30003edc:	c6fcc0c0 	ldrgtbt	ip, [ip], r0, asr #1
30003ee0:	7cc6c6c6 	stcvcl	6, cr12, [r6], {198}
30003ee4:	00000000 	andeq	r0, r0, r0
30003ee8:	c6fe0000 	ldrgtbt	r0, [lr], r0
30003eec:	180c0606 	stmneda	ip, {r1, r2, r9, sl}
30003ef0:	30303030 	eorccs	r3, r0, r0, lsr r0
30003ef4:	00000000 	andeq	r0, r0, r0
30003ef8:	c67c0000 	ldrgtbt	r0, [ip], -r0
30003efc:	c67cc6c6 	ldrgtbt	ip, [ip], -r6, asr #13
30003f00:	7cc6c6c6 	stcvcl	6, cr12, [r6], {198}
30003f04:	00000000 	andeq	r0, r0, r0
30003f08:	c67c0000 	ldrgtbt	r0, [ip], -r0
30003f0c:	067ec6c6 	ldreqbt	ip, [lr], -r6, asr #13
30003f10:	780c0606 	stmvcda	ip, {r1, r2, r9, sl}
	...
30003f1c:	00001818 	andeq	r1, r0, r8, lsl r8
30003f20:	00181800 	andeqs	r1, r8, r0, lsl #16
	...
30003f2c:	00001818 	andeq	r1, r0, r8, lsl r8
30003f30:	30181800 	andccs	r1, r8, r0, lsl #16
30003f34:	00000000 	andeq	r0, r0, r0
30003f38:	06000000 	streq	r0, [r0], -r0
30003f3c:	6030180c 	eorvss	r1, r0, ip, lsl #16
30003f40:	060c1830 	undefined
	...
30003f4c:	00007e00 	andeq	r7, r0, r0, lsl #28
30003f50:	0000007e 	andeq	r0, r0, lr, ror r0
30003f54:	00000000 	andeq	r0, r0, r0
30003f58:	60000000 	andvs	r0, r0, r0
30003f5c:	060c1830 	undefined
30003f60:	6030180c 	eorvss	r1, r0, ip, lsl #16
30003f64:	00000000 	andeq	r0, r0, r0
30003f68:	c67c0000 	ldrgtbt	r0, [ip], -r0
30003f6c:	18180cc6 	ldmneda	r8, {r1, r2, r6, r7, sl, fp}
30003f70:	18180018 	ldmneda	r8, {r3, r4}
30003f74:	00000000 	andeq	r0, r0, r0
30003f78:	7c000000 	stcvc	0, cr0, [r0], {0}
30003f7c:	dedec6c6 	cdple	6, 13, cr12, cr14, cr6, {6}
30003f80:	7cc0dcde 	stcvcl	12, cr13, [r0], {222}
30003f84:	00000000 	andeq	r0, r0, r0
30003f88:	38100000 	ldmccda	r0, {}
30003f8c:	fec6c66c 	cdp2	6, 12, cr12, cr6, cr12, {3}
30003f90:	c6c6c6c6 	strgtb	ip, [r6], r6, asr #13
30003f94:	00000000 	andeq	r0, r0, r0
30003f98:	66fc0000 	ldrvsbt	r0, [ip], r0
30003f9c:	667c6666 	ldrvsbt	r6, [ip], -r6, ror #12
30003fa0:	fc666666 	stc2l	6, cr6, [r6], #-408
30003fa4:	00000000 	andeq	r0, r0, r0
30003fa8:	663c0000 	ldrvst	r0, [ip], -r0
30003fac:	c0c0c0c2 	sbcgt	ip, r0, r2, asr #1
30003fb0:	3c66c2c0 	sfmcc	f4, 3, [r6], #-768
30003fb4:	00000000 	andeq	r0, r0, r0
30003fb8:	6cf80000 	ldcvsl	0, cr0, [r8]
30003fbc:	66666666 	strvsbt	r6, [r6], -r6, ror #12
30003fc0:	f86c6666 	stmnvda	ip!, {r1, r2, r5, r6, r9, sl, sp, lr}^
30003fc4:	00000000 	andeq	r0, r0, r0
30003fc8:	66fe0000 	ldrvsbt	r0, [lr], r0
30003fcc:	68786862 	ldmvsda	r8!, {r1, r5, r6, fp, sp, lr}^
30003fd0:	fe666260 	cdp2	2, 6, cr6, cr6, cr0, {3}
30003fd4:	00000000 	andeq	r0, r0, r0
30003fd8:	66fe0000 	ldrvsbt	r0, [lr], r0
30003fdc:	68786862 	ldmvsda	r8!, {r1, r5, r6, fp, sp, lr}^
30003fe0:	f0606060 	rsbnv	r6, r0, r0, rrx
30003fe4:	00000000 	andeq	r0, r0, r0
30003fe8:	663c0000 	ldrvst	r0, [ip], -r0
30003fec:	dec0c0c2 	cdple	0, 12, cr12, cr0, cr2, {6}
30003ff0:	3a66c6c6 	bcc	319b5b10 <_end+0x19b08a0>
30003ff4:	00000000 	andeq	r0, r0, r0
30003ff8:	c6c60000 	strgtb	r0, [r6], r0
30003ffc:	c6fec6c6 	ldrgtbt	ip, [lr], r6, asr #13
30004000:	c6c6c6c6 	strgtb	ip, [r6], r6, asr #13
30004004:	00000000 	andeq	r0, r0, r0
30004008:	183c0000 	ldmneda	ip!, {}
3000400c:	18181818 	ldmneda	r8, {r3, r4, fp, ip}
30004010:	3c181818 	ldccc	8, cr1, [r8], {24}
30004014:	00000000 	andeq	r0, r0, r0
30004018:	0c1e0000 	ldceq	0, cr0, [lr], {0}
3000401c:	0c0c0c0c 	stceq	12, cr0, [ip], {12}
30004020:	78cccccc 	stmvcia	ip, {r2, r3, r6, r7, sl, fp, lr, pc}^
30004024:	00000000 	andeq	r0, r0, r0
30004028:	66e60000 	strvsbt	r0, [r6], r0
3000402c:	78786c66 	ldmvcda	r8!, {r1, r2, r5, r6, sl, fp, sp, lr}^
30004030:	e666666c 	strbt	r6, [r6], -ip, ror #12
30004034:	00000000 	andeq	r0, r0, r0
30004038:	60f00000 	rscvss	r0, r0, r0
3000403c:	60606060 	rsbvs	r6, r0, r0, rrx
30004040:	fe666260 	cdp2	2, 6, cr6, cr6, cr0, {3}
30004044:	00000000 	andeq	r0, r0, r0
30004048:	eec60000 	cdp	0, 12, cr0, cr6, cr0, {0}
3000404c:	c6d6fefe 	undefined
30004050:	c6c6c6c6 	strgtb	ip, [r6], r6, asr #13
30004054:	00000000 	andeq	r0, r0, r0
30004058:	e6c60000 	strb	r0, [r6], r0
3000405c:	cedefef6 	mrcgt	14, 6, pc, cr14, cr6, {7}
30004060:	c6c6c6c6 	strgtb	ip, [r6], r6, asr #13
30004064:	00000000 	andeq	r0, r0, r0
30004068:	c67c0000 	ldrgtbt	r0, [ip], -r0
3000406c:	c6c6c6c6 	strgtb	ip, [r6], r6, asr #13
30004070:	7cc6c6c6 	stcvcl	6, cr12, [r6], {198}
30004074:	00000000 	andeq	r0, r0, r0
30004078:	66fc0000 	ldrvsbt	r0, [ip], r0
3000407c:	607c6666 	rsbvss	r6, ip, r6, ror #12
30004080:	f0606060 	rsbnv	r6, r0, r0, rrx
30004084:	00000000 	andeq	r0, r0, r0
30004088:	c67c0000 	ldrgtbt	r0, [ip], -r0
3000408c:	c6c6c6c6 	strgtb	ip, [r6], r6, asr #13
30004090:	7cded6c6 	ldcvcl	6, cr13, [lr], {198}
30004094:	00000e0c 	andeq	r0, r0, ip, lsl #28
30004098:	66fc0000 	ldrvsbt	r0, [ip], r0
3000409c:	6c7c6666 	ldcvsl	6, cr6, [ip], #-408
300040a0:	e6666666 	strbt	r6, [r6], -r6, ror #12
300040a4:	00000000 	andeq	r0, r0, r0
300040a8:	c67c0000 	ldrgtbt	r0, [ip], -r0
300040ac:	0c3860c6 	ldceq	0, cr6, [r8], #-792
300040b0:	7cc6c606 	stcvcl	6, cr12, [r6], {6}
300040b4:	00000000 	andeq	r0, r0, r0
300040b8:	7e7e0000 	cdpvc	0, 7, cr0, cr14, cr0, {0}
300040bc:	1818185a 	ldmneda	r8, {r1, r3, r4, r6, fp, ip}
300040c0:	3c181818 	ldccc	8, cr1, [r8], {24}
300040c4:	00000000 	andeq	r0, r0, r0
300040c8:	c6c60000 	strgtb	r0, [r6], r0
300040cc:	c6c6c6c6 	strgtb	ip, [r6], r6, asr #13
300040d0:	7cc6c6c6 	stcvcl	6, cr12, [r6], {198}
300040d4:	00000000 	andeq	r0, r0, r0
300040d8:	c6c60000 	strgtb	r0, [r6], r0
300040dc:	c6c6c6c6 	strgtb	ip, [r6], r6, asr #13
300040e0:	10386cc6 	eornes	r6, r8, r6, asr #25
300040e4:	00000000 	andeq	r0, r0, r0
300040e8:	c6c60000 	strgtb	r0, [r6], r0
300040ec:	d6d6c6c6 	ldrleb	ip, [r6], r6, asr #13
300040f0:	6ceefed6 	stcvsl	14, cr15, [lr], #856
300040f4:	00000000 	andeq	r0, r0, r0
300040f8:	c6c60000 	strgtb	r0, [r6], r0
300040fc:	38387c6c 	ldmccda	r8!, {r2, r3, r5, r6, sl, fp, ip, sp, lr}
30004100:	c6c66c7c 	uxtab16gt	r6, r6, ip, ROR #24
30004104:	00000000 	andeq	r0, r0, r0
30004108:	66660000 	strvsbt	r0, [r6], -r0
3000410c:	183c6666 	ldmneda	ip!, {r1, r2, r5, r6, r9, sl, sp, lr}
30004110:	3c181818 	ldccc	8, cr1, [r8], {24}
30004114:	00000000 	andeq	r0, r0, r0
30004118:	c6fe0000 	ldrgtbt	r0, [lr], r0
3000411c:	30180c86 	andccs	r0, r8, r6, lsl #25
30004120:	fec6c260 	cdp2	2, 12, cr12, cr6, cr0, {3}
30004124:	00000000 	andeq	r0, r0, r0
30004128:	303c0000 	eorccs	r0, ip, r0
3000412c:	30303030 	eorccs	r3, r0, r0, lsr r0
30004130:	3c303030 	ldccc	0, cr3, [r0], #-192
30004134:	00000000 	andeq	r0, r0, r0
30004138:	80000000 	andhi	r0, r0, r0
3000413c:	3870e0c0 	ldmccda	r0!, {r6, r7, sp, lr, pc}^
30004140:	02060e1c 	andeq	r0, r6, #448	; 0x1c0
30004144:	00000000 	andeq	r0, r0, r0
30004148:	0c3c0000 	ldceq	0, cr0, [ip]
3000414c:	0c0c0c0c 	stceq	12, cr0, [ip], {12}
30004150:	3c0c0c0c 	stccc	12, cr0, [ip], {12}
30004154:	00000000 	andeq	r0, r0, r0
30004158:	c66c3810 	undefined
	...
30004174:	0000ff00 	andeq	pc, r0, r0, lsl #30
30004178:	0c183000 	ldceq	0, cr3, [r8], {0}
	...
3000418c:	7c0c7800 	stcvc	8, cr7, [ip], {0}
30004190:	76cccccc 	strvcb	ip, [ip], ip, asr #25
30004194:	00000000 	andeq	r0, r0, r0
30004198:	60e00000 	rscvs	r0, r0, r0
3000419c:	666c7860 	strvsbt	r7, [ip], -r0, ror #16
300041a0:	7c666666 	stcvcl	6, cr6, [r6], #-408
	...
300041ac:	c0c67c00 	sbcgt	r7, r6, r0, lsl #24
300041b0:	7cc6c0c0 	stcvcl	0, cr12, [r6], {192}
300041b4:	00000000 	andeq	r0, r0, r0
300041b8:	0c1c0000 	ldceq	0, cr0, [ip], {0}
300041bc:	cc6c3c0c 	stcgtl	12, cr3, [ip], #-48
300041c0:	76cccccc 	strvcb	ip, [ip], ip, asr #25
	...
300041cc:	fec67c00 	cdp2	12, 12, cr7, cr6, cr0, {0}
300041d0:	7cc6c0c0 	stcvcl	0, cr12, [r6], {192}
300041d4:	00000000 	andeq	r0, r0, r0
300041d8:	361c0000 	ldrcc	r0, [ip], -r0
300041dc:	30783032 	rsbccs	r3, r8, r2, lsr r0
300041e0:	78303030 	ldmvcda	r0!, {r4, r5, ip, sp}
	...
300041ec:	cccc7600 	stcgtl	6, cr7, [ip], {0}
300041f0:	7ccccccc 	stcvcl	12, cr12, [ip], {204}
300041f4:	0078cc0c 	rsbeqs	ip, r8, ip, lsl #24
300041f8:	60e00000 	rscvs	r0, r0, r0
300041fc:	66766c60 	ldrvsbt	r6, [r6], -r0, ror #24
30004200:	e6666666 	strbt	r6, [r6], -r6, ror #12
30004204:	00000000 	andeq	r0, r0, r0
30004208:	18180000 	ldmneda	r8, {}
3000420c:	18183800 	ldmneda	r8, {fp, ip, sp}
30004210:	3c181818 	ldccc	8, cr1, [r8], {24}
30004214:	00000000 	andeq	r0, r0, r0
30004218:	06060000 	streq	r0, [r6], -r0
3000421c:	06060e00 	streq	r0, [r6], -r0, lsl #28
30004220:	06060606 	streq	r0, [r6], -r6, lsl #12
30004224:	003c6666 	eoreqs	r6, ip, r6, ror #12
30004228:	60e00000 	rscvs	r0, r0, r0
3000422c:	786c6660 	stmvcda	ip!, {r5, r6, r9, sl, sp, lr}^
30004230:	e6666c78 	undefined
30004234:	00000000 	andeq	r0, r0, r0
30004238:	18380000 	ldmneda	r8!, {}
3000423c:	18181818 	ldmneda	r8, {r3, r4, fp, ip}
30004240:	3c181818 	ldccc	8, cr1, [r8], {24}
	...
3000424c:	d6feec00 	ldrlebt	lr, [lr], r0, lsl #24
30004250:	c6d6d6d6 	undefined
	...
3000425c:	6666dc00 	strvsbt	sp, [r6], -r0, lsl #24
30004260:	66666666 	strvsbt	r6, [r6], -r6, ror #12
	...
3000426c:	c6c67c00 	strgtb	r7, [r6], r0, lsl #24
30004270:	7cc6c6c6 	stcvcl	6, cr12, [r6], {198}
	...
3000427c:	6666dc00 	strvsbt	sp, [r6], -r0, lsl #24
30004280:	7c666666 	stcvcl	6, cr6, [r6], #-408
30004284:	00f06060 	rsceqs	r6, r0, r0, rrx
30004288:	00000000 	andeq	r0, r0, r0
3000428c:	cccc7600 	stcgtl	6, cr7, [ip], {0}
30004290:	7ccccccc 	stcvcl	12, cr12, [ip], {204}
30004294:	001e0c0c 	andeqs	r0, lr, ip, lsl #24
30004298:	00000000 	andeq	r0, r0, r0
3000429c:	6676dc00 	ldrvsbt	sp, [r6], -r0, lsl #24
300042a0:	f0606060 	rsbnv	r6, r0, r0, rrx
	...
300042ac:	60c67c00 	sbcvs	r7, r6, r0, lsl #24
300042b0:	7cc60c38 	stcvcl	12, cr0, [r6], {56}
300042b4:	00000000 	andeq	r0, r0, r0
300042b8:	30100000 	andccs	r0, r0, r0
300042bc:	3030fc30 	eorccs	pc, r0, r0, lsr ip
300042c0:	1c363030 	ldcne	0, cr3, [r6], #-192
	...
300042cc:	cccccc00 	stcgtl	12, cr12, [ip], {0}
300042d0:	76cccccc 	strvcb	ip, [ip], ip, asr #25
	...
300042dc:	c6c6c600 	strgtb	ip, [r6], r0, lsl #12
300042e0:	386cc6c6 	stmccda	ip!, {r1, r2, r6, r7, r9, sl, lr, pc}^
	...
300042ec:	d6c6c600 	strleb	ip, [r6], r0, lsl #12
300042f0:	6cfed6d6 	ldcvsl	6, cr13, [lr], #856
	...
300042fc:	386cc600 	stmccda	ip!, {r9, sl, lr, pc}^
30004300:	c66c3838 	undefined
	...
3000430c:	c6c6c600 	strgtb	ip, [r6], r0, lsl #12
30004310:	7ec6c6c6 	cdpvc	6, 12, cr12, cr6, cr6, {6}
30004314:	00f80c06 	rsceqs	r0, r8, r6, lsl #24
30004318:	00000000 	andeq	r0, r0, r0
3000431c:	18ccfe00 	stmneia	ip, {r9, sl, fp, ip, sp, lr, pc}^
30004320:	fec66030 	mcr2	0, 6, r6, cr6, cr0, {1}
30004324:	00000000 	andeq	r0, r0, r0
30004328:	180e0000 	stmneda	lr, {}
3000432c:	18701818 	ldmneda	r0!, {r3, r4, fp, ip}^
30004330:	0e181818 	mrceq	8, 0, r1, cr8, cr8, {0}
30004334:	00000000 	andeq	r0, r0, r0
30004338:	18180000 	ldmneda	r8, {}
3000433c:	18181818 	ldmneda	r8, {r3, r4, fp, ip}
30004340:	18181818 	ldmneda	r8, {r3, r4, fp, ip}
30004344:	00000000 	andeq	r0, r0, r0
30004348:	18700000 	ldmneda	r0!, {}^
3000434c:	180e1818 	stmneda	lr, {r3, r4, fp, ip}
30004350:	70181818 	andvcs	r1, r8, r8, lsl r8
30004354:	00000000 	andeq	r0, r0, r0
30004358:	00dc7600 	sbceqs	r7, ip, r0, lsl #12
	...
3000436c:	c66c3810 	undefined
30004370:	00fec6c6 	rsceqs	ip, lr, r6, asr #13
30004374:	00000000 	andeq	r0, r0, r0
30004378:	663c0000 	ldrvst	r0, [ip], -r0
3000437c:	c0c0c0c2 	sbcgt	ip, r0, r2, asr #1
30004380:	3c66c2c0 	sfmcc	f4, 3, [r6], #-768
30004384:	00007018 	andeq	r7, r0, r8, lsl r0
30004388:	00cc0000 	sbceq	r0, ip, r0
3000438c:	cccccc00 	stcgtl	12, cr12, [ip], {0}
30004390:	76cccccc 	strvcb	ip, [ip], ip, asr #25
30004394:	00000000 	andeq	r0, r0, r0
30004398:	30180c00 	andccs	r0, r8, r0, lsl #24
3000439c:	fec67c00 	cdp2	12, 12, cr7, cr6, cr0, {0}
300043a0:	7cc6c0c0 	stcvcl	0, cr12, [r6], {192}
300043a4:	00000000 	andeq	r0, r0, r0
300043a8:	6c381000 	ldcvs	0, cr1, [r8]
300043ac:	7c0c7800 	stcvc	8, cr7, [ip], {0}
300043b0:	76cccccc 	strvcb	ip, [ip], ip, asr #25
300043b4:	00000000 	andeq	r0, r0, r0
300043b8:	00cc0000 	sbceq	r0, ip, r0
300043bc:	7c0c7800 	stcvc	8, cr7, [ip], {0}
300043c0:	76cccccc 	strvcb	ip, [ip], ip, asr #25
300043c4:	00000000 	andeq	r0, r0, r0
300043c8:	18306000 	ldmneda	r0!, {sp, lr}
300043cc:	7c0c7800 	stcvc	8, cr7, [ip], {0}
300043d0:	76cccccc 	strvcb	ip, [ip], ip, asr #25
300043d4:	00000000 	andeq	r0, r0, r0
300043d8:	386c3800 	stmccda	ip!, {fp, ip, sp}^
300043dc:	7c0c7800 	stcvc	8, cr7, [ip], {0}
300043e0:	76cccccc 	strvcb	ip, [ip], ip, asr #25
	...
300043ec:	c0c67c00 	sbcgt	r7, r6, r0, lsl #24
300043f0:	7cc6c0c0 	stcvcl	0, cr12, [r6], {192}
300043f4:	00007018 	andeq	r7, r0, r8, lsl r0
300043f8:	6c381000 	ldcvs	0, cr1, [r8]
300043fc:	fec67c00 	cdp2	12, 12, cr7, cr6, cr0, {0}
30004400:	7cc6c0c0 	stcvcl	0, cr12, [r6], {192}
30004404:	00000000 	andeq	r0, r0, r0
30004408:	00c60000 	sbceq	r0, r6, r0
3000440c:	fec67c00 	cdp2	12, 12, cr7, cr6, cr0, {0}
30004410:	7cc6c0c0 	stcvcl	0, cr12, [r6], {192}
30004414:	00000000 	andeq	r0, r0, r0
30004418:	18306000 	ldmneda	r0!, {sp, lr}
3000441c:	fec67c00 	cdp2	12, 12, cr7, cr6, cr0, {0}
30004420:	7cc6c0c0 	stcvcl	0, cr12, [r6], {192}
30004424:	00000000 	andeq	r0, r0, r0
30004428:	00660000 	rsbeq	r0, r6, r0
3000442c:	18183800 	ldmneda	r8, {fp, ip, sp}
30004430:	3c181818 	ldccc	8, cr1, [r8], {24}
30004434:	00000000 	andeq	r0, r0, r0
30004438:	663c1800 	ldrvst	r1, [ip], -r0, lsl #16
3000443c:	18183800 	ldmneda	r8, {fp, ip, sp}
30004440:	3c181818 	ldccc	8, cr1, [r8], {24}
30004444:	00000000 	andeq	r0, r0, r0
30004448:	18306000 	ldmneda	r0!, {sp, lr}
3000444c:	18183800 	ldmneda	r8, {fp, ip, sp}
30004450:	3c181818 	ldccc	8, cr1, [r8], {24}
30004454:	00000000 	andeq	r0, r0, r0
30004458:	1000c600 	andne	ip, r0, r0, lsl #12
3000445c:	c6c66c38 	undefined
30004460:	c6c6c6fe 	undefined
30004464:	00000000 	andeq	r0, r0, r0
30004468:	10386c38 	eornes	r6, r8, r8, lsr ip
3000446c:	fec66c38 	mcr2	12, 6, r6, cr6, cr8, {1}
30004470:	c6c6c6c6 	strgtb	ip, [r6], r6, asr #13
30004474:	00000000 	andeq	r0, r0, r0
30004478:	fe00180c 	cdp2	8, 0, cr1, cr0, cr12, {0}
3000447c:	78686266 	stmvcda	r8!, {r1, r2, r5, r6, r9, sp, lr}^
30004480:	fe666268 	cdp2	2, 6, cr6, cr6, cr8, {3}
	...
3000448c:	3636ec00 	ldrcct	lr, [r6], -r0, lsl #24
30004490:	6ed8d87e 	mrcvs	8, 6, sp, cr8, cr14, {3}
30004494:	00000000 	andeq	r0, r0, r0
30004498:	6c3e0000 	ldcvs	0, cr0, [lr]
3000449c:	ccfecccc 	ldcgtl	12, cr12, [lr], #816
300044a0:	cecccccc 	cdpgt	12, 12, cr12, cr12, cr12, {6}
300044a4:	00000000 	andeq	r0, r0, r0
300044a8:	6c381000 	ldcvs	0, cr1, [r8]
300044ac:	c6c67c00 	strgtb	r7, [r6], r0, lsl #24
300044b0:	7cc6c6c6 	stcvcl	6, cr12, [r6], {198}
300044b4:	00000000 	andeq	r0, r0, r0
300044b8:	00c60000 	sbceq	r0, r6, r0
300044bc:	c6c67c00 	strgtb	r7, [r6], r0, lsl #24
300044c0:	7cc6c6c6 	stcvcl	6, cr12, [r6], {198}
300044c4:	00000000 	andeq	r0, r0, r0
300044c8:	18306000 	ldmneda	r0!, {sp, lr}
300044cc:	c6c67c00 	strgtb	r7, [r6], r0, lsl #24
300044d0:	7cc6c6c6 	stcvcl	6, cr12, [r6], {198}
300044d4:	00000000 	andeq	r0, r0, r0
300044d8:	cc783000 	ldcgtl	0, cr3, [r8]
300044dc:	cccccc00 	stcgtl	12, cr12, [ip], {0}
300044e0:	76cccccc 	strvcb	ip, [ip], ip, asr #25
300044e4:	00000000 	andeq	r0, r0, r0
300044e8:	18306000 	ldmneda	r0!, {sp, lr}
300044ec:	cccccc00 	stcgtl	12, cr12, [ip], {0}
300044f0:	76cccccc 	strvcb	ip, [ip], ip, asr #25
300044f4:	00000000 	andeq	r0, r0, r0
300044f8:	00c60000 	sbceq	r0, r6, r0
300044fc:	c6c6c600 	strgtb	ip, [r6], r0, lsl #12
30004500:	7ec6c6c6 	cdpvc	6, 12, cr12, cr6, cr6, {6}
30004504:	00780c06 	rsbeqs	r0, r8, r6, lsl #24
30004508:	7c00c600 	stcvc	6, cr12, [r0], {0}
3000450c:	c6c6c6c6 	strgtb	ip, [r6], r6, asr #13
30004510:	7cc6c6c6 	stcvcl	6, cr12, [r6], {198}
30004514:	00000000 	andeq	r0, r0, r0
30004518:	c600c600 	strgt	ip, [r0], -r0, lsl #12
3000451c:	c6c6c6c6 	strgtb	ip, [r6], r6, asr #13
30004520:	7cc6c6c6 	stcvcl	6, cr12, [r6], {198}
30004524:	00000000 	andeq	r0, r0, r0
30004528:	7c181800 	ldcvc	8, cr1, [r8], {0}
3000452c:	c0c0c0c6 	sbcgt	ip, r0, r6, asr #1
30004530:	18187cc6 	ldmneda	r8, {r1, r2, r6, r7, sl, fp, ip, sp, lr}
30004534:	00000000 	andeq	r0, r0, r0
30004538:	646c3800 	strvsbt	r3, [ip], #-2048
3000453c:	6060f060 	rsbvs	pc, r0, r0, rrx
30004540:	fce66060 	stc2l	0, cr6, [r6], #384
30004544:	00000000 	andeq	r0, r0, r0
30004548:	66660000 	strvsbt	r0, [r6], -r0
3000454c:	187e183c 	ldmneda	lr!, {r2, r3, r4, r5, fp, ip}^
30004550:	1818187e 	ldmneda	r8, {r1, r2, r3, r4, r5, r6, fp, ip}
30004554:	00000000 	andeq	r0, r0, r0
30004558:	ccccf800 	stcgtl	8, cr15, [ip], {0}
3000455c:	deccc4f8 	mcrle	4, 6, ip, cr12, cr8, {7}
30004560:	c6cccccc 	strgtb	ip, [ip], ip, asr #25
30004564:	00000000 	andeq	r0, r0, r0
30004568:	181b0e00 	ldmneda	fp, {r9, sl, fp}
3000456c:	187e1818 	ldmneda	lr!, {r3, r4, fp, ip}^
30004570:	70d81818 	sbcvcs	r1, r8, r8, lsl r8
30004574:	00000000 	andeq	r0, r0, r0
30004578:	60301800 	eorvss	r1, r0, r0, lsl #16
3000457c:	7c0c7800 	stcvc	8, cr7, [ip], {0}
30004580:	76cccccc 	strvcb	ip, [ip], ip, asr #25
30004584:	00000000 	andeq	r0, r0, r0
30004588:	30180c00 	andccs	r0, r8, r0, lsl #24
3000458c:	18183800 	ldmneda	r8, {fp, ip, sp}
30004590:	3c181818 	ldccc	8, cr1, [r8], {24}
30004594:	00000000 	andeq	r0, r0, r0
30004598:	60301800 	eorvss	r1, r0, r0, lsl #16
3000459c:	c6c67c00 	strgtb	r7, [r6], r0, lsl #24
300045a0:	7cc6c6c6 	stcvcl	6, cr12, [r6], {198}
300045a4:	00000000 	andeq	r0, r0, r0
300045a8:	60301800 	eorvss	r1, r0, r0, lsl #16
300045ac:	cccccc00 	stcgtl	12, cr12, [ip], {0}
300045b0:	76cccccc 	strvcb	ip, [ip], ip, asr #25
300045b4:	00000000 	andeq	r0, r0, r0
300045b8:	dc760000 	ldclel	0, cr0, [r6]
300045bc:	6666dc00 	strvsbt	sp, [r6], -r0, lsl #24
300045c0:	66666666 	strvsbt	r6, [r6], -r6, ror #12
300045c4:	00000000 	andeq	r0, r0, r0
300045c8:	c600dc76 	undefined
300045cc:	defef6e6 	cdple	6, 15, cr15, cr14, cr6, {7}
300045d0:	c6c6c6ce 	strgtb	ip, [r6], lr, asr #13
300045d4:	00000000 	andeq	r0, r0, r0
300045d8:	6c3c0000 	ldcvs	0, cr0, [ip]
300045dc:	7e003e6c 	cdpvc	14, 0, cr3, cr0, cr12, {3}
	...
300045e8:	6c380000 	ldcvs	0, cr0, [r8]
300045ec:	7c00386c 	stcvc	8, cr3, [r0], {108}
	...
300045f8:	30300000 	eorccs	r0, r0, r0
300045fc:	60303000 	eorvss	r3, r0, r0
30004600:	7cc6c6c0 	stcvcl	6, cr12, [r6], {192}
	...
3000460c:	c0fe0000 	rscgts	r0, lr, r0
30004610:	00c0c0c0 	sbceq	ip, r0, r0, asr #1
	...
3000461c:	06fe0000 	ldreqbt	r0, [lr], r0
30004620:	00060606 	andeq	r0, r6, r6, lsl #12
30004624:	00000000 	andeq	r0, r0, r0
30004628:	62e06000 	rscvs	r6, r0, #0	; 0x0
3000462c:	30186c66 	andccs	r6, r8, r6, ror #24
30004630:	0c86dc60 	stceq	12, cr13, [r6], {96}
30004634:	00003e18 	andeq	r3, r0, r8, lsl lr
30004638:	62e06000 	rscvs	r6, r0, #0	; 0x0
3000463c:	30186c66 	andccs	r6, r8, r6, ror #24
30004640:	3f9ace66 	swicc	0x009ace66
30004644:	00000606 	andeq	r0, r0, r6, lsl #12
30004648:	18180000 	ldmneda	r8, {}
3000464c:	18181800 	ldmneda	r8, {fp, ip}
30004650:	183c3c3c 	ldmneda	ip!, {r2, r3, r4, r5, sl, fp, ip, sp}
	...
3000465c:	d86c3600 	stmleda	ip!, {r9, sl, ip, sp}^
30004660:	0000366c 	andeq	r3, r0, ip, ror #12
	...
3000466c:	366cd800 	strccbt	sp, [ip], -r0, lsl #16
30004670:	0000d86c 	andeq	sp, r0, ip, ror #16
30004674:	00000000 	andeq	r0, r0, r0
30004678:	44114411 	ldrmi	r4, [r1], #-1041
3000467c:	44114411 	ldrmi	r4, [r1], #-1041
30004680:	44114411 	ldrmi	r4, [r1], #-1041
30004684:	44114411 	ldrmi	r4, [r1], #-1041
30004688:	aa55aa55 	bge	3156efe4 <_end+0x1569d74>
3000468c:	aa55aa55 	bge	3156efe8 <_end+0x1569d78>
30004690:	aa55aa55 	bge	3156efec <_end+0x1569d7c>
30004694:	aa55aa55 	bge	3156eff0 <_end+0x1569d80>
30004698:	77dd77dd 	undefined
3000469c:	77dd77dd 	undefined
300046a0:	77dd77dd 	undefined
300046a4:	77dd77dd 	undefined
300046a8:	18181818 	ldmneda	r8, {r3, r4, fp, ip}
300046ac:	18181818 	ldmneda	r8, {r3, r4, fp, ip}
300046b0:	18181818 	ldmneda	r8, {r3, r4, fp, ip}
300046b4:	18181818 	ldmneda	r8, {r3, r4, fp, ip}
300046b8:	18181818 	ldmneda	r8, {r3, r4, fp, ip}
300046bc:	f8181818 	ldmnvda	r8, {r3, r4, fp, ip}
300046c0:	18181818 	ldmneda	r8, {r3, r4, fp, ip}
300046c4:	18181818 	ldmneda	r8, {r3, r4, fp, ip}
300046c8:	18181818 	ldmneda	r8, {r3, r4, fp, ip}
300046cc:	f818f818 	ldmnvda	r8, {r3, r4, fp, ip, sp, lr, pc}
300046d0:	18181818 	ldmneda	r8, {r3, r4, fp, ip}
300046d4:	18181818 	ldmneda	r8, {r3, r4, fp, ip}
300046d8:	36363636 	undefined
300046dc:	f6363636 	undefined
300046e0:	36363636 	undefined
300046e4:	36363636 	undefined
300046e8:	00000000 	andeq	r0, r0, r0
300046ec:	fe000000 	cdp2	0, 0, cr0, cr0, cr0, {0}
300046f0:	36363636 	undefined
300046f4:	36363636 	undefined
300046f8:	00000000 	andeq	r0, r0, r0
300046fc:	f818f800 	ldmnvda	r8, {fp, ip, sp, lr, pc}
30004700:	18181818 	ldmneda	r8, {r3, r4, fp, ip}
30004704:	18181818 	ldmneda	r8, {r3, r4, fp, ip}
30004708:	36363636 	undefined
3000470c:	f606f636 	undefined
30004710:	36363636 	undefined
30004714:	36363636 	undefined
30004718:	36363636 	undefined
3000471c:	36363636 	undefined
30004720:	36363636 	undefined
30004724:	36363636 	undefined
30004728:	00000000 	andeq	r0, r0, r0
3000472c:	f606fe00 	strnv	pc, [r6], -r0, lsl #28
30004730:	36363636 	undefined
30004734:	36363636 	undefined
30004738:	36363636 	undefined
3000473c:	fe06f636 	mcr2	6, 0, pc, cr6, cr6, {1}
	...
30004748:	36363636 	undefined
3000474c:	fe363636 	mrc2	6, 1, r3, cr6, cr6, {1}
	...
30004758:	18181818 	ldmneda	r8, {r3, r4, fp, ip}
3000475c:	f818f818 	ldmnvda	r8, {r3, r4, fp, ip, sp, lr, pc}
	...
3000476c:	f8000000 	stmnvda	r0, {}
30004770:	18181818 	ldmneda	r8, {r3, r4, fp, ip}
30004774:	18181818 	ldmneda	r8, {r3, r4, fp, ip}
30004778:	18181818 	ldmneda	r8, {r3, r4, fp, ip}
3000477c:	1f181818 	swine	0x00181818
	...
30004788:	18181818 	ldmneda	r8, {r3, r4, fp, ip}
3000478c:	ff181818 	swinv	0x00181818
	...
3000479c:	ff000000 	swinv	0x00000000
300047a0:	18181818 	ldmneda	r8, {r3, r4, fp, ip}
300047a4:	18181818 	ldmneda	r8, {r3, r4, fp, ip}
300047a8:	18181818 	ldmneda	r8, {r3, r4, fp, ip}
300047ac:	1f181818 	swine	0x00181818
300047b0:	18181818 	ldmneda	r8, {r3, r4, fp, ip}
300047b4:	18181818 	ldmneda	r8, {r3, r4, fp, ip}
300047b8:	00000000 	andeq	r0, r0, r0
300047bc:	ff000000 	swinv	0x00000000
	...
300047c8:	18181818 	ldmneda	r8, {r3, r4, fp, ip}
300047cc:	ff181818 	swinv	0x00181818
300047d0:	18181818 	ldmneda	r8, {r3, r4, fp, ip}
300047d4:	18181818 	ldmneda	r8, {r3, r4, fp, ip}
300047d8:	18181818 	ldmneda	r8, {r3, r4, fp, ip}
300047dc:	1f181f18 	swine	0x00181f18
300047e0:	18181818 	ldmneda	r8, {r3, r4, fp, ip}
300047e4:	18181818 	ldmneda	r8, {r3, r4, fp, ip}
300047e8:	36363636 	undefined
300047ec:	37363636 	undefined
300047f0:	36363636 	undefined
300047f4:	36363636 	undefined
300047f8:	36363636 	undefined
300047fc:	3f303736 	swicc	0x00303736
	...
3000480c:	37303f00 	ldrcc	r3, [r0, -r0, lsl #30]!
30004810:	36363636 	undefined
30004814:	36363636 	undefined
30004818:	36363636 	undefined
3000481c:	ff00f736 	swinv	0x0000f736
	...
3000482c:	f700ff00 	strnv	pc, [r0, -r0, lsl #30]
30004830:	36363636 	undefined
30004834:	36363636 	undefined
30004838:	36363636 	undefined
3000483c:	37303736 	undefined
30004840:	36363636 	undefined
30004844:	36363636 	undefined
30004848:	00000000 	andeq	r0, r0, r0
3000484c:	ff00ff00 	swinv	0x0000ff00
	...
30004858:	36363636 	undefined
3000485c:	f700f736 	smuadxnv	r0, r6, r7
30004860:	36363636 	undefined
30004864:	36363636 	undefined
30004868:	18181818 	ldmneda	r8, {r3, r4, fp, ip}
3000486c:	ff00ff18 	swinv	0x0000ff18
	...
30004878:	36363636 	undefined
3000487c:	ff363636 	swinv	0x00363636
	...
3000488c:	ff00ff00 	swinv	0x0000ff00
30004890:	18181818 	ldmneda	r8, {r3, r4, fp, ip}
30004894:	18181818 	ldmneda	r8, {r3, r4, fp, ip}
30004898:	00000000 	andeq	r0, r0, r0
3000489c:	ff000000 	swinv	0x00000000
300048a0:	36363636 	undefined
300048a4:	36363636 	undefined
300048a8:	36363636 	undefined
300048ac:	3f363636 	swicc	0x00363636
	...
300048b8:	18181818 	ldmneda	r8, {r3, r4, fp, ip}
300048bc:	1f181f18 	swine	0x00181f18
	...
300048cc:	1f181f00 	swine	0x00181f00
300048d0:	18181818 	ldmneda	r8, {r3, r4, fp, ip}
300048d4:	18181818 	ldmneda	r8, {r3, r4, fp, ip}
300048d8:	00000000 	andeq	r0, r0, r0
300048dc:	3f000000 	swicc	0x00000000
300048e0:	36363636 	undefined
300048e4:	36363636 	undefined
300048e8:	36363636 	undefined
300048ec:	ff363636 	swinv	0x00363636
300048f0:	36363636 	undefined
300048f4:	36363636 	undefined
300048f8:	18181818 	ldmneda	r8, {r3, r4, fp, ip}
300048fc:	ff18ff18 	swinv	0x0018ff18
30004900:	18181818 	ldmneda	r8, {r3, r4, fp, ip}
30004904:	18181818 	ldmneda	r8, {r3, r4, fp, ip}
30004908:	18181818 	ldmneda	r8, {r3, r4, fp, ip}
3000490c:	f8181818 	ldmnvda	r8, {r3, r4, fp, ip}
	...
3000491c:	1f000000 	swine	0x00000000
30004920:	18181818 	ldmneda	r8, {r3, r4, fp, ip}
30004924:	18181818 	ldmneda	r8, {r3, r4, fp, ip}
30004928:	ffffffff 	swinv	0x00ffffff
3000492c:	ffffffff 	swinv	0x00ffffff
30004930:	ffffffff 	swinv	0x00ffffff
30004934:	ffffffff 	swinv	0x00ffffff
30004938:	00000000 	andeq	r0, r0, r0
3000493c:	ff000000 	swinv	0x00000000
30004940:	ffffffff 	swinv	0x00ffffff
30004944:	ffffffff 	swinv	0x00ffffff
30004948:	f0f0f0f0 	ldrnvsh	pc, [r0]
3000494c:	f0f0f0f0 	ldrnvsh	pc, [r0]
30004950:	f0f0f0f0 	ldrnvsh	pc, [r0]
30004954:	f0f0f0f0 	ldrnvsh	pc, [r0]
30004958:	0f0f0f0f 	swieq	0x000f0f0f
3000495c:	0f0f0f0f 	swieq	0x000f0f0f
30004960:	0f0f0f0f 	swieq	0x000f0f0f
30004964:	0f0f0f0f 	swieq	0x000f0f0f
30004968:	ffffffff 	swinv	0x00ffffff
3000496c:	00ffffff 	ldreqsh	pc, [pc, #255]	; 30004a73 <fontdata_8x16+0xefb>
	...
3000497c:	d8dc7600 	ldmleia	ip, {r9, sl, ip, sp, lr}^
30004980:	76dcd8d8 	undefined
30004984:	00000000 	andeq	r0, r0, r0
30004988:	cc780000 	ldcgtl	0, cr0, [r8]
3000498c:	ccd8cccc 	ldcgtl	12, cr12, [r8], {204}
30004990:	ccc6c6c6 	stcgtl	6, cr12, [r6], {198}
30004994:	00000000 	andeq	r0, r0, r0
30004998:	c6fe0000 	ldrgtbt	r0, [lr], r0
3000499c:	c0c0c0c6 	sbcgt	ip, r0, r6, asr #1
300049a0:	c0c0c0c0 	sbcgt	ip, r0, r0, asr #1
	...
300049ac:	6c6cfe00 	stcvsl	14, cr15, [ip]
300049b0:	6c6c6c6c 	stcvsl	12, cr6, [ip], #-432
300049b4:	00000000 	andeq	r0, r0, r0
300049b8:	c6fe0000 	ldrgtbt	r0, [lr], r0
300049bc:	18183060 	ldmneda	r8, {r5, r6, ip, sp}
300049c0:	fec66030 	mcr2	0, 6, r6, cr6, cr0, {1}
	...
300049cc:	d8d87e00 	ldmleia	r8, {r9, sl, fp, ip, sp, lr}^
300049d0:	70d8d8d8 	ldrvcsb	sp, [r8], #136
	...
300049dc:	66666600 	strvsbt	r6, [r6], -r0, lsl #12
300049e0:	7c666666 	stcvcl	6, cr6, [r6], #-408
300049e4:	00c06060 	sbceq	r6, r0, r0, rrx
300049e8:	00000000 	andeq	r0, r0, r0
300049ec:	1818dc76 	ldmneda	r8, {r1, r2, r4, r5, r6, sl, fp, ip, lr, pc}
300049f0:	18181818 	ldmneda	r8, {r3, r4, fp, ip}
300049f4:	00000000 	andeq	r0, r0, r0
300049f8:	187e0000 	ldmneda	lr!, {}^
300049fc:	6666663c 	undefined
30004a00:	7e183c66 	cdpvc	12, 1, cr3, cr8, cr6, {3}
30004a04:	00000000 	andeq	r0, r0, r0
30004a08:	6c380000 	ldcvs	0, cr0, [r8]
30004a0c:	c6fec6c6 	ldrgtbt	ip, [lr], r6, asr #13
30004a10:	386cc6c6 	stmccda	ip!, {r1, r2, r6, r7, r9, sl, lr, pc}^
30004a14:	00000000 	andeq	r0, r0, r0
30004a18:	6c380000 	ldcvs	0, cr0, [r8]
30004a1c:	6cc6c6c6 	stcvsl	6, cr12, [r6], {198}
30004a20:	ee6c6c6c 	cdp	12, 6, cr6, cr12, cr12, {3}
30004a24:	00000000 	andeq	r0, r0, r0
30004a28:	301e0000 	andccs	r0, lr, r0
30004a2c:	663e0c18 	undefined
30004a30:	3c666666 	stcccl	6, cr6, [r6], #-408
	...
30004a3c:	dbdb7e00 	blle	2f6e4244 <__code_start-0x91bdbc>
30004a40:	00007edb 	ldreqd	r7, [r0], -fp
30004a44:	00000000 	andeq	r0, r0, r0
30004a48:	03000000 	tsteq	r0, #0	; 0x0
30004a4c:	dbdb7e06 	blle	2f6e426c <__code_start-0x91bd94>
30004a50:	c0607ef3 	strgtd	r7, [r0], #-227
30004a54:	00000000 	andeq	r0, r0, r0
30004a58:	301c0000 	andccs	r0, ip, r0
30004a5c:	607c6060 	rsbvss	r6, ip, r0, rrx
30004a60:	1c306060 	ldcne	0, cr6, [r0], #-384
30004a64:	00000000 	andeq	r0, r0, r0
30004a68:	7c000000 	stcvc	0, cr0, [r0], {0}
30004a6c:	c6c6c6c6 	strgtb	ip, [r6], r6, asr #13
30004a70:	c6c6c6c6 	strgtb	ip, [r6], r6, asr #13
	...
30004a7c:	fe0000fe 	mcr2	0, 0, r0, cr0, cr14, {7}
30004a80:	00fe0000 	rsceqs	r0, lr, r0
	...
30004a8c:	187e1818 	ldmneda	lr!, {r3, r4, fp, ip}^
30004a90:	7e000018 	mcrvc	0, 0, r0, cr0, cr8, {0}
30004a94:	00000000 	andeq	r0, r0, r0
30004a98:	30000000 	andcc	r0, r0, r0
30004a9c:	0c060c18 	stceq	12, cr0, [r6], {24}
30004aa0:	7e003018 	mcrvc	0, 0, r3, cr0, cr8, {0}
30004aa4:	00000000 	andeq	r0, r0, r0
30004aa8:	0c000000 	stceq	0, cr0, [r0], {0}
30004aac:	30603018 	rsbcc	r3, r0, r8, lsl r0
30004ab0:	7e000c18 	mcrvc	12, 0, r0, cr0, cr8, {0}
30004ab4:	00000000 	andeq	r0, r0, r0
30004ab8:	1b0e0000 	blne	30384ac0 <_end+0x37f850>
30004abc:	1818181b 	ldmneda	r8, {r0, r1, r3, r4, fp, ip}
30004ac0:	18181818 	ldmneda	r8, {r3, r4, fp, ip}
30004ac4:	18181818 	ldmneda	r8, {r3, r4, fp, ip}
30004ac8:	18181818 	ldmneda	r8, {r3, r4, fp, ip}
30004acc:	18181818 	ldmneda	r8, {r3, r4, fp, ip}
30004ad0:	d8d8d818 	ldmleia	r8, {r3, r4, fp, ip, lr, pc}^
30004ad4:	00000070 	andeq	r0, r0, r0, ror r0
30004ad8:	00000000 	andeq	r0, r0, r0
30004adc:	7e001800 	cdpvc	8, 0, cr1, cr0, cr0, {0}
30004ae0:	00001800 	andeq	r1, r0, r0, lsl #16
	...
30004aec:	00dc7600 	sbceqs	r7, ip, r0, lsl #12
30004af0:	0000dc76 	andeq	sp, r0, r6, ror ip
30004af4:	00000000 	andeq	r0, r0, r0
30004af8:	6c6c3800 	stcvsl	8, cr3, [ip]
30004afc:	00000038 	andeq	r0, r0, r8, lsr r0
	...
30004b0c:	18000000 	stmneda	r0, {}
30004b10:	00000018 	andeq	r0, r0, r8, lsl r0
	...
30004b1c:	18000000 	stmneda	r0, {}
	...
30004b28:	0c0c0f00 	stceq	15, cr0, [ip], {0}
30004b2c:	ec0c0c0c 	stc	12, cr0, [ip], {12}
30004b30:	1c3c6c6c 	ldcne	12, cr6, [ip], #-432
30004b34:	00000000 	andeq	r0, r0, r0
30004b38:	36366c00 	ldrcct	r6, [r6], -r0, lsl #24
30004b3c:	00363636 	eoreqs	r3, r6, r6, lsr r6
	...
30004b48:	0c663c00 	stceql	12, cr3, [r6]
30004b4c:	007e3218 	rsbeqs	r3, lr, r8, lsl r2
	...
30004b5c:	7e7e7e7e 	mrcvc	14, 3, r7, cr14, cr14, {3}
30004b60:	007e7e7e 	rsbeqs	r7, lr, lr, ror lr
	...
Disassembly of section .rodata.str1.4:

30004b78 <.rodata.str1.4>:
30004b78:	656b616d 	strvsb	r6, [fp, #-365]!
30004b7c:	20202072 	eorcs	r2, r0, r2, ror r0
30004b80:	20206469 	eorcs	r6, r0, r9, ror #8
30004b84:	7830203d 	ldmvcda	r0!, {r0, r2, r3, r4, r5, sp}
30004b88:	0d0a7825 	stceq	8, cr7, [sl, #-148]
30004b8c:	00000000 	andeq	r0, r0, r0
30004b90:	69766564 	ldmvsdb	r6!, {r2, r5, r6, r8, sl, sp, lr}^
30004b94:	20206563 	eorcs	r6, r0, r3, ror #10
30004b98:	20206469 	eorcs	r6, r0, r9, ror #8
30004b9c:	7830203d 	ldmvcda	r0!, {r0, r2, r3, r4, r5, sp}
30004ba0:	0d0a7825 	stceq	8, cr7, [sl, #-148]
30004ba4:	00000000 	andeq	r0, r0, r0
30004ba8:	20647233 	rsbcs	r7, r4, r3, lsr r2
30004bac:	65747962 	ldrvsb	r7, [r4, #-2402]!
30004bb0:	20202020 	eorcs	r2, r0, r0, lsr #32
30004bb4:	7830203d 	ldmvcda	r0!, {r0, r2, r3, r4, r5, sp}
30004bb8:	0d0a7825 	stceq	8, cr7, [sl, #-148]
30004bbc:	00000000 	andeq	r0, r0, r0
30004bc0:	20687434 	rsbcs	r7, r8, r4, lsr r4
30004bc4:	65747962 	ldrvsb	r7, [r4, #-2402]!
30004bc8:	20202020 	eorcs	r2, r0, r0, lsr #32
30004bcc:	7830203d 	ldmvcda	r0!, {r0, r2, r3, r4, r5, sp}
30004bd0:	0d0a7825 	stceq	8, cr7, [sl, #-148]
30004bd4:	00000000 	andeq	r0, r0, r0
30004bd8:	65676170 	strvsb	r6, [r7, #-368]!
30004bdc:	69732020 	ldmvsdb	r3!, {r5, sp}^
30004be0:	2020657a 	eorcs	r6, r0, sl, ror r5
30004be4:	6425203d 	strvst	r2, [r5], #-61
30004be8:	0a626b20 	beq	3189f870 <_end+0x189a600>
30004bec:	0000000d 	andeq	r0, r0, sp
30004bf0:	636f6c62 	cmnvs	pc, #25088	; 0x6200
30004bf4:	6973206b 	ldmvsdb	r3!, {r0, r1, r3, r5, r6, sp}^
30004bf8:	2020657a 	eorcs	r6, r0, sl, ror r5
30004bfc:	6425203d 	strvst	r2, [r5], #-61
30004c00:	0a626b20 	beq	3189f888 <_end+0x189a618>
30004c04:	0000000d 	andeq	r0, r0, sp
30004c08:	20687435 	rsbcs	r7, r8, r5, lsr r4
30004c0c:	65747962 	ldrvsb	r7, [r4, #-2402]!
30004c10:	20202020 	eorcs	r2, r0, r0, lsr #32
30004c14:	7830203d 	ldmvcda	r0!, {r0, r2, r3, r4, r5, sp}
30004c18:	0d0a7825 	stceq	8, cr7, [sl, #-148]
30004c1c:	00000000 	andeq	r0, r0, r0
30004c20:	646e616e 	strvsbt	r6, [lr], #-366
30004c24:	6172655f 	cmnvs	r2, pc, asr r5
30004c28:	65206573 	strvs	r6, [r0, #-1395]!
30004c2c:	202c7272 	eorcs	r7, ip, r2, ror r2
30004c30:	72646461 	rsbvc	r6, r4, #1627389952	; 0x61000000
30004c34:	20736920 	rsbcss	r6, r3, r0, lsr #18
30004c38:	20746f6e 	rsbcss	r6, r4, lr, ror #30
30004c3c:	636f6c62 	cmnvs	pc, #25088	; 0x6200
30004c40:	6c61206b 	stcvsl	0, cr2, [r1], #-428
30004c44:	0a6e6769 	beq	31b9e9f0 <_end+0x1b99780>
30004c48:	0000000d 	andeq	r0, r0, sp
30004c4c:	646e616e 	strvsbt	r6, [lr], #-366
30004c50:	6172655f 	cmnvs	r2, pc, asr r5
30004c54:	65206573 	strvs	r6, [r0, #-1395]!
30004c58:	202c7272 	eorcs	r7, ip, r2, ror r2
30004c5c:	206e656c 	rsbcs	r6, lr, ip, ror #10
30004c60:	6e207369 	cdpvs	3, 2, cr7, cr0, cr9, {3}
30004c64:	6220746f 	eorvs	r7, r0, #1862270976	; 0x6f000000
30004c68:	6b636f6c 	blvs	318e0a20 <_end+0x18db7b0>
30004c6c:	696c6120 	stmvsdb	ip!, {r5, r8, sp, lr}^
30004c70:	0d0a6e67 	stceq	14, cr6, [sl, #-412]
30004c74:	00000000 	andeq	r0, r0, r0
30004c78:	65746e45 	ldrvsb	r6, [r4, #-3653]!
30004c7c:	68742072 	ldmvsda	r4!, {r1, r4, r5, r6, sp}^
30004c80:	64612065 	strvsbt	r2, [r1], #-101
30004c84:	73657264 	cmnvc	r5, #1073741830	; 0x40000006
30004c88:	6f742073 	swivs	0x00742073
30004c8c:	61657220 	cmnvs	r5, r0, lsr #4
30004c90:	00203a64 	eoreq	r3, r0, r4, ror #20
30004c94:	61746144 	cmnvs	r4, r4, asr #2
30004c98:	0a203a20 	beq	30813520 <_end+0x80e2b0>
30004c9c:	0000000d 	andeq	r0, r0, sp
30004ca0:	78323025 	ldmvcda	r2!, {r0, r2, r5, ip, sp}
30004ca4:	00000020 	andeq	r0, r0, r0, lsr #32
30004ca8:	3b202020 	blcc	3080cd30 <_end+0x807ac0>
30004cac:	00000020 	andeq	r0, r0, r0, lsr #32
30004cb0:	65746e45 	ldrvsb	r6, [r4, #-3653]!
30004cb4:	68742072 	ldmvsda	r4!, {r1, r4, r5, r6, sp}^
30004cb8:	64612065 	strvsbt	r2, [r1], #-101
30004cbc:	73657264 	cmnvc	r5, #1073741830	; 0x40000006
30004cc0:	666f2073 	undefined
30004cc4:	63657320 	cmnvs	r5, #-2147483648	; 0x80000000
30004cc8:	20726f74 	rsbcss	r6, r2, r4, ror pc
30004ccc:	65206f74 	strvs	r6, [r0, #-3956]!
30004cd0:	65736172 	ldrvsb	r6, [r3, #-370]!
30004cd4:	0000203a 	andeq	r2, r0, sl, lsr r0
30004cd8:	73617265 	cmnvc	r1, #1342177286	; 0x50000006
30004cdc:	20676e69 	rsbcs	r6, r7, r9, ror #28
30004ce0:	0a2e2e2e 	beq	30b905a0 <_end+0xb8b330>
30004ce4:	0000000d 	andeq	r0, r0, sp
30004ce8:	65746e45 	ldrvsb	r6, [r4, #-3653]!
30004cec:	68742072 	ldmvsda	r4!, {r1, r4, r5, r6, sp}^
30004cf0:	64612065 	strvsbt	r2, [r1], #-101
30004cf4:	73657264 	cmnvc	r5, #1073741830	; 0x40000006
30004cf8:	666f2073 	undefined
30004cfc:	63657320 	cmnvs	r5, #-2147483648	; 0x80000000
30004d00:	20726f74 	rsbcss	r6, r2, r4, ror pc
30004d04:	77206f74 	undefined
30004d08:	65746972 	ldrvsb	r6, [r4, #-2418]!
30004d0c:	0000203a 	andeq	r2, r0, sl, lsr r0
30004d10:	65746e45 	ldrvsb	r6, [r4, #-3653]!
30004d14:	68742072 	ldmvsda	r4!, {r1, r4, r5, r6, sp}^
30004d18:	74732065 	ldrvcbt	r2, [r3], #-101
30004d1c:	676e6972 	undefined
30004d20:	206f7420 	rsbcs	r7, pc, r0, lsr #8
30004d24:	74697277 	strvcbt	r7, [r9], #-631
30004d28:	00203a65 	eoreq	r3, r0, r5, ror #20
30004d2c:	74697277 	strvcbt	r7, [r9], #-631
30004d30:	20676e69 	rsbcs	r6, r7, r9, ror #28
30004d34:	0a2e2e2e 	beq	30b905f4 <_end+0xb8b384>
30004d38:	0000000d 	andeq	r0, r0, sp
30004d3c:	722f6e2f 	eorvc	r6, pc, #752	; 0x2f0
30004d40:	00000000 	andeq	r0, r0, r0
30004d44:	00007830 	andeq	r7, r0, r0, lsr r8
30004d48:	0a636261 	beq	318dd6d4 <_end+0x18d8464>
30004d4c:	0000000d 	andeq	r0, r0, sp
30004d50:	0a333231 	beq	30cd161c <_end+0xccc3ac>
30004d54:	0000000d 	andeq	r0, r0, sp
30004d58:	65637845 	strvsb	r7, [r3, #-2117]!
30004d5c:	6f697470 	swivs	0x00697470
30004d60:	6320216e 	teqvs	r0, #-2147483621	; 0x8000001b
30004d64:	20727370 	rsbcss	r7, r2, r0, ror r3
30004d68:	0000203d 	andeq	r2, r0, sp, lsr r0
30004d6c:	20495753 	subcs	r5, r9, r3, asr r7
30004d70:	206c6176 	rsbcs	r6, ip, r6, ror r1
30004d74:	0000203d 	andeq	r2, r0, sp, lsr r0
30004d78:	636c6557 	cmnvs	ip, #364904448	; 0x15c00000
30004d7c:	20656d6f 	rsbcs	r6, r5, pc, ror #26
30004d80:	74206f74 	strvct	r6, [r0], #-3956
30004d84:	70206568 	eorvc	r6, r0, r8, ror #10
30004d88:	656a6f72 	strvsb	r6, [sl, #-3954]!
30004d8c:	73207463 	teqvc	r0, #1660944384	; 0x63000000
30004d90:	3a776f68 	bcc	31de0b38 <_end+0x1ddb8c8>
30004d94:	325a4a20 	subccs	r4, sl, #131072	; 0x20000
30004d98:	76303434 	undefined
30004d9c:	75662032 	strvcb	r2, [r6, #-50]!
30004da0:	6d206c6c 	stcvs	12, cr6, [r0, #-432]!
30004da4:	6c75646f 	cfldrdvs	mvd6, [r5], #-444
30004da8:	65742065 	ldrvsb	r2, [r4, #-101]!
30004dac:	00007473 	andeq	r7, r0, r3, ror r4
30004db0:	68747541 	ldmvsda	r4!, {r0, r6, r8, sl, ip, sp, lr}^
30004db4:	203a726f 	eorcss	r7, sl, pc, ror #4
30004db8:	4369654c 	cmnmi	r9, #318767104	; 0x13000000
30004dbc:	6e617568 	cdpvs	5, 6, cr7, cr1, cr8, {3}
30004dc0:	00000000 	andeq	r0, r0, r0
30004dc4:	203a5151 	eorcss	r5, sl, r1, asr r1
30004dc8:	38333937 	ldmccda	r3!, {r0, r1, r2, r4, r5, r8, fp, ip, sp}
30004dcc:	32353530 	eorccs	r3, r5, #201326592	; 0xc000000
30004dd0:	00000036 	andeq	r0, r0, r6, lsr r0
30004dd4:	69616d45 	stmvsdb	r1!, {r0, r2, r6, r8, sl, fp, sp, lr}^
30004dd8:	73203a6c 	teqvc	r0, #442368	; 0x6c000
30004ddc:	63616761 	cmnvs	r1, #25427968	; 0x1840000
30004de0:	5f797469 	swipl	0x00797469
30004de4:	3140636c 	cmpcc	r0, ip, ror #6
30004de8:	632e3336 	teqvs	lr, #-671088640	; 0xd8000000
30004dec:	00006d6f 	andeq	r6, r0, pc, ror #26
30004df0:	68746947 	ldmvsda	r4!, {r0, r1, r2, r6, r8, fp, sp, lr}^
30004df4:	203a6275 	eorcss	r6, sl, r5, ror r2
30004df8:	40746967 	rsbmis	r6, r4, r7, ror #18
30004dfc:	68746967 	ldmvsda	r4!, {r0, r1, r2, r5, r6, r8, fp, sp, lr}^
30004e00:	632e6275 	teqvs	lr, #1342177287	; 0x50000007
30004e04:	733a6d6f 	teqvc	sl, #7104	; 0x1bc0
30004e08:	63616761 	cmnvs	r1, #25427968	; 0x1840000
30004e0c:	2d797469 	cfldrdcs	mvd7, [r9, #-420]!
30004e10:	6369656c 	cmnvs	r9, #452984832	; 0x1b000000
30004e14:	6e617568 	cdpvs	5, 6, cr7, cr1, cr8, {3}
30004e18:	0000002f 	andeq	r0, r0, pc, lsr #32
30004e1c:	20202020 	eorcs	r2, r0, r0, lsr #32
30004e20:	20202020 	eorcs	r2, r0, r0, lsr #32
30004e24:	5f6c6c41 	swipl	0x006c6c41
30004e28:	75646f4d 	strvcb	r6, [r4, #-3917]!
30004e2c:	5f73656c 	swipl	0x0073656c
30004e30:	74736554 	ldrvcbt	r6, [r3], #-1364
30004e34:	6f5f6465 	swivs	0x005f6465
30004e38:	5a4a5f66 	bpl	3129cbd8 <_end+0x1297968>
30004e3c:	30343432 	eorccs	r3, r4, r2, lsr r4
30004e40:	7469672e 	strvcbt	r6, [r9], #-1838
30004e44:	00000000 	andeq	r0, r0, r0
30004e48:	2c776f4e 	ldccsl	15, cr6, [r7], #-312
30004e4c:	6a6f7250 	bvs	31be1794 <_end+0x1bdc524>
30004e50:	20746365 	rsbcss	r6, r4, r5, ror #6
30004e54:	776f6873 	undefined
30004e58:	61747320 	cmnvs	r4, r0, lsr #6
30004e5c:	20737472 	rsbcss	r7, r3, r2, ror r4
30004e60:	68676972 	stmvsda	r7!, {r1, r4, r5, r6, r8, fp, sp, lr}^
30004e64:	77612074 	undefined
30004e68:	2e2e7961 	cdpcs	9, 2, cr7, cr14, cr1, {3}
30004e6c:	2e2e2e2e 	cdpcs	14, 2, cr2, cr14, cr14, {1}
30004e70:	00000000 	andeq	r0, r0, r0
30004e74:	20727473 	rsbcss	r7, r2, r3, ror r4
30004e78:	7325203d 	teqvc	r5, #61	; 0x3d
30004e7c:	00000d0a 	andeq	r0, r0, sl, lsl #26
30004e80:	646e6576 	strvsbt	r6, [lr], #-1398
30004e84:	6920726f 	stmvsdb	r0!, {r0, r1, r2, r3, r5, r6, r9, ip, sp, lr}
30004e88:	203d2064 	eorcss	r2, sp, r4, rrx
30004e8c:	78257830 	stmvcda	r5!, {r4, r5, fp, ip, sp, lr}
30004e90:	6564202c 	strvsb	r2, [r4, #-44]!
30004e94:	65636976 	strvsb	r6, [r3, #-2422]!
30004e98:	20646920 	rsbcs	r6, r4, r0, lsr #18
30004e9c:	7830203d 	ldmvcda	r0!, {r0, r2, r3, r4, r5, sp}
30004ea0:	202c7825 	eorcs	r7, ip, r5, lsr #16
30004ea4:	20726f6e 	rsbcss	r6, r2, lr, ror #30
30004ea8:	657a6973 	ldrvsb	r6, [sl, #-2419]!
30004eac:	30203d20 	eorcc	r3, r0, r0, lsr #26
30004eb0:	2c782578 	cfldr64cs	mvdx2, [r8], #-480
30004eb4:	4d642520 	cfstr64mi	mvdx2, [r4, #-128]!
30004eb8:	00000d0a 	andeq	r0, r0, sl, lsl #26
30004ebc:	636f6c42 	cmnvs	pc, #16896	; 0x4200
30004ec0:	65532f6b 	ldrvsb	r2, [r3, #-3947]
30004ec4:	726f7463 	rsbvc	r7, pc, #1660944384	; 0x63000000
30004ec8:	61747320 	cmnvs	r4, r0, lsr #6
30004ecc:	41207472 	teqmi	r0, r2, ror r4
30004ed0:	65726464 	ldrvsb	r6, [r2, #-1124]!
30004ed4:	0a3a7373 	beq	30ea1ca8 <_end+0xe9ca38>
30004ed8:	0000000d 	andeq	r0, r0, sp
30004edc:	32633373 	rsbcc	r3, r3, #-872415231	; 0xcc000001
30004ee0:	00303434 	eoreqs	r3, r0, r4, lsr r4
30004ee4:	5f64636c 	swipl	0x0064636c
30004ee8:	00332e34 	eoreqs	r2, r3, r4, lsr lr
30004eec:	6369656c 	cmnvs	r9, #452984832	; 0x1b000000
30004ef0:	6e617568 	cdpvs	5, 6, cr7, cr1, cr8, {3}
30004ef4:	73202020 	teqvc	r0, #32	; 0x20
30004ef8:	63616761 	cmnvs	r1, #25427968	; 0x1840000
30004efc:	5f797469 	swipl	0x00797469
30004f00:	3140636c 	cmpcc	r0, ip, ror #6
30004f04:	632e3336 	teqvs	lr, #-671088640	; 0xd8000000
30004f08:	Address 0x30004f08 is out of bounds.

Disassembly of section .data:

30004f0c <hex_tab>:
30004f0c:	33323130 	teqcc	r2, #12	; 0xc
30004f10:	37363534 	undefined
30004f14:	62613938 	rsbvs	r3, r1, #917504	; 0xe0000
30004f18:	66656463 	strvsbt	r6, [r5], -r3, ror #8

30004f1c <_ctype>:
30004f1c:	08080808 	stmeqda	r8, {r3, fp}
30004f20:	08080808 	stmeqda	r8, {r3, fp}
30004f24:	28282808 	stmcsda	r8!, {r3, fp, sp}
30004f28:	08082828 	stmeqda	r8, {r3, r5, fp, sp}
30004f2c:	08080808 	stmeqda	r8, {r3, fp}
30004f30:	08080808 	stmeqda	r8, {r3, fp}
30004f34:	08080808 	stmeqda	r8, {r3, fp}
30004f38:	08080808 	stmeqda	r8, {r3, fp}
30004f3c:	101010a0 	andnes	r1, r0, r0, lsr #1
30004f40:	10101010 	andnes	r1, r0, r0, lsl r0
30004f44:	10101010 	andnes	r1, r0, r0, lsl r0
30004f48:	10101010 	andnes	r1, r0, r0, lsl r0
30004f4c:	04040404 	streq	r0, [r4], #-1028
30004f50:	04040404 	streq	r0, [r4], #-1028
30004f54:	10100404 	andnes	r0, r0, r4, lsl #8
30004f58:	10101010 	andnes	r1, r0, r0, lsl r0
30004f5c:	41414110 	cmpmi	r1, r0, lsl r1
30004f60:	01414141 	cmpeq	r1, r1, asr #2
30004f64:	01010101 	tsteq	r1, r1, lsl #2
30004f68:	01010101 	tsteq	r1, r1, lsl #2
30004f6c:	01010101 	tsteq	r1, r1, lsl #2
30004f70:	01010101 	tsteq	r1, r1, lsl #2
30004f74:	10010101 	andne	r0, r1, r1, lsl #2
30004f78:	10101010 	andnes	r1, r0, r0, lsl r0
30004f7c:	42424210 	submi	r4, r2, #1	; 0x1
30004f80:	02424242 	subeq	r4, r2, #536870916	; 0x20000004
30004f84:	02020202 	andeq	r0, r2, #536870912	; 0x20000000
30004f88:	02020202 	andeq	r0, r2, #536870912	; 0x20000000
30004f8c:	02020202 	andeq	r0, r2, #536870912	; 0x20000000
30004f90:	02020202 	andeq	r0, r2, #536870912	; 0x20000000
30004f94:	10020202 	andne	r0, r2, r2, lsl #4
30004f98:	08101010 	ldmeqda	r0, {r4, ip}
	...
30004fbc:	101010a0 	andnes	r1, r0, r0, lsr #1
30004fc0:	10101010 	andnes	r1, r0, r0, lsl r0
30004fc4:	10101010 	andnes	r1, r0, r0, lsl r0
30004fc8:	10101010 	andnes	r1, r0, r0, lsl r0
30004fcc:	10101010 	andnes	r1, r0, r0, lsl r0
30004fd0:	10101010 	andnes	r1, r0, r0, lsl r0
30004fd4:	10101010 	andnes	r1, r0, r0, lsl r0
30004fd8:	10101010 	andnes	r1, r0, r0, lsl r0
30004fdc:	01010101 	tsteq	r1, r1, lsl #2
30004fe0:	01010101 	tsteq	r1, r1, lsl #2
30004fe4:	01010101 	tsteq	r1, r1, lsl #2
30004fe8:	01010101 	tsteq	r1, r1, lsl #2
30004fec:	01010101 	tsteq	r1, r1, lsl #2
30004ff0:	10010101 	andne	r0, r1, r1, lsl #2
30004ff4:	01010101 	tsteq	r1, r1, lsl #2
30004ff8:	02010101 	andeq	r0, r1, #1073741824	; 0x40000000
30004ffc:	02020202 	andeq	r0, r2, #536870912	; 0x20000000
30005000:	02020202 	andeq	r0, r2, #536870912	; 0x20000000
30005004:	02020202 	andeq	r0, r2, #536870912	; 0x20000000
30005008:	02020202 	andeq	r0, r2, #536870912	; 0x20000000
3000500c:	02020202 	andeq	r0, r2, #536870912	; 0x20000000
30005010:	10020202 	andne	r0, r2, r2, lsl #4
30005014:	02020202 	andeq	r0, r2, #536870912	; 0x20000000
30005018:	02020202 	andeq	r0, r2, #536870912	; 0x20000000

3000501c <g_sS3c2440LcdController>:
3000501c:	30004edc 	ldrccd	r4, [r0], -ip
30005020:	3000217c 	andcc	r2, r0, ip, ror r1
30005024:	30002320 	andcc	r2, r0, r0, lsr #6
30005028:	30002350 	andcc	r2, r0, r0, asr r3
3000502c:	30002380 	andcc	r2, r0, r0, lsl #7

30005030 <lcd_4_3_params>:
30005030:	30004ee4 	andcc	r4, r0, r4, ror #29
	...
30005044:	00000001 	andeq	r0, r0, r1
30005048:	00000001 	andeq	r0, r0, r1
3000504c:	0000000a 	andeq	r0, r0, sl
30005050:	00000002 	andeq	r0, r0, r2
30005054:	00000002 	andeq	r0, r0, r2
30005058:	00000029 	andeq	r0, r0, r9, lsr #32
3000505c:	00000002 	andeq	r0, r0, r2
30005060:	00000002 	andeq	r0, r0, r2
30005064:	00000009 	andeq	r0, r0, r9
30005068:	000001e0 	andeq	r0, r0, r0, ror #3
3000506c:	00000110 	andeq	r0, r0, r0, lsl r1
30005070:	00000010 	andeq	r0, r0, r0, lsl r0
30005074:	33c00000 	biccc	r0, r0, #0	; 0x0
Disassembly of section .bss:

30005078 <g_psArrayLcdController>:
	...

300050a0 <g_pSLcdControllerSelected>:
300050a0:	00000000 	andeq	r0, r0, r0

300050a4 <g_psArrayLcd>:
	...

300050cc <g_psLcdSelected>:
300050cc:	00000000 	andeq	r0, r0, r0

300050d0 <sg_uiFbBase>:
300050d0:	00000000 	andeq	r0, r0, r0

300050d4 <sg_iXres>:
300050d4:	00000000 	andeq	r0, r0, r0

300050d8 <sg_iYres>:
300050d8:	00000000 	andeq	r0, r0, r0

300050dc <sg_Bpp>:
300050dc:	00000000 	andeq	r0, r0, r0

300050e0 <sg_uiFbBase>:
300050e0:	00000000 	andeq	r0, r0, r0

300050e4 <sg_iXres>:
300050e4:	00000000 	andeq	r0, r0, r0

300050e8 <sg_iYres>:
300050e8:	00000000 	andeq	r0, r0, r0

300050ec <sg_Bpp>:
300050ec:	00000000 	andeq	r0, r0, r0

300050f0 <g_fIrqArray>:
	...

30005170 <timer_array>:
	...
Disassembly of section .comment:

00000000 <.comment>:
   0:	43434700 	cmpmi	r3, #0	; 0x0
   4:	4728203a 	undefined
   8:	2029554e 	eorcs	r5, r9, lr, asr #10
   c:	2e342e33 	mrccs	14, 1, r2, cr4, cr3, {1}
  10:	47000035 	smladxmi	r0, r5, r0, r0
  14:	203a4343 	eorcss	r4, sl, r3, asr #6
  18:	554e4728 	strplb	r4, [lr, #-1832]
  1c:	2e332029 	cdpcs	0, 3, cr2, cr3, cr9, {1}
  20:	00352e34 	eoreqs	r2, r5, r4, lsr lr
  24:	43434700 	cmpmi	r3, #0	; 0x0
  28:	4728203a 	undefined
  2c:	2029554e 	eorcs	r5, r9, lr, asr #10
  30:	2e342e33 	mrccs	14, 1, r2, cr4, cr3, {1}
  34:	47000035 	smladxmi	r0, r5, r0, r0
  38:	203a4343 	eorcss	r4, sl, r3, asr #6
  3c:	554e4728 	strplb	r4, [lr, #-1832]
  40:	2e332029 	cdpcs	0, 3, cr2, cr3, cr9, {1}
  44:	00352e34 	eoreqs	r2, r5, r4, lsr lr
  48:	43434700 	cmpmi	r3, #0	; 0x0
  4c:	4728203a 	undefined
  50:	2029554e 	eorcs	r5, r9, lr, asr #10
  54:	2e342e33 	mrccs	14, 1, r2, cr4, cr3, {1}
  58:	47000035 	smladxmi	r0, r5, r0, r0
  5c:	203a4343 	eorcss	r4, sl, r3, asr #6
  60:	554e4728 	strplb	r4, [lr, #-1832]
  64:	2e332029 	cdpcs	0, 3, cr2, cr3, cr9, {1}
  68:	00352e34 	eoreqs	r2, r5, r4, lsr lr
  6c:	43434700 	cmpmi	r3, #0	; 0x0
  70:	4728203a 	undefined
  74:	2029554e 	eorcs	r5, r9, lr, asr #10
  78:	2e342e33 	mrccs	14, 1, r2, cr4, cr3, {1}
  7c:	47000035 	smladxmi	r0, r5, r0, r0
  80:	203a4343 	eorcss	r4, sl, r3, asr #6
  84:	554e4728 	strplb	r4, [lr, #-1832]
  88:	2e332029 	cdpcs	0, 3, cr2, cr3, cr9, {1}
  8c:	00352e34 	eoreqs	r2, r5, r4, lsr lr
  90:	43434700 	cmpmi	r3, #0	; 0x0
  94:	4728203a 	undefined
  98:	2029554e 	eorcs	r5, r9, lr, asr #10
  9c:	2e342e33 	mrccs	14, 1, r2, cr4, cr3, {1}
  a0:	47000035 	smladxmi	r0, r5, r0, r0
  a4:	203a4343 	eorcss	r4, sl, r3, asr #6
  a8:	554e4728 	strplb	r4, [lr, #-1832]
  ac:	2e332029 	cdpcs	0, 3, cr2, cr3, cr9, {1}
  b0:	00352e34 	eoreqs	r2, r5, r4, lsr lr
  b4:	43434700 	cmpmi	r3, #0	; 0x0
  b8:	4728203a 	undefined
  bc:	2029554e 	eorcs	r5, r9, lr, asr #10
  c0:	2e342e33 	mrccs	14, 1, r2, cr4, cr3, {1}
  c4:	47000035 	smladxmi	r0, r5, r0, r0
  c8:	203a4343 	eorcss	r4, sl, r3, asr #6
  cc:	554e4728 	strplb	r4, [lr, #-1832]
  d0:	2e332029 	cdpcs	0, 3, cr2, cr3, cr9, {1}
  d4:	00352e34 	eoreqs	r2, r5, r4, lsr lr
  d8:	43434700 	cmpmi	r3, #0	; 0x0
  dc:	4728203a 	undefined
  e0:	2029554e 	eorcs	r5, r9, lr, asr #10
  e4:	2e342e33 	mrccs	14, 1, r2, cr4, cr3, {1}
  e8:	47000035 	smladxmi	r0, r5, r0, r0
  ec:	203a4343 	eorcss	r4, sl, r3, asr #6
  f0:	554e4728 	strplb	r4, [lr, #-1832]
  f4:	2e332029 	cdpcs	0, 3, cr2, cr3, cr9, {1}
  f8:	00352e34 	eoreqs	r2, r5, r4, lsr lr
  fc:	43434700 	cmpmi	r3, #0	; 0x0
 100:	4728203a 	undefined
 104:	2029554e 	eorcs	r5, r9, lr, asr #10
 108:	2e342e33 	mrccs	14, 1, r2, cr4, cr3, {1}
 10c:	47000035 	smladxmi	r0, r5, r0, r0
 110:	203a4343 	eorcss	r4, sl, r3, asr #6
 114:	554e4728 	strplb	r4, [lr, #-1832]
 118:	2e332029 	cdpcs	0, 3, cr2, cr3, cr9, {1}
 11c:	00352e34 	eoreqs	r2, r5, r4, lsr lr
 120:	43434700 	cmpmi	r3, #0	; 0x0
 124:	4728203a 	undefined
 128:	2029554e 	eorcs	r5, r9, lr, asr #10
 12c:	2e342e33 	mrccs	14, 1, r2, cr4, cr3, {1}
 130:	47000035 	smladxmi	r0, r5, r0, r0
 134:	203a4343 	eorcss	r4, sl, r3, asr #6
 138:	554e4728 	strplb	r4, [lr, #-1832]
 13c:	2e332029 	cdpcs	0, 3, cr2, cr3, cr9, {1}
 140:	00352e34 	eoreqs	r2, r5, r4, lsr lr
 144:	43434700 	cmpmi	r3, #0	; 0x0
 148:	4728203a 	undefined
 14c:	2029554e 	eorcs	r5, r9, lr, asr #10
 150:	2e342e33 	mrccs	14, 1, r2, cr4, cr3, {1}
 154:	47000035 	smladxmi	r0, r5, r0, r0
 158:	203a4343 	eorcss	r4, sl, r3, asr #6
 15c:	554e4728 	strplb	r4, [lr, #-1832]
 160:	2e332029 	cdpcs	0, 3, cr2, cr3, cr9, {1}
 164:	00352e34 	eoreqs	r2, r5, r4, lsr lr
 168:	43434700 	cmpmi	r3, #0	; 0x0
 16c:	4728203a 	undefined
 170:	2029554e 	eorcs	r5, r9, lr, asr #10
 174:	2e342e33 	mrccs	14, 1, r2, cr4, cr3, {1}
 178:	Address 0x178 is out of bounds.

Disassembly of section .debug_aranges:

00000000 <.debug_aranges>:
   0:	0000001c 	andeq	r0, r0, ip, lsl r0
   4:	00000002 	andeq	r0, r0, r2
   8:	00040000 	andeq	r0, r4, r0
   c:	00000000 	andeq	r0, r0, r0
  10:	300031f0 	strccd	r3, [r0], -r0
  14:	00000388 	andeq	r0, r0, r8, lsl #7
	...
  20:	0000001c 	andeq	r0, r0, ip, lsl r0
  24:	01000002 	tsteq	r0, r2
  28:	00040000 	andeq	r0, r4, r0
  2c:	00000000 	andeq	r0, r0, r0
  30:	30003578 	andcc	r3, r0, r8, ror r5
  34:	00000580 	andeq	r0, r0, r0, lsl #11
	...
  40:	0000001c 	andeq	r0, r0, ip, lsl r0
  44:	02000002 	andeq	r0, r0, #2	; 0x2
  48:	00040000 	andeq	r0, r4, r0
  4c:	00000000 	andeq	r0, r0, r0
  50:	30003af8 	strccd	r3, [r0], -r8
  54:	00000080 	andeq	r0, r0, r0, lsl #1
	...
Disassembly of section .debug_info:

00000000 <.debug_info>:
   0:	000000fc 	streqd	r0, [r0], -ip
   4:	00000002 	andeq	r0, r0, r2
   8:	01040000 	tsteq	r4, r0
   c:	00000000 	andeq	r0, r0, r0
  10:	300031f0 	strccd	r3, [r0], -r0
  14:	30003578 	andcc	r3, r0, r8, ror r5
  18:	726f772f 	rsbvc	r7, pc, #12320768	; 0xbc0000
  1c:	6f742f6b 	swivs	0x00742f6b
  20:	2f736c6f 	swics	0x00736c6f
  24:	61657263 	cmnvs	r5, r3, ror #4
  28:	635f6574 	cmpvs	pc, #486539264	; 0x1d000000
  2c:	73736f72 	cmnvc	r3, #456	; 0x1c8
  30:	6c6f6f74 	stcvsl	15, cr6, [pc], #-464
  34:	72632f73 	rsbvc	r2, r3, #460	; 0x1cc
  38:	7473736f 	ldrvcbt	r7, [r3], #-879
  3c:	2d6c6f6f 	stccsl	15, cr6, [ip, #-444]!
  40:	33342e30 	teqcc	r4, #768	; 0x300
  44:	6975622f 	ldmvsdb	r5!, {r0, r1, r2, r3, r5, r9, sp, lr}^
  48:	612f646c 	teqvs	pc, ip, ror #8
  4c:	6c2d6d72 	stcvs	13, cr6, [sp], #-456
  50:	78756e69 	ldmvcda	r5!, {r0, r3, r5, r6, r9, sl, fp, sp, lr}^
  54:	6363672f 	cmnvs	r3, #12320768	; 0xbc0000
  58:	342e332d 	strcct	r3, [lr], #-813
  5c:	672d352e 	strvs	r3, [sp, -lr, lsr #10]!
  60:	6362696c 	cmnvs	r2, #1769472	; 0x1b0000
  64:	332e322d 	teqcc	lr, #-805306366	; 0xd0000002
  68:	672f362e 	strvs	r3, [pc, -lr, lsr #12]!
  6c:	332d6363 	teqcc	sp, #-1946157055	; 0x8c000001
  70:	352e342e 	strcc	r3, [lr, #-1070]!
  74:	6363672f 	cmnvs	r3, #12320768	; 0xbc0000
  78:	6e6f632f 	cdpvs	3, 6, cr6, cr15, cr15, {1}
  7c:	2f676966 	swics	0x00676966
  80:	2f6d7261 	swics	0x006d7261
  84:	65656569 	strvsb	r6, [r5, #-1385]!
  88:	2d343537 	cfldr32cs	mvfx3, [r4, #-220]!
  8c:	532e6664 	teqpl	lr, #104857600	; 0x6400000
  90:	6f772f00 	swivs	0x00772f00
  94:	742f6b72 	strvct	r6, [pc], #2930	; 9c <__code_start-0x2fffff64>
  98:	736c6f6f 	cmnvc	ip, #444	; 0x1bc
  9c:	6572632f 	ldrvsb	r6, [r2, #-815]!
  a0:	5f657461 	swipl	0x00657461
  a4:	736f7263 	cmnvc	pc, #805306374	; 0x30000006
  a8:	6f6f7473 	swivs	0x006f7473
  ac:	632f736c 	teqvs	pc, #-1342177279	; 0xb0000001
  b0:	73736f72 	cmnvc	r3, #456	; 0x1c8
  b4:	6c6f6f74 	stcvsl	15, cr6, [pc], #-464
  b8:	342e302d 	strcct	r3, [lr], #-45
  bc:	75622f33 	strvcb	r2, [r2, #-3891]!
  c0:	2f646c69 	swics	0x00646c69
  c4:	2d6d7261 	sfmcs	f7, 2, [sp, #-388]!
  c8:	756e696c 	strvcb	r6, [lr, #-2412]!
  cc:	63672f78 	cmnvs	r7, #480	; 0x1e0
  d0:	2e332d63 	cdpcs	13, 3, cr2, cr3, cr3, {3}
  d4:	2d352e34 	ldccs	14, cr2, [r5, #-208]!
  d8:	62696c67 	rsbvs	r6, r9, #26368	; 0x6700
  dc:	2e322d63 	cdpcs	13, 3, cr2, cr2, cr3, {3}
  e0:	2f362e33 	swics	0x00362e33
  e4:	6c697562 	cfstr64vs	mvdx7, [r9], #-392
  e8:	63672d64 	cmnvs	r7, #6400	; 0x1900
  ec:	63672f63 	cmnvs	r7, #396	; 0x18c
  f0:	4e470063 	cdpmi	0, 4, cr0, cr7, cr3, {3}
  f4:	53412055 	cmppl	r1, #85	; 0x55
  f8:	312e3220 	teqcc	lr, r0, lsr #4
  fc:	80010035 	andhi	r0, r1, r5, lsr r0
 100:	000000fc 	streqd	r0, [r0], -ip
 104:	00140002 	andeqs	r0, r4, r2
 108:	01040000 	tsteq	r4, r0
 10c:	000001fe 	streqd	r0, [r0], -lr
 110:	30003578 	andcc	r3, r0, r8, ror r5
 114:	30003af8 	strccd	r3, [r0], -r8
 118:	726f772f 	rsbvc	r7, pc, #12320768	; 0xbc0000
 11c:	6f742f6b 	swivs	0x00742f6b
 120:	2f736c6f 	swics	0x00736c6f
 124:	61657263 	cmnvs	r5, r3, ror #4
 128:	635f6574 	cmpvs	pc, #486539264	; 0x1d000000
 12c:	73736f72 	cmnvc	r3, #456	; 0x1c8
 130:	6c6f6f74 	stcvsl	15, cr6, [pc], #-464
 134:	72632f73 	rsbvc	r2, r3, #460	; 0x1cc
 138:	7473736f 	ldrvcbt	r7, [r3], #-879
 13c:	2d6c6f6f 	stccsl	15, cr6, [ip, #-444]!
 140:	33342e30 	teqcc	r4, #768	; 0x300
 144:	6975622f 	ldmvsdb	r5!, {r0, r1, r2, r3, r5, r9, sp, lr}^
 148:	612f646c 	teqvs	pc, ip, ror #8
 14c:	6c2d6d72 	stcvs	13, cr6, [sp], #-456
 150:	78756e69 	ldmvcda	r5!, {r0, r3, r5, r6, r9, sl, fp, sp, lr}^
 154:	6363672f 	cmnvs	r3, #12320768	; 0xbc0000
 158:	342e332d 	strcct	r3, [lr], #-813
 15c:	672d352e 	strvs	r3, [sp, -lr, lsr #10]!
 160:	6362696c 	cmnvs	r2, #1769472	; 0x1b0000
 164:	332e322d 	teqcc	lr, #-805306366	; 0xd0000002
 168:	672f362e 	strvs	r3, [pc, -lr, lsr #12]!
 16c:	332d6363 	teqcc	sp, #-1946157055	; 0x8c000001
 170:	352e342e 	strcc	r3, [lr, #-1070]!
 174:	6363672f 	cmnvs	r3, #12320768	; 0xbc0000
 178:	6e6f632f 	cdpvs	3, 6, cr6, cr15, cr15, {1}
 17c:	2f676966 	swics	0x00676966
 180:	2f6d7261 	swics	0x006d7261
 184:	65656569 	strvsb	r6, [r5, #-1385]!
 188:	2d343537 	cfldr32cs	mvfx3, [r4, #-220]!
 18c:	532e6664 	teqpl	lr, #104857600	; 0x6400000
 190:	6f772f00 	swivs	0x00772f00
 194:	742f6b72 	strvct	r6, [pc], #2930	; 19c <__code_start-0x2ffffe64>
 198:	736c6f6f 	cmnvc	ip, #444	; 0x1bc
 19c:	6572632f 	ldrvsb	r6, [r2, #-815]!
 1a0:	5f657461 	swipl	0x00657461
 1a4:	736f7263 	cmnvc	pc, #805306374	; 0x30000006
 1a8:	6f6f7473 	swivs	0x006f7473
 1ac:	632f736c 	teqvs	pc, #-1342177279	; 0xb0000001
 1b0:	73736f72 	cmnvc	r3, #456	; 0x1c8
 1b4:	6c6f6f74 	stcvsl	15, cr6, [pc], #-464
 1b8:	342e302d 	strcct	r3, [lr], #-45
 1bc:	75622f33 	strvcb	r2, [r2, #-3891]!
 1c0:	2f646c69 	swics	0x00646c69
 1c4:	2d6d7261 	sfmcs	f7, 2, [sp, #-388]!
 1c8:	756e696c 	strvcb	r6, [lr, #-2412]!
 1cc:	63672f78 	cmnvs	r7, #480	; 0x1e0
 1d0:	2e332d63 	cdpcs	13, 3, cr2, cr3, cr3, {3}
 1d4:	2d352e34 	ldccs	14, cr2, [r5, #-208]!
 1d8:	62696c67 	rsbvs	r6, r9, #26368	; 0x6700
 1dc:	2e322d63 	cdpcs	13, 3, cr2, cr2, cr3, {3}
 1e0:	2f362e33 	swics	0x00362e33
 1e4:	6c697562 	cfstr64vs	mvdx7, [r9], #-392
 1e8:	63672d64 	cmnvs	r7, #6400	; 0x1900
 1ec:	63672f63 	cmnvs	r7, #396	; 0x18c
 1f0:	4e470063 	cdpmi	0, 4, cr0, cr7, cr3, {3}
 1f4:	53412055 	cmppl	r1, #85	; 0x55
 1f8:	312e3220 	teqcc	lr, r0, lsr #4
 1fc:	80010035 	andhi	r0, r1, r5, lsr r0
 200:	000000fc 	streqd	r0, [r0], -ip
 204:	00280002 	eoreq	r0, r8, r2
 208:	01040000 	tsteq	r4, r0
 20c:	00000494 	muleq	r0, r4, r4
 210:	30003af8 	strccd	r3, [r0], -r8
 214:	30003b78 	andcc	r3, r0, r8, ror fp
 218:	726f772f 	rsbvc	r7, pc, #12320768	; 0xbc0000
 21c:	6f742f6b 	swivs	0x00742f6b
 220:	2f736c6f 	swics	0x00736c6f
 224:	61657263 	cmnvs	r5, r3, ror #4
 228:	635f6574 	cmpvs	pc, #486539264	; 0x1d000000
 22c:	73736f72 	cmnvc	r3, #456	; 0x1c8
 230:	6c6f6f74 	stcvsl	15, cr6, [pc], #-464
 234:	72632f73 	rsbvc	r2, r3, #460	; 0x1cc
 238:	7473736f 	ldrvcbt	r7, [r3], #-879
 23c:	2d6c6f6f 	stccsl	15, cr6, [ip, #-444]!
 240:	33342e30 	teqcc	r4, #768	; 0x300
 244:	6975622f 	ldmvsdb	r5!, {r0, r1, r2, r3, r5, r9, sp, lr}^
 248:	612f646c 	teqvs	pc, ip, ror #8
 24c:	6c2d6d72 	stcvs	13, cr6, [sp], #-456
 250:	78756e69 	ldmvcda	r5!, {r0, r3, r5, r6, r9, sl, fp, sp, lr}^
 254:	6363672f 	cmnvs	r3, #12320768	; 0xbc0000
 258:	342e332d 	strcct	r3, [lr], #-813
 25c:	672d352e 	strvs	r3, [sp, -lr, lsr #10]!
 260:	6362696c 	cmnvs	r2, #1769472	; 0x1b0000
 264:	332e322d 	teqcc	lr, #-805306366	; 0xd0000002
 268:	672f362e 	strvs	r3, [pc, -lr, lsr #12]!
 26c:	332d6363 	teqcc	sp, #-1946157055	; 0x8c000001
 270:	352e342e 	strcc	r3, [lr, #-1070]!
 274:	6363672f 	cmnvs	r3, #12320768	; 0xbc0000
 278:	6e6f632f 	cdpvs	3, 6, cr6, cr15, cr15, {1}
 27c:	2f676966 	swics	0x00676966
 280:	2f6d7261 	swics	0x006d7261
 284:	65656569 	strvsb	r6, [r5, #-1385]!
 288:	2d343537 	cfldr32cs	mvfx3, [r4, #-220]!
 28c:	532e6664 	teqpl	lr, #104857600	; 0x6400000
 290:	6f772f00 	swivs	0x00772f00
 294:	742f6b72 	strvct	r6, [pc], #2930	; 29c <__code_start-0x2ffffd64>
 298:	736c6f6f 	cmnvc	ip, #444	; 0x1bc
 29c:	6572632f 	ldrvsb	r6, [r2, #-815]!
 2a0:	5f657461 	swipl	0x00657461
 2a4:	736f7263 	cmnvc	pc, #805306374	; 0x30000006
 2a8:	6f6f7473 	swivs	0x006f7473
 2ac:	632f736c 	teqvs	pc, #-1342177279	; 0xb0000001
 2b0:	73736f72 	cmnvc	r3, #456	; 0x1c8
 2b4:	6c6f6f74 	stcvsl	15, cr6, [pc], #-464
 2b8:	342e302d 	strcct	r3, [lr], #-45
 2bc:	75622f33 	strvcb	r2, [r2, #-3891]!
 2c0:	2f646c69 	swics	0x00646c69
 2c4:	2d6d7261 	sfmcs	f7, 2, [sp, #-388]!
 2c8:	756e696c 	strvcb	r6, [lr, #-2412]!
 2cc:	63672f78 	cmnvs	r7, #480	; 0x1e0
 2d0:	2e332d63 	cdpcs	13, 3, cr2, cr3, cr3, {3}
 2d4:	2d352e34 	ldccs	14, cr2, [r5, #-208]!
 2d8:	62696c67 	rsbvs	r6, r9, #26368	; 0x6700
 2dc:	2e322d63 	cdpcs	13, 3, cr2, cr2, cr3, {3}
 2e0:	2f362e33 	swics	0x00362e33
 2e4:	6c697562 	cfstr64vs	mvdx7, [r9], #-392
 2e8:	63672d64 	cmnvs	r7, #6400	; 0x1900
 2ec:	63672f63 	cmnvs	r7, #396	; 0x18c
 2f0:	4e470063 	cdpmi	0, 4, cr0, cr7, cr3, {3}
 2f4:	53412055 	cmppl	r1, #85	; 0x55
 2f8:	312e3220 	teqcc	lr, r0, lsr #4
 2fc:	80010035 	andhi	r0, r1, r5, lsr r0
Disassembly of section .debug_abbrev:

00000000 <.debug_abbrev>:
   0:	10001101 	andne	r1, r0, r1, lsl #2
   4:	12011106 	andne	r1, r1, #-2147483647	; 0x80000001
   8:	1b080301 	blne	200c14 <__code_start-0x2fdff3ec>
   c:	13082508 	tstne	r8, #33554432	; 0x2000000
  10:	00000005 	andeq	r0, r0, r5
  14:	10001101 	andne	r1, r0, r1, lsl #2
  18:	12011106 	andne	r1, r1, #-2147483647	; 0x80000001
  1c:	1b080301 	blne	200c28 <__code_start-0x2fdff3d8>
  20:	13082508 	tstne	r8, #33554432	; 0x2000000
  24:	00000005 	andeq	r0, r0, r5
  28:	10001101 	andne	r1, r0, r1, lsl #2
  2c:	12011106 	andne	r1, r1, #-2147483647	; 0x80000001
  30:	1b080301 	blne	200c3c <__code_start-0x2fdff3c4>
  34:	13082508 	tstne	r8, #33554432	; 0x2000000
  38:	00000005 	andeq	r0, r0, r5
Disassembly of section .debug_line:

00000000 <.debug_line>:
   0:	000001e0 	andeq	r0, r0, r0, ror #3
   4:	009d0002 	addeqs	r0, sp, r2
   8:	01020000 	tsteq	r2, r0
   c:	000a0efb 	streqd	r0, [sl], -fp
  10:	01010101 	tsteq	r1, r1, lsl #2
  14:	01000000 	tsteq	r0, r0
  18:	726f772f 	rsbvc	r7, pc, #12320768	; 0xbc0000
  1c:	6f742f6b 	swivs	0x00742f6b
  20:	2f736c6f 	swics	0x00736c6f
  24:	61657263 	cmnvs	r5, r3, ror #4
  28:	635f6574 	cmpvs	pc, #486539264	; 0x1d000000
  2c:	73736f72 	cmnvc	r3, #456	; 0x1c8
  30:	6c6f6f74 	stcvsl	15, cr6, [pc], #-464
  34:	72632f73 	rsbvc	r2, r3, #460	; 0x1cc
  38:	7473736f 	ldrvcbt	r7, [r3], #-879
  3c:	2d6c6f6f 	stccsl	15, cr6, [ip, #-444]!
  40:	33342e30 	teqcc	r4, #768	; 0x300
  44:	6975622f 	ldmvsdb	r5!, {r0, r1, r2, r3, r5, r9, sp, lr}^
  48:	612f646c 	teqvs	pc, ip, ror #8
  4c:	6c2d6d72 	stcvs	13, cr6, [sp], #-456
  50:	78756e69 	ldmvcda	r5!, {r0, r3, r5, r6, r9, sl, fp, sp, lr}^
  54:	6363672f 	cmnvs	r3, #12320768	; 0xbc0000
  58:	342e332d 	strcct	r3, [lr], #-813
  5c:	672d352e 	strvs	r3, [sp, -lr, lsr #10]!
  60:	6362696c 	cmnvs	r2, #1769472	; 0x1b0000
  64:	332e322d 	teqcc	lr, #-805306366	; 0xd0000002
  68:	672f362e 	strvs	r3, [pc, -lr, lsr #12]!
  6c:	332d6363 	teqcc	sp, #-1946157055	; 0x8c000001
  70:	352e342e 	strcc	r3, [lr, #-1070]!
  74:	6363672f 	cmnvs	r3, #12320768	; 0xbc0000
  78:	6e6f632f 	cdpvs	3, 6, cr6, cr15, cr15, {1}
  7c:	2f676966 	swics	0x00676966
  80:	006d7261 	rsbeq	r7, sp, r1, ror #4
  84:	65656900 	strvsb	r6, [r5, #-2304]!
  88:	34353765 	ldrcct	r3, [r5], #-1893
  8c:	2e66642d 	cdpcs	4, 6, cr6, cr6, cr13, {1}
  90:	00010053 	andeq	r0, r1, r3, asr r0
  94:	62696c00 	rsbvs	r6, r9, #0	; 0x0
  98:	6e756631 	mrcvs	6, 3, r6, cr5, cr1, {1}
  9c:	612e7363 	teqvs	lr, r3, ror #6
  a0:	01006d73 	tsteq	r0, r3, ror sp
  a4:	00000000 	andeq	r0, r0, r0
  a8:	31f00205 	mvnccs	r0, r5, lsl #4
  ac:	c9033000 	stmgtdb	r3, {ip, sp}
  b0:	2c330100 	ldfcss	f0, [r3]
  b4:	2c2f2c2c 	stccs	12, cr2, [pc], #-176
  b8:	2d2c2c2c 	stccs	12, cr2, [ip, #-176]!
  bc:	2c2c2c2e 	stccs	12, cr2, [ip], #-184
  c0:	2f2c2c2e 	swics	0x002c2c2e
  c4:	2c2c2c2c 	stccs	12, cr2, [ip], #-176
  c8:	2c2c2c2c 	stccs	12, cr2, [ip], #-176
  cc:	0204312c 	andeq	r3, r4, #11	; 0xb
  d0:	33010427 	tstcc	r1, #654311424	; 0x27000000
  d4:	2c2c2c2c 	stccs	12, cr2, [ip], #-176
  d8:	2c2c2d2c 	stccs	13, cr2, [ip], #-176
  dc:	2f2c2c2c 	swics	0x002c2c2c
  e0:	2c2c302c 	stccs	0, cr3, [ip], #-176
  e4:	2c2c2c2c 	stccs	12, cr2, [ip], #-176
  e8:	2e2c2c2c 	cdpcs	12, 2, cr2, cr12, cr12, {1}
  ec:	2c2c2c2c 	stccs	12, cr2, [ip], #-176
  f0:	2c2c2c2c 	stccs	12, cr2, [ip], #-176
  f4:	2c2c2c2c 	stccs	12, cr2, [ip], #-176
  f8:	2c2f2c2e 	stccs	12, cr2, [pc], #-184
  fc:	2f2c2c2c 	swics	0x002c2c2c
 100:	2c2c2c2c 	stccs	12, cr2, [ip], #-176
 104:	2c2c2e2c 	stccs	14, cr2, [ip], #-176
 108:	2c2d2c2c 	stccs	12, cr2, [sp], #-176
 10c:	312c2c2c 	teqcc	ip, ip, lsr #24
 110:	2f2c2c2c 	swics	0x002c2c2c
 114:	2f2c2e2c 	swics	0x002c2e2c
 118:	02042c2c 	andeq	r2, r4, #11264	; 0x2c00
 11c:	2b7f9003 	blcs	1fe4130 <__code_start-0x2e01bed0>
 120:	f8030104 	stmnvda	r3, {r2, r8}
 124:	2c2c2b00 	stccs	11, cr2, [ip]
 128:	2c2c2c2c 	stccs	12, cr2, [ip], #-176
 12c:	2c2c2c2c 	stccs	12, cr2, [ip], #-176
 130:	2c2c2c2c 	stccs	12, cr2, [ip], #-176
 134:	2c2c2c2c 	stccs	12, cr2, [ip], #-176
 138:	2b0e032c 	blcs	380df0 <__code_start-0x2fc7f210>
 13c:	2f2c2c2c 	swics	0x002c2c2c
 140:	2c2c2c2c 	stccs	12, cr2, [ip], #-176
 144:	2c2c2c2f 	stccs	12, cr2, [ip], #-188
 148:	2f2c2e2c 	swics	0x002c2e2c
 14c:	2c2c2c2c 	stccs	12, cr2, [ip], #-176
 150:	2c2c2c2e 	stccs	12, cr2, [ip], #-184
 154:	0302042c 	tsteq	r2, #738197504	; 0x2c000000
 158:	042b7ec1 	streqt	r7, [fp], #-3777
 15c:	01c40301 	biceq	r0, r4, r1, lsl #6
 160:	2c2c2c2b 	stccs	12, cr2, [ip], #-172
 164:	0302042c 	tsteq	r2, #738197504	; 0x2c000000
 168:	042b7eb8 	streqt	r7, [fp], #-3768
 16c:	01cd0301 	biceq	r0, sp, r1, lsl #6
 170:	02042c2b 	andeq	r2, r4, #11008	; 0x2b00
 174:	2b7eb203 	blcs	1fac988 <__code_start-0x2e053678>
 178:	d3030104 	tstle	r3, #1	; 0x1
 17c:	2c2c2b01 	stccs	11, cr2, [ip], #-4
 180:	2f2c2c2c 	swics	0x002c2c2c
 184:	2c2c2c2c 	stccs	12, cr2, [ip], #-176
 188:	2c2f2c2c 	stccs	12, cr2, [pc], #-176
 18c:	0302042c 	tsteq	r2, #738197504	; 0x2c000000
 190:	042b7e98 	streqt	r7, [fp], #-3736
 194:	01f20301 	mvneqs	r0, r1, lsl #6
 198:	2c2c2c2b 	stccs	12, cr2, [ip], #-172
 19c:	8b030204 	blhi	c09b4 <__code_start-0x2ff3f64c>
 1a0:	01042b7e 	tsteq	r4, lr, ror fp
 1a4:	2b01f803 	blcs	7e1b8 <__code_start-0x2ff81e48>
 1a8:	2c2c2c2c 	stccs	12, cr2, [ip], #-176
 1ac:	84030204 	strhi	r0, [r3], #-516
 1b0:	01042b7e 	tsteq	r4, lr, ror fp
 1b4:	2b028303 	blcs	a0dc8 <__code_start-0x2ff5f238>
 1b8:	2c2c2c2c 	stccs	12, cr2, [ip], #-176
 1bc:	2c2c2c2c 	stccs	12, cr2, [ip], #-176
 1c0:	2c2c302c 	stccs	0, cr3, [ip], #-176
 1c4:	2c2c2c2c 	stccs	12, cr2, [ip], #-176
 1c8:	2c2c2c2c 	stccs	12, cr2, [ip], #-176
 1cc:	2c2c2c30 	stccs	12, cr2, [ip], #-192
 1d0:	2c2c2c2c 	stccs	12, cr2, [ip], #-176
 1d4:	2c2d2c2c 	stccs	12, cr2, [sp], #-176
 1d8:	2c2c2e2c 	stccs	14, cr2, [ip], #-176
 1dc:	022c2c2c 	eoreq	r2, ip, #11264	; 0x2c00
 1e0:	01010002 	tsteq	r1, r2
 1e4:	00000016 	andeq	r0, r0, r6, lsl r0
 1e8:	00100002 	andeqs	r0, r0, r2
 1ec:	01020000 	tsteq	r2, r0
 1f0:	000a0efb 	streqd	r0, [sl], -fp
 1f4:	01010101 	tsteq	r1, r1, lsl #2
 1f8:	01000000 	tsteq	r0, r0
 1fc:	02780000 	rsbeqs	r0, r8, #0	; 0x0
 200:	00020000 	andeq	r0, r2, r0
 204:	0000009d 	muleq	r0, sp, r0
 208:	0efb0102 	cdpeq	1, 15, cr0, cr11, cr2, {0}
 20c:	0101000a 	tsteq	r1, sl
 210:	00000101 	andeq	r0, r0, r1, lsl #2
 214:	772f0100 	strvc	r0, [pc, -r0, lsl #2]!
 218:	2f6b726f 	swics	0x006b726f
 21c:	6c6f6f74 	stcvsl	15, cr6, [pc], #-464
 220:	72632f73 	rsbvc	r2, r3, #460	; 0x1cc
 224:	65746165 	ldrvsb	r6, [r4, #-357]!
 228:	6f72635f 	swivs	0x0072635f
 22c:	6f747373 	swivs	0x00747373
 230:	2f736c6f 	swics	0x00736c6f
 234:	736f7263 	cmnvc	pc, #805306374	; 0x30000006
 238:	6f6f7473 	swivs	0x006f7473
 23c:	2e302d6c 	cdpcs	13, 3, cr2, cr0, cr12, {3}
 240:	622f3334 	eorvs	r3, pc, #-805306368	; 0xd0000000
 244:	646c6975 	strvsbt	r6, [ip], #-2421
 248:	6d72612f 	ldfvse	f6, [r2, #-188]!
 24c:	6e696c2d 	cdpvs	12, 6, cr6, cr9, cr13, {1}
 250:	672f7875 	undefined
 254:	332d6363 	teqcc	sp, #-1946157055	; 0x8c000001
 258:	352e342e 	strcc	r3, [lr, #-1070]!
 25c:	696c672d 	stmvsdb	ip!, {r0, r2, r3, r5, r8, r9, sl, sp, lr}^
 260:	322d6362 	eorcc	r6, sp, #-2013265919	; 0x88000001
 264:	362e332e 	strcct	r3, [lr], -lr, lsr #6
 268:	6363672f 	cmnvs	r3, #12320768	; 0xbc0000
 26c:	342e332d 	strcct	r3, [lr], #-813
 270:	672f352e 	strvs	r3, [pc, -lr, lsr #10]!
 274:	632f6363 	teqvs	pc, #-1946157055	; 0x8c000001
 278:	69666e6f 	stmvsdb	r6!, {r0, r1, r2, r3, r5, r6, r9, sl, fp, sp, lr}^
 27c:	72612f67 	rsbvc	r2, r1, #412	; 0x19c
 280:	6900006d 	stmvsdb	r0, {r0, r2, r3, r5, r6}
 284:	37656565 	strccb	r6, [r5, -r5, ror #10]!
 288:	642d3435 	strvst	r3, [sp], #-1077
 28c:	00532e66 	subeqs	r2, r3, r6, ror #28
 290:	6c000001 	stcvs	0, cr0, [r0], {1}
 294:	66316269 	ldrvst	r6, [r1], -r9, ror #4
 298:	73636e75 	cmnvc	r3, #1872	; 0x750
 29c:	6d73612e 	ldfvse	f6, [r3, #-184]!
 2a0:	00000100 	andeq	r0, r0, r0, lsl #2
 2a4:	02050000 	andeq	r0, r5, #0	; 0x0
 2a8:	30003578 	andcc	r3, r0, r8, ror r5
 2ac:	0103b703 	tsteq	r3, r3, lsl #14
 2b0:	2c2c2c2e 	stccs	12, cr2, [ip], #-184
 2b4:	2e2c2c2e 	cdpcs	12, 2, cr2, cr12, cr14, {1}
 2b8:	2c302c2c 	ldccs	12, cr2, [r0], #-176
 2bc:	2c2e2d2c 	stccs	13, cr2, [lr], #-176
 2c0:	2c2c2c2e 	stccs	12, cr2, [ip], #-184
 2c4:	2c2c2c31 	stccs	12, cr2, [ip], #-196
 2c8:	2c2c2c2c 	stccs	12, cr2, [ip], #-176
 2cc:	2c2c2c2c 	stccs	12, cr2, [ip], #-176
 2d0:	2c2c2c2c 	stccs	12, cr2, [ip], #-176
 2d4:	2c2c2c2c 	stccs	12, cr2, [ip], #-176
 2d8:	2c2c2c2c 	stccs	12, cr2, [ip], #-176
 2dc:	2c2c2c2c 	stccs	12, cr2, [ip], #-176
 2e0:	2c2c2c2c 	stccs	12, cr2, [ip], #-176
 2e4:	2c2c2c2c 	stccs	12, cr2, [ip], #-176
 2e8:	2c2c2c2c 	stccs	12, cr2, [ip], #-176
 2ec:	2c2c2c2c 	stccs	12, cr2, [ip], #-176
 2f0:	2c2c2c2c 	stccs	12, cr2, [ip], #-176
 2f4:	2c2c2c2c 	stccs	12, cr2, [ip], #-176
 2f8:	2b10032c 	blcs	400fb0 <__code_start-0x2fbff050>
 2fc:	2e2c2e2c 	cdpcs	14, 2, cr2, cr12, cr12, {1}
 300:	2c2c2c2c 	stccs	12, cr2, [ip], #-176
 304:	2c2f2c2c 	stccs	12, cr2, [pc], #-176
 308:	2c2e2c2c 	stccs	12, cr2, [lr], #-176
 30c:	2c2c2e2c 	stccs	14, cr2, [ip], #-176
 310:	2f2c2c2c 	swics	0x002c2c2c
 314:	2c2c2e2c 	stccs	14, cr2, [ip], #-176
 318:	02042c2e 	andeq	r2, r4, #11776	; 0x2e00
 31c:	2b7ca403 	blcs	1f29330 <__code_start-0x2e0d6cd0>
 320:	e1030104 	tst	r3, r4, lsl #2
 324:	2c2d2b03 	stccs	11, cr2, [sp], #-12
 328:	9c030204 	sfmls	f0, 4, [r3], {4}
 32c:	01042b7c 	tsteq	r4, ip, ror fp
 330:	2b03e903 	blcs	fa744 <__code_start-0x2ff058bc>
 334:	02042c2c 	andeq	r2, r4, #11264	; 0x2c00
 338:	2b7c9503 	blcs	1f2574c <__code_start-0x2e0da8b4>
 33c:	f0030104 	andnv	r0, r3, r4, lsl #2
 340:	2c2c2b03 	stccs	11, cr2, [ip], #-12
 344:	2c2e2c2c 	stccs	12, cr2, [lr], #-176
 348:	2c2c2c2c 	stccs	12, cr2, [ip], #-176
 34c:	2c2c2c2c 	stccs	12, cr2, [ip], #-176
 350:	042c2c2c 	streqt	r2, [ip], #-3116
 354:	7bfd0302 	blvc	fff40f64 <_end+0xcff3bcf4>
 358:	0301042b 	tsteq	r1, #721420288	; 0x2b000000
 35c:	2c2b0488 	cfstrscs	mvf0, [fp], #-544
 360:	2c2c2c2c 	stccs	12, cr2, [ip], #-176
 364:	2c2c2c2c 	stccs	12, cr2, [ip], #-176
 368:	0302042c 	tsteq	r2, #738197504	; 0x2c000000
 36c:	042b7bee 	streqt	r7, [fp], #-3054
 370:	04970301 	ldreq	r0, [r7], #769
 374:	2c2c2c2b 	stccs	12, cr2, [ip], #-172
 378:	2c2c2c2c 	stccs	12, cr2, [ip], #-176
 37c:	042c2c2c 	streqt	r2, [ip], #-3116
 380:	7bdf0302 	blvc	ff7c0f90 <_end+0xcf7bbd20>
 384:	0301042b 	tsteq	r1, #721420288	; 0x2b000000
 388:	2c2b04a7 	cfstrscs	mvf0, [fp], #-668
 38c:	2c2c2c2c 	stccs	12, cr2, [ip], #-176
 390:	2c2c2c2c 	stccs	12, cr2, [ip], #-176
 394:	2c2c2c2c 	stccs	12, cr2, [ip], #-176
 398:	2c2c2c2c 	stccs	12, cr2, [ip], #-176
 39c:	2c2f2c2c 	stccs	12, cr2, [pc], #-176
 3a0:	2c2c2c2c 	stccs	12, cr2, [ip], #-176
 3a4:	2c2c2c2c 	stccs	12, cr2, [ip], #-176
 3a8:	2c2f2f2c 	stccs	15, cr2, [pc], #-176
 3ac:	02042c2c 	andeq	r2, r4, #11264	; 0x2c00
 3b0:	2b7bad03 	blcs	1eeb7c4 <__code_start-0x2e11483c>
 3b4:	d8030104 	stmleda	r3, {r2, r8}
 3b8:	042c2b04 	streqt	r2, [ip], #-2820
 3bc:	7ba70302 	blvc	fe9c0fcc <_end+0xce9bbd5c>
 3c0:	0301042b 	tsteq	r1, #721420288	; 0x2b000000
 3c4:	2e2b04e0 	cdpcs	4, 2, cr0, cr11, cr0, {7}
 3c8:	2e2c2c2c 	cdpcs	12, 2, cr2, cr12, cr12, {1}
 3cc:	2c2c2c2c 	stccs	12, cr2, [ip], #-176
 3d0:	2d2c2c30 	stccs	12, cr2, [ip, #-192]!
 3d4:	2c2c2f2e 	stccs	15, cr2, [ip], #-184
 3d8:	2c2c2c2c 	stccs	12, cr2, [ip], #-176
 3dc:	2c2c2c2c 	stccs	12, cr2, [ip], #-176
 3e0:	2c2c2e2e 	stccs	14, cr2, [ip], #-184
 3e4:	2e2c2c2c 	cdpcs	12, 2, cr2, cr12, cr12, {1}
 3e8:	2c2c2c2c 	stccs	12, cr2, [ip], #-176
 3ec:	2c2c2e2c 	stccs	14, cr2, [ip], #-176
 3f0:	2e2c2c2c 	cdpcs	12, 2, cr2, cr12, cr12, {1}
 3f4:	2c2c2c2c 	stccs	12, cr2, [ip], #-176
 3f8:	2c2c2c2c 	stccs	12, cr2, [ip], #-176
 3fc:	2c2c2c2c 	stccs	12, cr2, [ip], #-176
 400:	2c2c2c2c 	stccs	12, cr2, [ip], #-176
 404:	2c2c2c2c 	stccs	12, cr2, [ip], #-176
 408:	2c2c2c2c 	stccs	12, cr2, [ip], #-176
 40c:	2c2c2d2c 	stccs	13, cr2, [ip], #-176
 410:	2c2c2c2c 	stccs	12, cr2, [ip], #-176
 414:	2f2c2c2c 	swics	0x002c2c2c
 418:	2c2c2c2c 	stccs	12, cr2, [ip], #-176
 41c:	2c2c2e2c 	stccs	14, cr2, [ip], #-176
 420:	2c2e2c2e 	stccs	12, cr2, [lr], #-184
 424:	2c2c2c2c 	stccs	12, cr2, [ip], #-176
 428:	02042c2e 	andeq	r2, r4, #11776	; 0x2e00
 42c:	2b7a9903 	blcs	1ea6840 <__code_start-0x2e1597c0>
 430:	ec030104 	stfs	f0, [r3], {4}
 434:	2c2c2b05 	stccs	11, cr2, [ip], #-20
 438:	2c2c2c2c 	stccs	12, cr2, [ip], #-176
 43c:	0302042c 	tsteq	r2, #738197504	; 0x2c000000
 440:	042b7a8d 	streqt	r7, [fp], #-2701
 444:	05f60301 	ldreqb	r0, [r6, #769]!
 448:	2c2c2c2b 	stccs	12, cr2, [ip], #-172
 44c:	302c302c 	eorcc	r3, ip, ip, lsr #32
 450:	2c2c2c2c 	stccs	12, cr2, [ip], #-176
 454:	2c2c2c2c 	stccs	12, cr2, [ip], #-176
 458:	2c2c2c2c 	stccs	12, cr2, [ip], #-176
 45c:	2c2c2c2c 	stccs	12, cr2, [ip], #-176
 460:	2f2c2c2c 	swics	0x002c2c2c
 464:	2c2c2c2c 	stccs	12, cr2, [ip], #-176
 468:	2c2c2c2c 	stccs	12, cr2, [ip], #-176
 46c:	2c2c2c2c 	stccs	12, cr2, [ip], #-176
 470:	2c2c2c2d 	stccs	12, cr2, [ip], #-180
 474:	0002022c 	andeq	r0, r2, ip, lsr #4
 478:	00160101 	andeqs	r0, r6, r1, lsl #2
 47c:	00020000 	andeq	r0, r2, r0
 480:	00000010 	andeq	r0, r0, r0, lsl r0
 484:	0efb0102 	cdpeq	1, 15, cr0, cr11, cr2, {0}
 488:	0101000a 	tsteq	r1, sl
 48c:	00000101 	andeq	r0, r0, r1, lsl #2
 490:	00000100 	andeq	r0, r0, r0, lsl #2
 494:	000000c1 	andeq	r0, r0, r1, asr #1
 498:	008c0002 	addeq	r0, ip, r2
 49c:	01020000 	tsteq	r2, r0
 4a0:	000a0efb 	streqd	r0, [sl], -fp
 4a4:	01010101 	tsteq	r1, r1, lsl #2
 4a8:	01000000 	tsteq	r0, r0
 4ac:	726f772f 	rsbvc	r7, pc, #12320768	; 0xbc0000
 4b0:	6f742f6b 	swivs	0x00742f6b
 4b4:	2f736c6f 	swics	0x00736c6f
 4b8:	61657263 	cmnvs	r5, r3, ror #4
 4bc:	635f6574 	cmpvs	pc, #486539264	; 0x1d000000
 4c0:	73736f72 	cmnvc	r3, #456	; 0x1c8
 4c4:	6c6f6f74 	stcvsl	15, cr6, [pc], #-464
 4c8:	72632f73 	rsbvc	r2, r3, #460	; 0x1cc
 4cc:	7473736f 	ldrvcbt	r7, [r3], #-879
 4d0:	2d6c6f6f 	stccsl	15, cr6, [ip, #-444]!
 4d4:	33342e30 	teqcc	r4, #768	; 0x300
 4d8:	6975622f 	ldmvsdb	r5!, {r0, r1, r2, r3, r5, r9, sp, lr}^
 4dc:	612f646c 	teqvs	pc, ip, ror #8
 4e0:	6c2d6d72 	stcvs	13, cr6, [sp], #-456
 4e4:	78756e69 	ldmvcda	r5!, {r0, r3, r5, r6, r9, sl, fp, sp, lr}^
 4e8:	6363672f 	cmnvs	r3, #12320768	; 0xbc0000
 4ec:	342e332d 	strcct	r3, [lr], #-813
 4f0:	672d352e 	strvs	r3, [sp, -lr, lsr #10]!
 4f4:	6362696c 	cmnvs	r2, #1769472	; 0x1b0000
 4f8:	332e322d 	teqcc	lr, #-805306366	; 0xd0000002
 4fc:	672f362e 	strvs	r3, [pc, -lr, lsr #12]!
 500:	332d6363 	teqcc	sp, #-1946157055	; 0x8c000001
 504:	352e342e 	strcc	r3, [lr, #-1070]!
 508:	6363672f 	cmnvs	r3, #12320768	; 0xbc0000
 50c:	6e6f632f 	cdpvs	3, 6, cr6, cr15, cr15, {1}
 510:	2f676966 	swics	0x00676966
 514:	006d7261 	rsbeq	r7, sp, r1, ror #4
 518:	65656900 	strvsb	r6, [r5, #-2304]!
 51c:	34353765 	ldrcct	r3, [r5], #-1893
 520:	2e66642d 	cdpcs	4, 6, cr6, cr6, cr13, {1}
 524:	00010053 	andeq	r0, r1, r3, asr r0
 528:	05000000 	streq	r0, [r0]
 52c:	003af802 	eoreqs	pc, sl, r2, lsl #16
 530:	08960330 	ldmeqia	r6, {r4, r5, r8, r9}
 534:	2e2d2c01 	cdpcs	12, 2, cr2, cr13, cr1, {0}
 538:	2c2c2c2c 	stccs	12, cr2, [ip], #-176
 53c:	2c2c2c2c 	stccs	12, cr2, [ip], #-176
 540:	2c2d2c2c 	stccs	12, cr2, [sp], #-176
 544:	2c2c2c2c 	stccs	12, cr2, [ip], #-176
 548:	2d2c2c2c 	stccs	12, cr2, [ip, #-176]!
 54c:	2c2c2d2c 	stccs	13, cr2, [ip], #-176
 550:	2c2d2c2c 	stccs	12, cr2, [sp], #-176
 554:	01000202 	tsteq	r0, r2, lsl #4
 558:	00001601 	andeq	r1, r0, r1, lsl #12
 55c:	10000200 	andne	r0, r0, r0, lsl #4
 560:	02000000 	andeq	r0, r0, #0	; 0x0
 564:	0a0efb01 	beq	3bf170 <__code_start-0x2fc40e90>
 568:	01010100 	tsteq	r1, r0, lsl #2
 56c:	00000001 	andeq	r0, r0, r1
 570:	Address 0x570 is out of bounds.

