
/home/lc_sagacity/work/arm/100ask/all_module_tests_of_JZ2440/TEMP/AllModuleTestsofJZ2440.elf:     file format elf32-littlearm

Disassembly of section .text:

30000000 <_start>:
30000000:	ea00002f 	b	300000c4 <reset>
30000004:	e59ff014 	ldr	pc, [pc, #20]	; 30000020 <und_addr>
30000008:	e59ff014 	ldr	pc, [pc, #20]	; 30000024 <swi_addr>
3000000c:	ea00004e 	b	3000014c <halt>
30000010:	ea00004d 	b	3000014c <halt>
30000014:	ea00004c 	b	3000014c <halt>
30000018:	e59ff008 	ldr	pc, [pc, #8]	; 30000028 <irq_addr>
3000001c:	ea00004a 	b	3000014c <halt>

30000020 <und_addr>:
30000020:	3000002c 	andcc	r0, r0, ip, lsr #32

30000024 <swi_addr>:
30000024:	30000070 	andcc	r0, r0, r0, ror r0

30000028 <irq_addr>:
30000028:	300000b0 	strcch	r0, [r0], -r0

3000002c <do_und>:
3000002c:	e3a0d30d 	mov	sp, #872415232	; 0x34000000
30000030:	e92d5fff 	stmdb	sp!, {r0, r1, r2, r3, r4, r5, r6, r7, r8, r9, sl, fp, ip, lr}
30000034:	e10f0000 	mrs	r0, CPSR
30000038:	e59f1110 	ldr	r1, [pc, #272]	; 30000150 <.text+0x150>
3000003c:	eb00069e 	bl	30001abc <printException>
30000040:	e8fd9fff 	ldmia	sp!, {r0, r1, r2, r3, r4, r5, r6, r7, r8, r9, sl, fp, ip, pc}^

30000044 <und_string>:
30000044:	65646e75 	strvsb	r6, [r4, #-3701]!
30000048:	656e6966 	strvsb	r6, [lr, #-2406]!
3000004c:	6e692064 	cdpvs	0, 6, cr2, cr9, cr4, {3}
30000050:	75727473 	ldrvcb	r7, [r2, #-1139]!
30000054:	6f697463 	swivs	0x00697463
30000058:	7865206e 	stmvcda	r5!, {r1, r2, r3, r5, r6, sp}^
3000005c:	74706563 	ldrvcbt	r6, [r0], #-1379
30000060:	006e6f69 	rsbeq	r6, lr, r9, ror #30
	...

30000070 <do_swi>:
30000070:	e59fd0dc 	ldr	sp, [pc, #220]	; 30000154 <.text+0x154>
30000074:	e92d5fff 	stmdb	sp!, {r0, r1, r2, r3, r4, r5, r6, r7, r8, r9, sl, fp, ip, lr}
30000078:	e1a0400e 	mov	r4, lr
3000007c:	e10f0000 	mrs	r0, CPSR
30000080:	e59f10d0 	ldr	r1, [pc, #208]	; 30000158 <.text+0x158>
30000084:	eb00068c 	bl	30001abc <printException>
30000088:	e2440004 	sub	r0, r4, #4	; 0x4
3000008c:	eb00069b 	bl	30001b00 <printSWIVal>
30000090:	e8fd9fff 	ldmia	sp!, {r0, r1, r2, r3, r4, r5, r6, r7, r8, r9, sl, fp, ip, pc}^

30000094 <swi_string>:
30000094:	20697773 	rsbcs	r7, r9, r3, ror r7
30000098:	65637865 	strvsb	r7, [r3, #-2149]!
3000009c:	6f697470 	swivs	0x00697470
300000a0:	0000006e 	andeq	r0, r0, lr, rrx
	...

300000b0 <do_irq>:
300000b0:	e59fd0a4 	ldr	sp, [pc, #164]	; 3000015c <.text+0x15c>
300000b4:	e24ee004 	sub	lr, lr, #4	; 0x4
300000b8:	e92d5fff 	stmdb	sp!, {r0, r1, r2, r3, r4, r5, r6, r7, r8, r9, sl, fp, ip, lr}
300000bc:	eb00069b 	bl	30001b30 <HandleIrqC>
300000c0:	e8fd9fff 	ldmia	sp!, {r0, r1, r2, r3, r4, r5, r6, r7, r8, r9, sl, fp, ip, pc}^

300000c4 <reset>:
300000c4:	e3a00453 	mov	r0, #1392508928	; 0x53000000
300000c8:	e3a01000 	mov	r1, #0	; 0x0
300000cc:	e5801000 	str	r1, [r0]
300000d0:	e3a00313 	mov	r0, #1275068416	; 0x4c000000
300000d4:	e3e01000 	mvn	r1, #0	; 0x0
300000d8:	e5801000 	str	r1, [r0]
300000dc:	e59f007c 	ldr	r0, [pc, #124]	; 30000160 <.text+0x160>
300000e0:	e3a01005 	mov	r1, #5	; 0x5
300000e4:	e5801000 	str	r1, [r0]
300000e8:	ee110f10 	mrc	15, 0, r0, cr1, cr0, {0}
300000ec:	e3800103 	orr	r0, r0, #-1073741824	; 0xc0000000
300000f0:	ee010f10 	mcr	15, 0, r0, cr1, cr0, {0}
300000f4:	e59f0068 	ldr	r0, [pc, #104]	; 30000164 <.text+0x164>
300000f8:	e59f1068 	ldr	r1, [pc, #104]	; 30000168 <.text+0x168>
300000fc:	e5801000 	str	r1, [r0]
30000100:	e3a01000 	mov	r1, #0	; 0x0
30000104:	e5910000 	ldr	r0, [r1]
30000108:	e5811000 	str	r1, [r1]
3000010c:	e5912000 	ldr	r2, [r1]
30000110:	e1510002 	cmp	r1, r2
30000114:	e59fd050 	ldr	sp, [pc, #80]	; 3000016c <.text+0x16c>
30000118:	03a0da01 	moveq	sp, #4096	; 0x1000
3000011c:	05810000 	streq	r0, [r1]
30000120:	eb00012f 	bl	300005e4 <InitSdram>
30000124:	eb00013f 	bl	30000628 <InitUart0>
30000128:	eb00010b 	bl	3000055c <Copy2Sdram>
3000012c:	eb000121 	bl	300005b8 <CleanBss>
30000130:	e10f0000 	mrs	r0, CPSR
30000134:	e3c0000f 	bic	r0, r0, #15	; 0xf
30000138:	e3c00080 	bic	r0, r0, #128	; 0x80
3000013c:	e129f000 	msr	CPSR_fc, r0
30000140:	e59fd028 	ldr	sp, [pc, #40]	; 30000170 <.text+0x170>
30000144:	e59ff028 	ldr	pc, [pc, #40]	; 30000174 <.text+0x174>

30000148 <sdram>:
30000148:	e59ff028 	ldr	pc, [pc, #40]	; 30000178 <.text+0x178>

3000014c <halt>:
3000014c:	eafffffe 	b	3000014c <halt>
30000150:	30000044 	andcc	r0, r0, r4, asr #32
30000154:	33e00000 	mvncc	r0, #0	; 0x0
30000158:	30000094 	mulcc	r0, r4, r0
3000015c:	33d00000 	bicccs	r0, r0, #0	; 0x0
30000160:	4c000014 	stcmi	0, cr0, [r0], {20}
30000164:	4c000004 	stcmi	0, cr0, [r0], {4}
30000168:	0005c011 	andeq	ip, r5, r1, lsl r0
3000016c:	40001000 	andmi	r1, r0, r0
30000170:	33f00000 	mvnccs	r0, #0	; 0x0
30000174:	30000148 	andcc	r0, r0, r8, asr #2
30000178:	30001504 	andcc	r1, r0, r4, lsl #10
3000017c:	e1a00000 	nop			(mov r0,r0)

30000180 <__udivsi3>:
30000180:	e2512001 	subs	r2, r1, #1	; 0x1
30000184:	01a0f00e 	moveq	pc, lr
30000188:	3a0000e5 	bcc	30000524 <Ldiv0>
3000018c:	e1500001 	cmp	r0, r1
30000190:	9a000022 	bls	30000220 <__udivsi3+0xa0>
30000194:	e1110002 	tst	r1, r2
30000198:	0a000023 	beq	3000022c <__udivsi3+0xac>
3000019c:	e311020e 	tst	r1, #-536870912	; 0xe0000000
300001a0:	01a01181 	moveq	r1, r1, lsl #3
300001a4:	03a03008 	moveq	r3, #8	; 0x8
300001a8:	13a03001 	movne	r3, #1	; 0x1
300001ac:	e3510201 	cmp	r1, #268435456	; 0x10000000
300001b0:	31510000 	cmpcc	r1, r0
300001b4:	31a01201 	movcc	r1, r1, lsl #4
300001b8:	31a03203 	movcc	r3, r3, lsl #4
300001bc:	3afffffa 	bcc	300001ac <__udivsi3+0x2c>
300001c0:	e3510102 	cmp	r1, #-2147483648	; 0x80000000
300001c4:	31510000 	cmpcc	r1, r0
300001c8:	31a01081 	movcc	r1, r1, lsl #1
300001cc:	31a03083 	movcc	r3, r3, lsl #1
300001d0:	3afffffa 	bcc	300001c0 <__udivsi3+0x40>
300001d4:	e3a02000 	mov	r2, #0	; 0x0
300001d8:	e1500001 	cmp	r0, r1
300001dc:	20400001 	subcs	r0, r0, r1
300001e0:	21822003 	orrcs	r2, r2, r3
300001e4:	e15000a1 	cmp	r0, r1, lsr #1
300001e8:	204000a1 	subcs	r0, r0, r1, lsr #1
300001ec:	218220a3 	orrcs	r2, r2, r3, lsr #1
300001f0:	e1500121 	cmp	r0, r1, lsr #2
300001f4:	20400121 	subcs	r0, r0, r1, lsr #2
300001f8:	21822123 	orrcs	r2, r2, r3, lsr #2
300001fc:	e15001a1 	cmp	r0, r1, lsr #3
30000200:	204001a1 	subcs	r0, r0, r1, lsr #3
30000204:	218221a3 	orrcs	r2, r2, r3, lsr #3
30000208:	e3500000 	cmp	r0, #0	; 0x0
3000020c:	11b03223 	movnes	r3, r3, lsr #4
30000210:	11a01221 	movne	r1, r1, lsr #4
30000214:	1affffef 	bne	300001d8 <__udivsi3+0x58>
30000218:	e1a00002 	mov	r0, r2
3000021c:	e1a0f00e 	mov	pc, lr
30000220:	03a00001 	moveq	r0, #1	; 0x1
30000224:	13a00000 	movne	r0, #0	; 0x0
30000228:	e1a0f00e 	mov	pc, lr
3000022c:	e3510801 	cmp	r1, #65536	; 0x10000
30000230:	21a01821 	movcs	r1, r1, lsr #16
30000234:	23a02010 	movcs	r2, #16	; 0x10
30000238:	33a02000 	movcc	r2, #0	; 0x0
3000023c:	e3510c01 	cmp	r1, #256	; 0x100
30000240:	21a01421 	movcs	r1, r1, lsr #8
30000244:	22822008 	addcs	r2, r2, #8	; 0x8
30000248:	e3510010 	cmp	r1, #16	; 0x10
3000024c:	21a01221 	movcs	r1, r1, lsr #4
30000250:	22822004 	addcs	r2, r2, #4	; 0x4
30000254:	e3510004 	cmp	r1, #4	; 0x4
30000258:	82822003 	addhi	r2, r2, #3	; 0x3
3000025c:	908220a1 	addls	r2, r2, r1, lsr #1
30000260:	e1a00230 	mov	r0, r0, lsr r2
30000264:	e1a0f00e 	mov	pc, lr
30000268:	90909090 	umulllss	r9, r0, r0, r0
3000026c:	90909090 	umulllss	r9, r0, r0, r0

30000270 <__umodsi3>:
30000270:	e2512001 	subs	r2, r1, #1	; 0x1
30000274:	3a0000aa 	bcc	30000524 <Ldiv0>
30000278:	11500001 	cmpne	r0, r1
3000027c:	03a00000 	moveq	r0, #0	; 0x0
30000280:	81110002 	tsthi	r1, r2
30000284:	00000002 	andeq	r0, r0, r2
30000288:	91a0f00e 	movls	pc, lr
3000028c:	e3a02000 	mov	r2, #0	; 0x0
30000290:	e3510201 	cmp	r1, #268435456	; 0x10000000
30000294:	31510000 	cmpcc	r1, r0
30000298:	31a01201 	movcc	r1, r1, lsl #4
3000029c:	32822004 	addcc	r2, r2, #4	; 0x4
300002a0:	3afffffa 	bcc	30000290 <__umodsi3+0x20>
300002a4:	e3510102 	cmp	r1, #-2147483648	; 0x80000000
300002a8:	31510000 	cmpcc	r1, r0
300002ac:	31a01081 	movcc	r1, r1, lsl #1
300002b0:	32822001 	addcc	r2, r2, #1	; 0x1
300002b4:	3afffffa 	bcc	300002a4 <__umodsi3+0x34>
300002b8:	e2522003 	subs	r2, r2, #3	; 0x3
300002bc:	ba00000e 	blt	300002fc <__umodsi3+0x8c>
300002c0:	e1500001 	cmp	r0, r1
300002c4:	20400001 	subcs	r0, r0, r1
300002c8:	e15000a1 	cmp	r0, r1, lsr #1
300002cc:	204000a1 	subcs	r0, r0, r1, lsr #1
300002d0:	e1500121 	cmp	r0, r1, lsr #2
300002d4:	20400121 	subcs	r0, r0, r1, lsr #2
300002d8:	e15001a1 	cmp	r0, r1, lsr #3
300002dc:	204001a1 	subcs	r0, r0, r1, lsr #3
300002e0:	e3500001 	cmp	r0, #1	; 0x1
300002e4:	e1a01221 	mov	r1, r1, lsr #4
300002e8:	a2522004 	subges	r2, r2, #4	; 0x4
300002ec:	aafffff3 	bge	300002c0 <__umodsi3+0x50>
300002f0:	e3120003 	tst	r2, #3	; 0x3
300002f4:	13300000 	teqne	r0, #0	; 0x0
300002f8:	0a00000a 	beq	30000328 <__umodsi3+0xb8>
300002fc:	e3720002 	cmn	r2, #2	; 0x2
30000300:	ba000006 	blt	30000320 <__umodsi3+0xb0>
30000304:	0a000002 	beq	30000314 <__umodsi3+0xa4>
30000308:	e1500001 	cmp	r0, r1
3000030c:	20400001 	subcs	r0, r0, r1
30000310:	e1a010a1 	mov	r1, r1, lsr #1
30000314:	e1500001 	cmp	r0, r1
30000318:	20400001 	subcs	r0, r0, r1
3000031c:	e1a010a1 	mov	r1, r1, lsr #1
30000320:	e1500001 	cmp	r0, r1
30000324:	20400001 	subcs	r0, r0, r1
30000328:	e1a0f00e 	mov	pc, lr
3000032c:	90909090 	umulllss	r9, r0, r0, r0

30000330 <__divsi3>:
30000330:	e3510000 	cmp	r1, #0	; 0x0
30000334:	e020c001 	eor	ip, r0, r1
30000338:	0a000079 	beq	30000524 <Ldiv0>
3000033c:	42611000 	rsbmi	r1, r1, #0	; 0x0
30000340:	e2512001 	subs	r2, r1, #1	; 0x1
30000344:	0a000027 	beq	300003e8 <__divsi3+0xb8>
30000348:	e1b03000 	movs	r3, r0
3000034c:	42603000 	rsbmi	r3, r0, #0	; 0x0
30000350:	e1530001 	cmp	r3, r1
30000354:	9a000026 	bls	300003f4 <__divsi3+0xc4>
30000358:	e1110002 	tst	r1, r2
3000035c:	0a000028 	beq	30000404 <__divsi3+0xd4>
30000360:	e311020e 	tst	r1, #-536870912	; 0xe0000000
30000364:	01a01181 	moveq	r1, r1, lsl #3
30000368:	03a02008 	moveq	r2, #8	; 0x8
3000036c:	13a02001 	movne	r2, #1	; 0x1
30000370:	e3510201 	cmp	r1, #268435456	; 0x10000000
30000374:	31510003 	cmpcc	r1, r3
30000378:	31a01201 	movcc	r1, r1, lsl #4
3000037c:	31a02202 	movcc	r2, r2, lsl #4
30000380:	3afffffa 	bcc	30000370 <__divsi3+0x40>
30000384:	e3510102 	cmp	r1, #-2147483648	; 0x80000000
30000388:	31510003 	cmpcc	r1, r3
3000038c:	31a01081 	movcc	r1, r1, lsl #1
30000390:	31a02082 	movcc	r2, r2, lsl #1
30000394:	3afffffa 	bcc	30000384 <__divsi3+0x54>
30000398:	e3a00000 	mov	r0, #0	; 0x0
3000039c:	e1530001 	cmp	r3, r1
300003a0:	20433001 	subcs	r3, r3, r1
300003a4:	21800002 	orrcs	r0, r0, r2
300003a8:	e15300a1 	cmp	r3, r1, lsr #1
300003ac:	204330a1 	subcs	r3, r3, r1, lsr #1
300003b0:	218000a2 	orrcs	r0, r0, r2, lsr #1
300003b4:	e1530121 	cmp	r3, r1, lsr #2
300003b8:	20433121 	subcs	r3, r3, r1, lsr #2
300003bc:	21800122 	orrcs	r0, r0, r2, lsr #2
300003c0:	e15301a1 	cmp	r3, r1, lsr #3
300003c4:	204331a1 	subcs	r3, r3, r1, lsr #3
300003c8:	218001a2 	orrcs	r0, r0, r2, lsr #3
300003cc:	e3530000 	cmp	r3, #0	; 0x0
300003d0:	11b02222 	movnes	r2, r2, lsr #4
300003d4:	11a01221 	movne	r1, r1, lsr #4
300003d8:	1affffef 	bne	3000039c <__divsi3+0x6c>
300003dc:	e35c0000 	cmp	ip, #0	; 0x0
300003e0:	42600000 	rsbmi	r0, r0, #0	; 0x0
300003e4:	e1a0f00e 	mov	pc, lr
300003e8:	e13c0000 	teq	ip, r0
300003ec:	42600000 	rsbmi	r0, r0, #0	; 0x0
300003f0:	e1a0f00e 	mov	pc, lr
300003f4:	33a00000 	movcc	r0, #0	; 0x0
300003f8:	01a00fcc 	moveq	r0, ip, asr #31
300003fc:	03800001 	orreq	r0, r0, #1	; 0x1
30000400:	e1a0f00e 	mov	pc, lr
30000404:	e3510801 	cmp	r1, #65536	; 0x10000
30000408:	21a01821 	movcs	r1, r1, lsr #16
3000040c:	23a02010 	movcs	r2, #16	; 0x10
30000410:	33a02000 	movcc	r2, #0	; 0x0
30000414:	e3510c01 	cmp	r1, #256	; 0x100
30000418:	21a01421 	movcs	r1, r1, lsr #8
3000041c:	22822008 	addcs	r2, r2, #8	; 0x8
30000420:	e3510010 	cmp	r1, #16	; 0x10
30000424:	21a01221 	movcs	r1, r1, lsr #4
30000428:	22822004 	addcs	r2, r2, #4	; 0x4
3000042c:	e3510004 	cmp	r1, #4	; 0x4
30000430:	82822003 	addhi	r2, r2, #3	; 0x3
30000434:	908220a1 	addls	r2, r2, r1, lsr #1
30000438:	e35c0000 	cmp	ip, #0	; 0x0
3000043c:	e1a00233 	mov	r0, r3, lsr r2
30000440:	42600000 	rsbmi	r0, r0, #0	; 0x0
30000444:	e1a0f00e 	mov	pc, lr
30000448:	90909090 	umulllss	r9, r0, r0, r0
3000044c:	90909090 	umulllss	r9, r0, r0, r0

30000450 <__modsi3>:
30000450:	e3510000 	cmp	r1, #0	; 0x0
30000454:	0a000032 	beq	30000524 <Ldiv0>
30000458:	42611000 	rsbmi	r1, r1, #0	; 0x0
3000045c:	e1b0c000 	movs	ip, r0
30000460:	42600000 	rsbmi	r0, r0, #0	; 0x0
30000464:	e2512001 	subs	r2, r1, #1	; 0x1
30000468:	11500001 	cmpne	r0, r1
3000046c:	03a00000 	moveq	r0, #0	; 0x0
30000470:	81110002 	tsthi	r1, r2
30000474:	00000002 	andeq	r0, r0, r2
30000478:	9a000026 	bls	30000518 <__modsi3+0xc8>
3000047c:	e3a02000 	mov	r2, #0	; 0x0
30000480:	e3510201 	cmp	r1, #268435456	; 0x10000000
30000484:	31510000 	cmpcc	r1, r0
30000488:	31a01201 	movcc	r1, r1, lsl #4
3000048c:	32822004 	addcc	r2, r2, #4	; 0x4
30000490:	3afffffa 	bcc	30000480 <__modsi3+0x30>
30000494:	e3510102 	cmp	r1, #-2147483648	; 0x80000000
30000498:	31510000 	cmpcc	r1, r0
3000049c:	31a01081 	movcc	r1, r1, lsl #1
300004a0:	32822001 	addcc	r2, r2, #1	; 0x1
300004a4:	3afffffa 	bcc	30000494 <__modsi3+0x44>
300004a8:	e2522003 	subs	r2, r2, #3	; 0x3
300004ac:	ba00000e 	blt	300004ec <__modsi3+0x9c>
300004b0:	e1500001 	cmp	r0, r1
300004b4:	20400001 	subcs	r0, r0, r1
300004b8:	e15000a1 	cmp	r0, r1, lsr #1
300004bc:	204000a1 	subcs	r0, r0, r1, lsr #1
300004c0:	e1500121 	cmp	r0, r1, lsr #2
300004c4:	20400121 	subcs	r0, r0, r1, lsr #2
300004c8:	e15001a1 	cmp	r0, r1, lsr #3
300004cc:	204001a1 	subcs	r0, r0, r1, lsr #3
300004d0:	e3500001 	cmp	r0, #1	; 0x1
300004d4:	e1a01221 	mov	r1, r1, lsr #4
300004d8:	a2522004 	subges	r2, r2, #4	; 0x4
300004dc:	aafffff3 	bge	300004b0 <__modsi3+0x60>
300004e0:	e3120003 	tst	r2, #3	; 0x3
300004e4:	13300000 	teqne	r0, #0	; 0x0
300004e8:	0a00000a 	beq	30000518 <__modsi3+0xc8>
300004ec:	e3720002 	cmn	r2, #2	; 0x2
300004f0:	ba000006 	blt	30000510 <__modsi3+0xc0>
300004f4:	0a000002 	beq	30000504 <__modsi3+0xb4>
300004f8:	e1500001 	cmp	r0, r1
300004fc:	20400001 	subcs	r0, r0, r1
30000500:	e1a010a1 	mov	r1, r1, lsr #1
30000504:	e1500001 	cmp	r0, r1
30000508:	20400001 	subcs	r0, r0, r1
3000050c:	e1a010a1 	mov	r1, r1, lsr #1
30000510:	e1500001 	cmp	r0, r1
30000514:	20400001 	subcs	r0, r0, r1
30000518:	e35c0000 	cmp	ip, #0	; 0x0
3000051c:	42600000 	rsbmi	r0, r0, #0	; 0x0
30000520:	e1a0f00e 	mov	pc, lr

30000524 <Ldiv0>:
30000524:	e52de004 	str	lr, [sp, #-4]!
30000528:	e3a00000 	mov	r0, #0	; 0x0
3000052c:	e49df004 	ldr	pc, [sp], #4

30000530 <isBootFromNorFlash>:
30000530:	e59f2020 	ldr	r2, [pc, #32]	; 30000558 <.text+0x558>
30000534:	e3a01000 	mov	r1, #0	; 0x0
30000538:	e591c000 	ldr	ip, [r1]
3000053c:	e5812000 	str	r2, [r1]
30000540:	e5913000 	ldr	r3, [r1]
30000544:	e1530002 	cmp	r3, r2
30000548:	e1a00001 	mov	r0, r1
3000054c:	13a00001 	movne	r0, #1	; 0x1
30000550:	0581c000 	streq	ip, [r1]
30000554:	e1a0f00e 	mov	pc, lr
30000558:	12345678 	eornes	r5, r4, #125829120	; 0x7800000

3000055c <Copy2Sdram>:
3000055c:	e92d4070 	stmdb	sp!, {r4, r5, r6, lr}
30000560:	ebfffff2 	bl	30000530 <isBootFromNorFlash>
30000564:	e59f4044 	ldr	r4, [pc, #68]	; 300005b0 <.text+0x5b0>
30000568:	e59f2044 	ldr	r2, [pc, #68]	; 300005b4 <.text+0x5b4>
3000056c:	e2505000 	subs	r5, r0, #0	; 0x0
30000570:	e3a01000 	mov	r1, #0	; 0x0
30000574:	e0646002 	rsb	r6, r4, r2
30000578:	0a000006 	beq	30000598 <Copy2Sdram+0x3c>
3000057c:	e1540002 	cmp	r4, r2
30000580:	28bd8070 	ldmcsia	sp!, {r4, r5, r6, pc}
30000584:	e4913004 	ldr	r3, [r1], #4
30000588:	e4843004 	str	r3, [r4], #4
3000058c:	e1540002 	cmp	r4, r2
30000590:	3afffffb 	bcc	30000584 <Copy2Sdram+0x28>
30000594:	e8bd8070 	ldmia	sp!, {r4, r5, r6, pc}
30000598:	eb000059 	bl	30000704 <InitNand>
3000059c:	e1a00005 	mov	r0, r5
300005a0:	e1a01004 	mov	r1, r4
300005a4:	e1a02006 	mov	r2, r6
300005a8:	e8bd4070 	ldmia	sp!, {r4, r5, r6, lr}
300005ac:	ea000135 	b	30000a88 <ReadNand>
300005b0:	30000000 	andcc	r0, r0, r0
300005b4:	3000f4bc 	strcch	pc, [r0], -ip

300005b8 <CleanBss>:
300005b8:	e59f301c 	ldr	r3, [pc, #28]	; 300005dc <.text+0x5dc>
300005bc:	e59f101c 	ldr	r1, [pc, #28]	; 300005e0 <.text+0x5e0>
300005c0:	e1530001 	cmp	r3, r1
300005c4:	81a0f00e 	movhi	pc, lr
300005c8:	e3a02000 	mov	r2, #0	; 0x0
300005cc:	e4832004 	str	r2, [r3], #4
300005d0:	e1530001 	cmp	r3, r1
300005d4:	9afffffc 	bls	300005cc <CleanBss+0x14>
300005d8:	e1a0f00e 	mov	pc, lr
300005dc:	3000f4bc 	strcch	pc, [r0], -ip
300005e0:	30011940 	andcc	r1, r1, r0, asr #18

300005e4 <InitSdram>:
300005e4:	e3a00721 	mov	r0, #8650752	; 0x840000
300005e8:	e3a03312 	mov	r3, #1207959552	; 0x48000000
300005ec:	e3a02422 	mov	r2, #570425344	; 0x22000000
300005f0:	e2800e4f 	add	r0, r0, #1264	; 0x4f0
300005f4:	e3a01906 	mov	r1, #98304	; 0x18000
300005f8:	e5832000 	str	r2, [r3]
300005fc:	e2811001 	add	r1, r1, #1	; 0x1
30000600:	e3a0c020 	mov	ip, #32	; 0x20
30000604:	e2800005 	add	r0, r0, #5	; 0x5
30000608:	e3a020b1 	mov	r2, #177	; 0xb1
3000060c:	e583101c 	str	r1, [r3, #28]
30000610:	e5831020 	str	r1, [r3, #32]
30000614:	e5830024 	str	r0, [r3, #36]
30000618:	e5832028 	str	r2, [r3, #40]
3000061c:	e583c02c 	str	ip, [r3, #44]
30000620:	e583c030 	str	ip, [r3, #48]
30000624:	e1a0f00e 	mov	pc, lr

30000628 <InitUart0>:
30000628:	e3a01456 	mov	r1, #1442840576	; 0x56000000
3000062c:	e5913070 	ldr	r3, [r1, #112]
30000630:	e3c330f0 	bic	r3, r3, #240	; 0xf0
30000634:	e5813070 	str	r3, [r1, #112]
30000638:	e5912070 	ldr	r2, [r1, #112]
3000063c:	e38220a0 	orr	r2, r2, #160	; 0xa0
30000640:	e5812070 	str	r2, [r1, #112]
30000644:	e5913078 	ldr	r3, [r1, #120]
30000648:	e3c3300c 	bic	r3, r3, #12	; 0xc
3000064c:	e5813078 	str	r3, [r1, #120]
30000650:	e3a00005 	mov	r0, #5	; 0x5
30000654:	e3a03245 	mov	r3, #1342177284	; 0x50000004
30000658:	e5830000 	str	r0, [r3]
3000065c:	e3a0c205 	mov	ip, #1342177280	; 0x50000000
30000660:	e3a0201a 	mov	r2, #26	; 0x1a
30000664:	e2433215 	sub	r3, r3, #1342177281	; 0x50000001
30000668:	e58c2028 	str	r2, [ip, #40]
3000066c:	e58c3000 	str	r3, [ip]
30000670:	e1a0f00e 	mov	pc, lr

30000674 <PutChar>:
30000674:	e3a02205 	mov	r2, #1342177280	; 0x50000000
30000678:	e5923010 	ldr	r3, [r2, #16]
3000067c:	e3130004 	tst	r3, #4	; 0x4
30000680:	0afffffc 	beq	30000678 <PutChar+0x4>
30000684:	e5c20020 	strb	r0, [r2, #32]
30000688:	e3a00000 	mov	r0, #0	; 0x0
3000068c:	e1a0f00e 	mov	pc, lr

30000690 <GetChar>:
30000690:	e92d4010 	stmdb	sp!, {r4, lr}
30000694:	e3a02205 	mov	r2, #1342177280	; 0x50000000
30000698:	e5923010 	ldr	r3, [r2, #16]
3000069c:	e3130001 	tst	r3, #1	; 0x1
300006a0:	1a000006 	bne	300006c0 <GetChar+0x30>
300006a4:	e1a04002 	mov	r4, r2
300006a8:	eb00067d 	bl	300020a4 <isClickReturn>
300006ac:	e3500000 	cmp	r0, #0	; 0x0
300006b0:	1a000006 	bne	300006d0 <GetChar+0x40>
300006b4:	e5943010 	ldr	r3, [r4, #16]
300006b8:	e3130001 	tst	r3, #1	; 0x1
300006bc:	0afffff9 	beq	300006a8 <GetChar+0x18>
300006c0:	e3a03205 	mov	r3, #1342177280	; 0x50000000
300006c4:	e5d32024 	ldrb	r2, [r3, #36]
300006c8:	e20200ff 	and	r0, r2, #255	; 0xff
300006cc:	e8bd8010 	ldmia	sp!, {r4, pc}
300006d0:	eb000967 	bl	30002c74 <MainPage>
300006d4:	e3a00000 	mov	r0, #0	; 0x0
300006d8:	e8bd8010 	ldmia	sp!, {r4, pc}

300006dc <Puts>:
300006dc:	e92d4010 	stmdb	sp!, {r4, lr}
300006e0:	e1a04000 	mov	r4, r0
300006e4:	e5d00000 	ldrb	r0, [r0]
300006e8:	ea000001 	b	300006f4 <Puts+0x18>
300006ec:	ebffffe0 	bl	30000674 <PutChar>
300006f0:	e5f40001 	ldrb	r0, [r4, #1]!
300006f4:	e3500000 	cmp	r0, #0	; 0x0
300006f8:	1afffffb 	bne	300006ec <Puts+0x10>
300006fc:	e3a00000 	mov	r0, #0	; 0x0
30000700:	e8bd8010 	ldmia	sp!, {r4, pc}

30000704 <InitNand>:
30000704:	e3a0344e 	mov	r3, #1308622848	; 0x4e000000
30000708:	e3a02c01 	mov	r2, #256	; 0x100
3000070c:	e3a01013 	mov	r1, #19	; 0x13
30000710:	e5832000 	str	r2, [r3]
30000714:	e5831004 	str	r1, [r3, #4]
30000718:	e1a0f00e 	mov	pc, lr

3000071c <SelectNand>:
3000071c:	e3a0244e 	mov	r2, #1308622848	; 0x4e000000
30000720:	e5923004 	ldr	r3, [r2, #4]
30000724:	e3c33002 	bic	r3, r3, #2	; 0x2
30000728:	e5823004 	str	r3, [r2, #4]
3000072c:	e1a0f00e 	mov	pc, lr

30000730 <DeselectNand>:
30000730:	e3a0244e 	mov	r2, #1308622848	; 0x4e000000
30000734:	e5923004 	ldr	r3, [r2, #4]
30000738:	e3833002 	orr	r3, r3, #2	; 0x2
3000073c:	e5823004 	str	r3, [r2, #4]
30000740:	e1a0f00e 	mov	pc, lr

30000744 <NandCmd>:
30000744:	e24dd004 	sub	sp, sp, #4	; 0x4
30000748:	e3a0344e 	mov	r3, #1308622848	; 0x4e000000
3000074c:	e20000ff 	and	r0, r0, #255	; 0xff
30000750:	e3a02000 	mov	r2, #0	; 0x0
30000754:	e5c30008 	strb	r0, [r3, #8]
30000758:	e58d2000 	str	r2, [sp]
3000075c:	e59d3000 	ldr	r3, [sp]
30000760:	e3530009 	cmp	r3, #9	; 0x9
30000764:	ca000005 	bgt	30000780 <NandCmd+0x3c>
30000768:	e59d3000 	ldr	r3, [sp]
3000076c:	e2833001 	add	r3, r3, #1	; 0x1
30000770:	e58d3000 	str	r3, [sp]
30000774:	e59d2000 	ldr	r2, [sp]
30000778:	e3520009 	cmp	r2, #9	; 0x9
3000077c:	dafffff9 	ble	30000768 <NandCmd+0x24>
30000780:	e28dd004 	add	sp, sp, #4	; 0x4
30000784:	e1a0f00e 	mov	pc, lr

30000788 <NandAddrByte>:
30000788:	e24dd004 	sub	sp, sp, #4	; 0x4
3000078c:	e3a0344e 	mov	r3, #1308622848	; 0x4e000000
30000790:	e20000ff 	and	r0, r0, #255	; 0xff
30000794:	e3a02000 	mov	r2, #0	; 0x0
30000798:	e5c3000c 	strb	r0, [r3, #12]
3000079c:	e58d2000 	str	r2, [sp]
300007a0:	e59d3000 	ldr	r3, [sp]
300007a4:	e3530009 	cmp	r3, #9	; 0x9
300007a8:	ca000005 	bgt	300007c4 <NandAddrByte+0x3c>
300007ac:	e59d3000 	ldr	r3, [sp]
300007b0:	e2833001 	add	r3, r3, #1	; 0x1
300007b4:	e58d3000 	str	r3, [sp]
300007b8:	e59d2000 	ldr	r2, [sp]
300007bc:	e3520009 	cmp	r2, #9	; 0x9
300007c0:	dafffff9 	ble	300007ac <NandAddrByte+0x24>
300007c4:	e28dd004 	add	sp, sp, #4	; 0x4
300007c8:	e1a0f00e 	mov	pc, lr

300007cc <NandAddr>:
300007cc:	e1a01a80 	mov	r1, r0, lsl #21
300007d0:	e24dd004 	sub	sp, sp, #4	; 0x4
300007d4:	e3a0344e 	mov	r3, #1308622848	; 0x4e000000
300007d8:	e1a01aa1 	mov	r1, r1, lsr #21
300007dc:	e3a02000 	mov	r2, #0	; 0x0
300007e0:	e5c3100c 	strb	r1, [r3, #12]
300007e4:	e58d2000 	str	r2, [sp]
300007e8:	e59d3000 	ldr	r3, [sp]
300007ec:	e3530009 	cmp	r3, #9	; 0x9
300007f0:	e1a005a0 	mov	r0, r0, lsr #11
300007f4:	ca000005 	bgt	30000810 <NandAddr+0x44>
300007f8:	e59d3000 	ldr	r3, [sp]
300007fc:	e2833001 	add	r3, r3, #1	; 0x1
30000800:	e58d3000 	str	r3, [sp]
30000804:	e59d2000 	ldr	r2, [sp]
30000808:	e3520009 	cmp	r2, #9	; 0x9
3000080c:	dafffff9 	ble	300007f8 <NandAddr+0x2c>
30000810:	e3a0344e 	mov	r3, #1308622848	; 0x4e000000
30000814:	e1a01421 	mov	r1, r1, lsr #8
30000818:	e3a02000 	mov	r2, #0	; 0x0
3000081c:	e5c3100c 	strb	r1, [r3, #12]
30000820:	e58d2000 	str	r2, [sp]
30000824:	e59d3000 	ldr	r3, [sp]
30000828:	e3530009 	cmp	r3, #9	; 0x9
3000082c:	ca000005 	bgt	30000848 <NandAddr+0x7c>
30000830:	e59d3000 	ldr	r3, [sp]
30000834:	e2833001 	add	r3, r3, #1	; 0x1
30000838:	e58d3000 	str	r3, [sp]
3000083c:	e59d2000 	ldr	r2, [sp]
30000840:	e3520009 	cmp	r2, #9	; 0x9
30000844:	dafffff9 	ble	30000830 <NandAddr+0x64>
30000848:	e3a0344e 	mov	r3, #1308622848	; 0x4e000000
3000084c:	e3a02000 	mov	r2, #0	; 0x0
30000850:	e5c3000c 	strb	r0, [r3, #12]
30000854:	e58d2000 	str	r2, [sp]
30000858:	e59d3000 	ldr	r3, [sp]
3000085c:	e3530009 	cmp	r3, #9	; 0x9
30000860:	ca000005 	bgt	3000087c <NandAddr+0xb0>
30000864:	e59d3000 	ldr	r3, [sp]
30000868:	e2833001 	add	r3, r3, #1	; 0x1
3000086c:	e58d3000 	str	r3, [sp]
30000870:	e59d2000 	ldr	r2, [sp]
30000874:	e3520009 	cmp	r2, #9	; 0x9
30000878:	dafffff9 	ble	30000864 <NandAddr+0x98>
3000087c:	e3a0344e 	mov	r3, #1308622848	; 0x4e000000
30000880:	e1a01420 	mov	r1, r0, lsr #8
30000884:	e3a02000 	mov	r2, #0	; 0x0
30000888:	e5c3100c 	strb	r1, [r3, #12]
3000088c:	e58d2000 	str	r2, [sp]
30000890:	e59d3000 	ldr	r3, [sp]
30000894:	e3530009 	cmp	r3, #9	; 0x9
30000898:	ca000005 	bgt	300008b4 <NandAddr+0xe8>
3000089c:	e59d3000 	ldr	r3, [sp]
300008a0:	e2833001 	add	r3, r3, #1	; 0x1
300008a4:	e58d3000 	str	r3, [sp]
300008a8:	e59d2000 	ldr	r2, [sp]
300008ac:	e3520009 	cmp	r2, #9	; 0x9
300008b0:	dafffff9 	ble	3000089c <NandAddr+0xd0>
300008b4:	e3a0344e 	mov	r3, #1308622848	; 0x4e000000
300008b8:	e1a01820 	mov	r1, r0, lsr #16
300008bc:	e3a02000 	mov	r2, #0	; 0x0
300008c0:	e5c3100c 	strb	r1, [r3, #12]
300008c4:	e58d2000 	str	r2, [sp]
300008c8:	e59d3000 	ldr	r3, [sp]
300008cc:	e3530009 	cmp	r3, #9	; 0x9
300008d0:	ca000005 	bgt	300008ec <NandAddr+0x120>
300008d4:	e59d3000 	ldr	r3, [sp]
300008d8:	e2833001 	add	r3, r3, #1	; 0x1
300008dc:	e58d3000 	str	r3, [sp]
300008e0:	e59d2000 	ldr	r2, [sp]
300008e4:	e3520009 	cmp	r2, #9	; 0x9
300008e8:	dafffff9 	ble	300008d4 <NandAddr+0x108>
300008ec:	e28dd004 	add	sp, sp, #4	; 0x4
300008f0:	e1a0f00e 	mov	pc, lr

300008f4 <NandPage>:
300008f4:	e24dd004 	sub	sp, sp, #4	; 0x4
300008f8:	e3a0344e 	mov	r3, #1308622848	; 0x4e000000
300008fc:	e3a02000 	mov	r2, #0	; 0x0
30000900:	e5c3000c 	strb	r0, [r3, #12]
30000904:	e58d2000 	str	r2, [sp]
30000908:	e59d3000 	ldr	r3, [sp]
3000090c:	e3530009 	cmp	r3, #9	; 0x9
30000910:	ca000005 	bgt	3000092c <NandPage+0x38>
30000914:	e59d3000 	ldr	r3, [sp]
30000918:	e2833001 	add	r3, r3, #1	; 0x1
3000091c:	e58d3000 	str	r3, [sp]
30000920:	e59d2000 	ldr	r2, [sp]
30000924:	e3520009 	cmp	r2, #9	; 0x9
30000928:	dafffff9 	ble	30000914 <NandPage+0x20>
3000092c:	e3a0344e 	mov	r3, #1308622848	; 0x4e000000
30000930:	e1a01420 	mov	r1, r0, lsr #8
30000934:	e3a02000 	mov	r2, #0	; 0x0
30000938:	e5c3100c 	strb	r1, [r3, #12]
3000093c:	e58d2000 	str	r2, [sp]
30000940:	e59d3000 	ldr	r3, [sp]
30000944:	e3530009 	cmp	r3, #9	; 0x9
30000948:	ca000005 	bgt	30000964 <NandPage+0x70>
3000094c:	e59d3000 	ldr	r3, [sp]
30000950:	e2833001 	add	r3, r3, #1	; 0x1
30000954:	e58d3000 	str	r3, [sp]
30000958:	e59d2000 	ldr	r2, [sp]
3000095c:	e3520009 	cmp	r2, #9	; 0x9
30000960:	dafffff9 	ble	3000094c <NandPage+0x58>
30000964:	e3a0344e 	mov	r3, #1308622848	; 0x4e000000
30000968:	e1a01820 	mov	r1, r0, lsr #16
3000096c:	e3a02000 	mov	r2, #0	; 0x0
30000970:	e5c3100c 	strb	r1, [r3, #12]
30000974:	e58d2000 	str	r2, [sp]
30000978:	e59d3000 	ldr	r3, [sp]
3000097c:	e3530009 	cmp	r3, #9	; 0x9
30000980:	ca000005 	bgt	3000099c <NandPage+0xa8>
30000984:	e59d3000 	ldr	r3, [sp]
30000988:	e2833001 	add	r3, r3, #1	; 0x1
3000098c:	e58d3000 	str	r3, [sp]
30000990:	e59d2000 	ldr	r2, [sp]
30000994:	e3520009 	cmp	r2, #9	; 0x9
30000998:	dafffff9 	ble	30000984 <NandPage+0x90>
3000099c:	e28dd004 	add	sp, sp, #4	; 0x4
300009a0:	e1a0f00e 	mov	pc, lr

300009a4 <NandCol>:
300009a4:	e24dd004 	sub	sp, sp, #4	; 0x4
300009a8:	e3a0344e 	mov	r3, #1308622848	; 0x4e000000
300009ac:	e3a02000 	mov	r2, #0	; 0x0
300009b0:	e5c3000c 	strb	r0, [r3, #12]
300009b4:	e58d2000 	str	r2, [sp]
300009b8:	e59d3000 	ldr	r3, [sp]
300009bc:	e3530009 	cmp	r3, #9	; 0x9
300009c0:	ca000005 	bgt	300009dc <NandCol+0x38>
300009c4:	e59d3000 	ldr	r3, [sp]
300009c8:	e2833001 	add	r3, r3, #1	; 0x1
300009cc:	e58d3000 	str	r3, [sp]
300009d0:	e59d2000 	ldr	r2, [sp]
300009d4:	e3520009 	cmp	r2, #9	; 0x9
300009d8:	dafffff9 	ble	300009c4 <NandCol+0x20>
300009dc:	e3a0344e 	mov	r3, #1308622848	; 0x4e000000
300009e0:	e1a01420 	mov	r1, r0, lsr #8
300009e4:	e3a02000 	mov	r2, #0	; 0x0
300009e8:	e5c3100c 	strb	r1, [r3, #12]
300009ec:	e58d2000 	str	r2, [sp]
300009f0:	e59d3000 	ldr	r3, [sp]
300009f4:	e3530009 	cmp	r3, #9	; 0x9
300009f8:	ca000005 	bgt	30000a14 <NandCol+0x70>
300009fc:	e59d3000 	ldr	r3, [sp]
30000a00:	e2833001 	add	r3, r3, #1	; 0x1
30000a04:	e58d3000 	str	r3, [sp]
30000a08:	e59d2000 	ldr	r2, [sp]
30000a0c:	e3520009 	cmp	r2, #9	; 0x9
30000a10:	dafffff9 	ble	300009fc <NandCol+0x58>
30000a14:	e28dd004 	add	sp, sp, #4	; 0x4
30000a18:	e1a0f00e 	mov	pc, lr

30000a1c <NandWaitReady>:
30000a1c:	e3a0244e 	mov	r2, #1308622848	; 0x4e000000
30000a20:	e5d23020 	ldrb	r3, [r2, #32]
30000a24:	e3130001 	tst	r3, #1	; 0x1
30000a28:	0afffffc 	beq	30000a20 <NandWaitReady+0x4>
30000a2c:	e1a0f00e 	mov	pc, lr

30000a30 <NandData>:
30000a30:	e3a0344e 	mov	r3, #1308622848	; 0x4e000000
30000a34:	e5d30010 	ldrb	r0, [r3, #16]
30000a38:	e1a0f00e 	mov	pc, lr

30000a3c <NandBad>:
30000a3c:	e92d4010 	stmdb	sp!, {r4, lr}
30000a40:	e1a045a0 	mov	r4, r0, lsr #11
30000a44:	ebffff34 	bl	3000071c <SelectNand>
30000a48:	e3a00000 	mov	r0, #0	; 0x0
30000a4c:	ebffff3c 	bl	30000744 <NandCmd>
30000a50:	e3a00b02 	mov	r0, #2048	; 0x800
30000a54:	ebffffd2 	bl	300009a4 <NandCol>
30000a58:	e1a00004 	mov	r0, r4
30000a5c:	ebffffa4 	bl	300008f4 <NandPage>
30000a60:	e3a00030 	mov	r0, #48	; 0x30
30000a64:	ebffff36 	bl	30000744 <NandCmd>
30000a68:	ebffffeb 	bl	30000a1c <NandWaitReady>
30000a6c:	ebffffef 	bl	30000a30 <NandData>
30000a70:	e1a04000 	mov	r4, r0
30000a74:	ebffff2d 	bl	30000730 <DeselectNand>
30000a78:	e20440ff 	and	r4, r4, #255	; 0xff
30000a7c:	e25400ff 	subs	r0, r4, #255	; 0xff
30000a80:	13a00001 	movne	r0, #1	; 0x1
30000a84:	e8bd8010 	ldmia	sp!, {r4, pc}

30000a88 <ReadNand>:
30000a88:	e92d45f0 	stmdb	sp!, {r4, r5, r6, r7, r8, sl, lr}
30000a8c:	e3a06000 	mov	r6, #0	; 0x0
30000a90:	e1a04a80 	mov	r4, r0, lsl #21
30000a94:	e1560002 	cmp	r6, r2
30000a98:	e1a05000 	mov	r5, r0
30000a9c:	e1a07002 	mov	r7, r2
30000aa0:	e1a0a001 	mov	sl, r1
30000aa4:	e1a04aa4 	mov	r4, r4, lsr #21
30000aa8:	3a000007 	bcc	30000acc <ReadNand+0x44>
30000aac:	e8bd85f0 	ldmia	sp!, {r4, r5, r6, r7, r8, sl, pc}
30000ab0:	e1a00005 	mov	r0, r5
30000ab4:	ebffffe0 	bl	30000a3c <NandBad>
30000ab8:	e3500000 	cmp	r0, #0	; 0x0
30000abc:	12855802 	addne	r5, r5, #131072	; 0x20000
30000ac0:	0a000005 	beq	30000adc <ReadNand+0x54>
30000ac4:	e1560007 	cmp	r6, r7
30000ac8:	2a000025 	bcs	30000b64 <ReadNand+0xdc>
30000acc:	e3c534ff 	bic	r3, r5, #-16777216	; 0xff000000
30000ad0:	e3c338fe 	bic	r3, r3, #16646144	; 0xfe0000
30000ad4:	e3530000 	cmp	r3, #0	; 0x0
30000ad8:	0afffff4 	beq	30000ab0 <ReadNand+0x28>
30000adc:	ebffff0e 	bl	3000071c <SelectNand>
30000ae0:	e3a00000 	mov	r0, #0	; 0x0
30000ae4:	ebffff16 	bl	30000744 <NandCmd>
30000ae8:	e1a00005 	mov	r0, r5
30000aec:	ebffff36 	bl	300007cc <NandAddr>
30000af0:	e3a00030 	mov	r0, #48	; 0x30
30000af4:	ebffff12 	bl	30000744 <NandCmd>
30000af8:	ebffffc7 	bl	30000a1c <NandWaitReady>
30000afc:	e3a02e7f 	mov	r2, #2032	; 0x7f0
30000b00:	e282200f 	add	r2, r2, #15	; 0xf
30000b04:	e1540002 	cmp	r4, r2
30000b08:	c3a03000 	movgt	r3, #0	; 0x0
30000b0c:	d3a03001 	movle	r3, #1	; 0x1
30000b10:	e1560007 	cmp	r6, r7
30000b14:	23a03000 	movcs	r3, #0	; 0x0
30000b18:	e3530000 	cmp	r3, #0	; 0x0
30000b1c:	0a00000c 	beq	30000b54 <ReadNand+0xcc>
30000b20:	e1a08002 	mov	r8, r2
30000b24:	ebffffc1 	bl	30000a30 <NandData>
30000b28:	e2844001 	add	r4, r4, #1	; 0x1
30000b2c:	e7ca0006 	strb	r0, [sl, r6]
30000b30:	e2866001 	add	r6, r6, #1	; 0x1
30000b34:	e1540008 	cmp	r4, r8
30000b38:	c3a03000 	movgt	r3, #0	; 0x0
30000b3c:	d3a03001 	movle	r3, #1	; 0x1
30000b40:	e1560007 	cmp	r6, r7
30000b44:	23a03000 	movcs	r3, #0	; 0x0
30000b48:	e3530000 	cmp	r3, #0	; 0x0
30000b4c:	e2855001 	add	r5, r5, #1	; 0x1
30000b50:	1afffff3 	bne	30000b24 <ReadNand+0x9c>
30000b54:	ebfffef5 	bl	30000730 <DeselectNand>
30000b58:	e1560007 	cmp	r6, r7
30000b5c:	e3a04000 	mov	r4, #0	; 0x0
30000b60:	3affffd9 	bcc	30000acc <ReadNand+0x44>
30000b64:	e8bd85f0 	ldmia	sp!, {r4, r5, r6, r7, r8, sl, pc}

30000b68 <NandWData>:
30000b68:	e20000ff 	and	r0, r0, #255	; 0xff
30000b6c:	e3a0344e 	mov	r3, #1308622848	; 0x4e000000
30000b70:	e5c30010 	strb	r0, [r3, #16]
30000b74:	e1a0f00e 	mov	pc, lr

30000b78 <PrintNandChipID>:
30000b78:	e92d4010 	stmdb	sp!, {r4, lr}
30000b7c:	e3a04000 	mov	r4, #0	; 0x0
30000b80:	e24dd008 	sub	sp, sp, #8	; 0x8
30000b84:	e58d4000 	str	r4, [sp]
30000b88:	e5cd4004 	strb	r4, [sp, #4]
30000b8c:	ebfffee2 	bl	3000071c <SelectNand>
30000b90:	e3a00090 	mov	r0, #144	; 0x90
30000b94:	ebfffeea 	bl	30000744 <NandCmd>
30000b98:	e1a00004 	mov	r0, r4
30000b9c:	ebfffef9 	bl	30000788 <NandAddrByte>
30000ba0:	ebffffa2 	bl	30000a30 <NandData>
30000ba4:	e5cd0000 	strb	r0, [sp]
30000ba8:	ebffffa0 	bl	30000a30 <NandData>
30000bac:	e5cd0001 	strb	r0, [sp, #1]
30000bb0:	ebffff9e 	bl	30000a30 <NandData>
30000bb4:	e5cd0002 	strb	r0, [sp, #2]
30000bb8:	ebffff9c 	bl	30000a30 <NandData>
30000bbc:	e5cd0003 	strb	r0, [sp, #3]
30000bc0:	ebffff9a 	bl	30000a30 <NandData>
30000bc4:	e5cd0004 	strb	r0, [sp, #4]
30000bc8:	ebfffed8 	bl	30000730 <DeselectNand>
30000bcc:	e5dd1000 	ldrb	r1, [sp]
30000bd0:	e59f006c 	ldr	r0, [pc, #108]	; 30000c44 <.text+0xc44>
30000bd4:	eb0002be 	bl	300016d4 <printf>
30000bd8:	e5dd1001 	ldrb	r1, [sp, #1]
30000bdc:	e59f0064 	ldr	r0, [pc, #100]	; 30000c48 <.text+0xc48>
30000be0:	eb0002bb 	bl	300016d4 <printf>
30000be4:	e5dd1002 	ldrb	r1, [sp, #2]
30000be8:	e59f005c 	ldr	r0, [pc, #92]	; 30000c4c <.text+0xc4c>
30000bec:	eb0002b8 	bl	300016d4 <printf>
30000bf0:	e5dd1003 	ldrb	r1, [sp, #3]
30000bf4:	e59f0054 	ldr	r0, [pc, #84]	; 30000c50 <.text+0xc50>
30000bf8:	eb0002b5 	bl	300016d4 <printf>
30000bfc:	e5dd1003 	ldrb	r1, [sp, #3]
30000c00:	e3a03001 	mov	r3, #1	; 0x1
30000c04:	e2011003 	and	r1, r1, #3	; 0x3
30000c08:	e1a01113 	mov	r1, r3, lsl r1
30000c0c:	e59f0040 	ldr	r0, [pc, #64]	; 30000c54 <.text+0xc54>
30000c10:	eb0002af 	bl	300016d4 <printf>
30000c14:	e5dd1003 	ldrb	r1, [sp, #3]
30000c18:	e1a01221 	mov	r1, r1, lsr #4
30000c1c:	e3a03040 	mov	r3, #64	; 0x40
30000c20:	e2011003 	and	r1, r1, #3	; 0x3
30000c24:	e1a01113 	mov	r1, r3, lsl r1
30000c28:	e59f0028 	ldr	r0, [pc, #40]	; 30000c58 <.text+0xc58>
30000c2c:	eb0002a8 	bl	300016d4 <printf>
30000c30:	e5dd1004 	ldrb	r1, [sp, #4]
30000c34:	e59f0020 	ldr	r0, [pc, #32]	; 30000c5c <.text+0xc5c>
30000c38:	eb0002a5 	bl	300016d4 <printf>
30000c3c:	e28dd008 	add	sp, sp, #8	; 0x8
30000c40:	e8bd8010 	ldmia	sp!, {r4, pc}
30000c44:	3000e014 	andcc	lr, r0, r4, lsl r0
30000c48:	3000e02c 	andcc	lr, r0, ip, lsr #32
30000c4c:	3000e044 	andcc	lr, r0, r4, asr #32
30000c50:	3000e05c 	andcc	lr, r0, ip, asr r0
30000c54:	3000e074 	andcc	lr, r0, r4, ror r0
30000c58:	3000e08c 	andcc	lr, r0, ip, lsl #1
30000c5c:	3000e0a4 	andcc	lr, r0, r4, lsr #1

30000c60 <NandErase>:
30000c60:	e3c034ff 	bic	r3, r0, #-16777216	; 0xff000000
30000c64:	e3c338fe 	bic	r3, r3, #16646144	; 0xfe0000
30000c68:	e3530000 	cmp	r3, #0	; 0x0
30000c6c:	e92d4070 	stmdb	sp!, {r4, r5, r6, lr}
30000c70:	e1a06000 	mov	r6, r0
30000c74:	e1a045a0 	mov	r4, r0, lsr #11
30000c78:	e1a05001 	mov	r5, r1
30000c7c:	159f0070 	ldrne	r0, [pc, #112]	; 30000cf4 <.text+0xcf4>
30000c80:	1a000018 	bne	30000ce8 <NandErase+0x88>
30000c84:	e3c134ff 	bic	r3, r1, #-16777216	; 0xff000000
30000c88:	e3c338fe 	bic	r3, r3, #16646144	; 0xfe0000
30000c8c:	e3530000 	cmp	r3, #0	; 0x0
30000c90:	1a000013 	bne	30000ce4 <NandErase+0x84>
30000c94:	ebfffea0 	bl	3000071c <SelectNand>
30000c98:	e3a00060 	mov	r0, #96	; 0x60
30000c9c:	ebfffea8 	bl	30000744 <NandCmd>
30000ca0:	e20400ff 	and	r0, r4, #255	; 0xff
30000ca4:	ebfffeb7 	bl	30000788 <NandAddrByte>
30000ca8:	e1a00424 	mov	r0, r4, lsr #8
30000cac:	e20000ff 	and	r0, r0, #255	; 0xff
30000cb0:	ebfffeb4 	bl	30000788 <NandAddrByte>
30000cb4:	e1a00824 	mov	r0, r4, lsr #16
30000cb8:	ebfffeb2 	bl	30000788 <NandAddrByte>
30000cbc:	e3a000d0 	mov	r0, #208	; 0xd0
30000cc0:	ebfffe9f 	bl	30000744 <NandCmd>
30000cc4:	e2866802 	add	r6, r6, #131072	; 0x20000
30000cc8:	ebffff53 	bl	30000a1c <NandWaitReady>
30000ccc:	e2555802 	subs	r5, r5, #131072	; 0x20000
30000cd0:	e1a045a6 	mov	r4, r6, lsr #11
30000cd4:	1affffef 	bne	30000c98 <NandErase+0x38>
30000cd8:	ebfffe94 	bl	30000730 <DeselectNand>
30000cdc:	e3a00000 	mov	r0, #0	; 0x0
30000ce0:	e8bd8070 	ldmia	sp!, {r4, r5, r6, pc}
30000ce4:	e59f000c 	ldr	r0, [pc, #12]	; 30000cf8 <.text+0xcf8>
30000ce8:	eb000279 	bl	300016d4 <printf>
30000cec:	e3e00000 	mvn	r0, #0	; 0x0
30000cf0:	e8bd8070 	ldmia	sp!, {r4, r5, r6, pc}
30000cf4:	3000e0bc 	strcch	lr, [r0], -ip
30000cf8:	3000e0e8 	andcc	lr, r0, r8, ror #1

30000cfc <NandWrite>:
30000cfc:	e92d45f0 	stmdb	sp!, {r4, r5, r6, r7, r8, sl, lr}
30000d00:	e1a04a80 	mov	r4, r0, lsl #21
30000d04:	e1a0a001 	mov	sl, r1
30000d08:	e1a07002 	mov	r7, r2
30000d0c:	e1a04aa4 	mov	r4, r4, lsr #21
30000d10:	e1a085a0 	mov	r8, r0, lsr #11
30000d14:	e3a05000 	mov	r5, #0	; 0x0
30000d18:	ebfffe7f 	bl	3000071c <SelectNand>
30000d1c:	e3a00080 	mov	r0, #128	; 0x80
30000d20:	ebfffe87 	bl	30000744 <NandCmd>
30000d24:	e20400ff 	and	r0, r4, #255	; 0xff
30000d28:	ebfffe96 	bl	30000788 <NandAddrByte>
30000d2c:	e1a00424 	mov	r0, r4, lsr #8
30000d30:	ebfffe94 	bl	30000788 <NandAddrByte>
30000d34:	e20800ff 	and	r0, r8, #255	; 0xff
30000d38:	ebfffe92 	bl	30000788 <NandAddrByte>
30000d3c:	e1a00428 	mov	r0, r8, lsr #8
30000d40:	e20000ff 	and	r0, r0, #255	; 0xff
30000d44:	ebfffe8f 	bl	30000788 <NandAddrByte>
30000d48:	e1a00828 	mov	r0, r8, lsr #16
30000d4c:	e20000ff 	and	r0, r0, #255	; 0xff
30000d50:	ebfffe8c 	bl	30000788 <NandAddrByte>
30000d54:	e3a02e7f 	mov	r2, #2032	; 0x7f0
30000d58:	e282200f 	add	r2, r2, #15	; 0xf
30000d5c:	e1540002 	cmp	r4, r2
30000d60:	c3a03000 	movgt	r3, #0	; 0x0
30000d64:	d3a03001 	movle	r3, #1	; 0x1
30000d68:	e1550007 	cmp	r5, r7
30000d6c:	23a03000 	movcs	r3, #0	; 0x0
30000d70:	e3530000 	cmp	r3, #0	; 0x0
30000d74:	0a00000a 	beq	30000da4 <NandWrite+0xa8>
30000d78:	e1a06002 	mov	r6, r2
30000d7c:	e7d5000a 	ldrb	r0, [r5, sl]
30000d80:	e2855001 	add	r5, r5, #1	; 0x1
30000d84:	ebffff77 	bl	30000b68 <NandWData>
30000d88:	e1540006 	cmp	r4, r6
30000d8c:	c3a03000 	movgt	r3, #0	; 0x0
30000d90:	d3a03001 	movle	r3, #1	; 0x1
30000d94:	e1550007 	cmp	r5, r7
30000d98:	23a03000 	movcs	r3, #0	; 0x0
30000d9c:	e3530000 	cmp	r3, #0	; 0x0
30000da0:	1afffff5 	bne	30000d7c <NandWrite+0x80>
30000da4:	e3a00010 	mov	r0, #16	; 0x10
30000da8:	ebfffe65 	bl	30000744 <NandCmd>
30000dac:	ebffff1a 	bl	30000a1c <NandWaitReady>
30000db0:	e1550007 	cmp	r5, r7
30000db4:	12888001 	addne	r8, r8, #1	; 0x1
30000db8:	13a04000 	movne	r4, #0	; 0x0
30000dbc:	1affffd6 	bne	30000d1c <NandWrite+0x20>
30000dc0:	e8bd45f0 	ldmia	sp!, {r4, r5, r6, r7, r8, sl, lr}
30000dc4:	eafffe59 	b	30000730 <DeselectNand>

30000dc8 <DoReadNandFlash>:
30000dc8:	e92d40f0 	stmdb	sp!, {r4, r5, r6, r7, lr}
30000dcc:	e59f0098 	ldr	r0, [pc, #152]	; 30000e6c <.text+0xe6c>
30000dd0:	e24dd050 	sub	sp, sp, #80	; 0x50
30000dd4:	eb00023e 	bl	300016d4 <printf>
30000dd8:	eb00030d 	bl	30001a14 <get_uint>
30000ddc:	e1a0100d 	mov	r1, sp
30000de0:	e3a02040 	mov	r2, #64	; 0x40
30000de4:	ebffff27 	bl	30000a88 <ReadNand>
30000de8:	e59f0080 	ldr	r0, [pc, #128]	; 30000e70 <.text+0xe70>
30000dec:	eb000238 	bl	300016d4 <printf>
30000df0:	e1a0600d 	mov	r6, sp
30000df4:	e3a07000 	mov	r7, #0	; 0x0
30000df8:	e28d5040 	add	r5, sp, #64	; 0x40
30000dfc:	e3a0400f 	mov	r4, #15	; 0xf
30000e00:	e4d63001 	ldrb	r3, [r6], #1
30000e04:	e20330ff 	and	r3, r3, #255	; 0xff
30000e08:	e1a01003 	mov	r1, r3
30000e0c:	e59f0060 	ldr	r0, [pc, #96]	; 30000e74 <.text+0xe74>
30000e10:	e4c53001 	strb	r3, [r5], #1
30000e14:	eb00022e 	bl	300016d4 <printf>
30000e18:	e2544001 	subs	r4, r4, #1	; 0x1
30000e1c:	5afffff7 	bpl	30000e00 <DoReadNandFlash+0x38>
30000e20:	e59f0050 	ldr	r0, [pc, #80]	; 30000e78 <.text+0xe78>
30000e24:	eb00022a 	bl	300016d4 <printf>
30000e28:	e28d5040 	add	r5, sp, #64	; 0x40
30000e2c:	e3a0400f 	mov	r4, #15	; 0xf
30000e30:	e4d52001 	ldrb	r2, [r5], #1
30000e34:	e2423020 	sub	r3, r2, #32	; 0x20
30000e38:	e353005e 	cmp	r3, #94	; 0x5e
30000e3c:	e3a0002e 	mov	r0, #46	; 0x2e
30000e40:	91a00002 	movls	r0, r2
30000e44:	ebfffe0a 	bl	30000674 <PutChar>
30000e48:	e2544001 	subs	r4, r4, #1	; 0x1
30000e4c:	5afffff7 	bpl	30000e30 <DoReadNandFlash+0x68>
30000e50:	e2877001 	add	r7, r7, #1	; 0x1
30000e54:	e59f0020 	ldr	r0, [pc, #32]	; 30000e7c <.text+0xe7c>
30000e58:	eb00021d 	bl	300016d4 <printf>
30000e5c:	e3570003 	cmp	r7, #3	; 0x3
30000e60:	daffffe4 	ble	30000df8 <DoReadNandFlash+0x30>
30000e64:	e28dd050 	add	sp, sp, #80	; 0x50
30000e68:	e8bd80f0 	ldmia	sp!, {r4, r5, r6, r7, pc}
30000e6c:	3000e114 	andcc	lr, r0, r4, lsl r1
30000e70:	3000e130 	andcc	lr, r0, r0, lsr r1
30000e74:	3000e13c 	andcc	lr, r0, ip, lsr r1
30000e78:	3000e144 	andcc	lr, r0, r4, asr #2
30000e7c:	3000efc4 	andcc	lr, r0, r4, asr #31

30000e80 <DoEraseNandFlash>:
30000e80:	e92d4010 	stmdb	sp!, {r4, lr}
30000e84:	e59f0020 	ldr	r0, [pc, #32]	; 30000eac <.text+0xeac>
30000e88:	eb000211 	bl	300016d4 <printf>
30000e8c:	eb0002e0 	bl	30001a14 <get_uint>
30000e90:	e1a04000 	mov	r4, r0
30000e94:	e59f0014 	ldr	r0, [pc, #20]	; 30000eb0 <.text+0xeb0>
30000e98:	eb00020d 	bl	300016d4 <printf>
30000e9c:	e1a00004 	mov	r0, r4
30000ea0:	e3a01802 	mov	r1, #131072	; 0x20000
30000ea4:	e8bd4010 	ldmia	sp!, {r4, lr}
30000ea8:	eaffff6c 	b	30000c60 <NandErase>
30000eac:	3000e14c 	andcc	lr, r0, ip, asr #2
30000eb0:	3000e174 	andcc	lr, r0, r4, ror r1

30000eb4 <DoWriteNandFlash>:
30000eb4:	e92d4030 	stmdb	sp!, {r4, r5, lr}
30000eb8:	e59f0048 	ldr	r0, [pc, #72]	; 30000f08 <.text+0xf08>
30000ebc:	e24dd064 	sub	sp, sp, #100	; 0x64
30000ec0:	eb000203 	bl	300016d4 <printf>
30000ec4:	eb0002d2 	bl	30001a14 <get_uint>
30000ec8:	e1a04000 	mov	r4, r0
30000ecc:	e59f0038 	ldr	r0, [pc, #56]	; 30000f0c <.text+0xf0c>
30000ed0:	eb0001ff 	bl	300016d4 <printf>
30000ed4:	e1a0000d 	mov	r0, sp
30000ed8:	eb0002a7 	bl	3000197c <gets>
30000edc:	e59f002c 	ldr	r0, [pc, #44]	; 30000f10 <.text+0xf10>
30000ee0:	eb0001fb 	bl	300016d4 <printf>
30000ee4:	e1a0000d 	mov	r0, sp
30000ee8:	eb0002d4 	bl	30001a40 <strlen>
30000eec:	e1a0100d 	mov	r1, sp
30000ef0:	e2802001 	add	r2, r0, #1	; 0x1
30000ef4:	e1a00004 	mov	r0, r4
30000ef8:	e1a0500d 	mov	r5, sp
30000efc:	ebffff7e 	bl	30000cfc <NandWrite>
30000f00:	e28dd064 	add	sp, sp, #100	; 0x64
30000f04:	e8bd8030 	ldmia	sp!, {r4, r5, pc}
30000f08:	3000e184 	andcc	lr, r0, r4, lsl #3
30000f0c:	3000e1ac 	andcc	lr, r0, ip, lsr #3
30000f10:	3000e1c8 	andcc	lr, r0, r8, asr #3

30000f14 <Convert>:
30000f14:	e92d4030 	stmdb	sp!, {r4, r5, lr}
30000f18:	e3510000 	cmp	r1, #0	; 0x0
30000f1c:	e3a0c000 	mov	ip, #0	; 0x0
30000f20:	03a03030 	moveq	r3, #48	; 0x30
30000f24:	e24dd024 	sub	sp, sp, #36	; 0x24
30000f28:	e1a0e002 	mov	lr, r2
30000f2c:	05c0c001 	streqb	ip, [r0, #1]
30000f30:	05c03000 	streqb	r3, [r0]
30000f34:	0a00001d 	beq	30000fb0 <Convert+0x9c>
30000f38:	e1a0400d 	mov	r4, sp
30000f3c:	ea000003 	b	30000f50 <Convert+0x3c>
30000f40:	e35e000a 	cmp	lr, #10	; 0xa
30000f44:	0a00001b 	beq	30000fb8 <Convert+0xa4>
30000f48:	e3510000 	cmp	r1, #0	; 0x0
30000f4c:	0a00000b 	beq	30000f80 <Convert+0x6c>
30000f50:	e35e0010 	cmp	lr, #16	; 0x10
30000f54:	e201300f 	and	r3, r1, #15	; 0xf
30000f58:	1afffff8 	bne	30000f40 <Convert+0x2c>
30000f5c:	e3530009 	cmp	r3, #9	; 0x9
30000f60:	e2832030 	add	r2, r3, #48	; 0x30
30000f64:	e1a01221 	mov	r1, r1, lsr #4
30000f68:	e2833037 	add	r3, r3, #55	; 0x37
30000f6c:	94c42001 	strlsb	r2, [r4], #1
30000f70:	84c43001 	strhib	r3, [r4], #1
30000f74:	e3510000 	cmp	r1, #0	; 0x0
30000f78:	e28cc001 	add	ip, ip, #1	; 0x1
30000f7c:	1afffff3 	bne	30000f50 <Convert+0x3c>
30000f80:	e151000c 	cmp	r1, ip
30000f84:	aa000007 	bge	30000fa8 <Convert+0x94>
30000f88:	e28d2024 	add	r2, sp, #36	; 0x24
30000f8c:	e08c3002 	add	r3, ip, r2
30000f90:	e2432025 	sub	r2, r3, #37	; 0x25
30000f94:	e4523001 	ldrb	r3, [r2], #-1
30000f98:	e7c03001 	strb	r3, [r0, r1]
30000f9c:	e2811001 	add	r1, r1, #1	; 0x1
30000fa0:	e151000c 	cmp	r1, ip
30000fa4:	bafffffa 	blt	30000f94 <Convert+0x80>
30000fa8:	e3a03000 	mov	r3, #0	; 0x0
30000fac:	e7c0300c 	strb	r3, [r0, ip]
30000fb0:	e28dd024 	add	sp, sp, #36	; 0x24
30000fb4:	e8bd8030 	ldmia	sp!, {r4, r5, pc}
30000fb8:	e59f3024 	ldr	r3, [pc, #36]	; 30000fe4 <.text+0xfe4>
30000fbc:	e0825193 	umull	r5, r2, r3, r1
30000fc0:	e1a021a2 	mov	r2, r2, lsr #3
30000fc4:	e0823102 	add	r3, r2, r2, lsl #2
30000fc8:	e0413083 	sub	r3, r1, r3, lsl #1
30000fcc:	e3530009 	cmp	r3, #9	; 0x9
30000fd0:	e2833030 	add	r3, r3, #48	; 0x30
30000fd4:	94c43001 	strlsb	r3, [r4], #1
30000fd8:	928cc001 	addls	ip, ip, #1	; 0x1
30000fdc:	e1a01002 	mov	r1, r2
30000fe0:	eaffffd8 	b	30000f48 <Convert+0x34>
30000fe4:	cccccccd 	stcgtl	12, cr12, [ip], {205}

30000fe8 <TestNandFlash>:
30000fe8:	e92d4030 	stmdb	sp!, {r4, r5, lr}
30000fec:	e3a04000 	mov	r4, #0	; 0x0
30000ff0:	e24dd030 	sub	sp, sp, #48	; 0x30
30000ff4:	e58d4028 	str	r4, [sp, #40]
30000ff8:	e5cd402c 	strb	r4, [sp, #44]
30000ffc:	ebfffdc0 	bl	30000704 <InitNand>
30001000:	ebfffdc5 	bl	3000071c <SelectNand>
30001004:	e3a00090 	mov	r0, #144	; 0x90
30001008:	ebfffdcd 	bl	30000744 <NandCmd>
3000100c:	e1a00004 	mov	r0, r4
30001010:	ebfffddc 	bl	30000788 <NandAddrByte>
30001014:	ebfffe85 	bl	30000a30 <NandData>
30001018:	e5cd0028 	strb	r0, [sp, #40]
3000101c:	ebfffe83 	bl	30000a30 <NandData>
30001020:	e5cd0029 	strb	r0, [sp, #41]
30001024:	ebfffe81 	bl	30000a30 <NandData>
30001028:	e5cd002a 	strb	r0, [sp, #42]
3000102c:	ebfffe7f 	bl	30000a30 <NandData>
30001030:	e5cd002b 	strb	r0, [sp, #43]
30001034:	ebfffe7d 	bl	30000a30 <NandData>
30001038:	e5cd002c 	strb	r0, [sp, #44]
3000103c:	ebfffdbb 	bl	30000730 <DeselectNand>
30001040:	e3e004ff 	mvn	r0, #-16777216	; 0xff000000
30001044:	eb000d7a 	bl	30004634 <ClearScreen>
30001048:	e3a038e3 	mov	r3, #14876672	; 0xe30000
3000104c:	e2833c17 	add	r3, r3, #5888	; 0x1700
30001050:	e28d5004 	add	r5, sp, #4	; 0x4
30001054:	e283300d 	add	r3, r3, #13	; 0xd
30001058:	e3a000b0 	mov	r0, #176	; 0xb0
3000105c:	e3a01005 	mov	r1, #5	; 0x5
30001060:	e59f243c 	ldr	r2, [pc, #1084]	; 300014a4 <.text+0x14a4>
30001064:	e58d4000 	str	r4, [sp]
30001068:	eb000f6c 	bl	30004e20 <PrintFbString16x32>
3000106c:	eb00062d 	bl	30002928 <DisplayReturnButton>
30001070:	e1a00005 	mov	r0, r5
30001074:	e5dd1028 	ldrb	r1, [sp, #40]
30001078:	e3a02010 	mov	r2, #16	; 0x10
3000107c:	ebffffa4 	bl	30000f14 <Convert>
30001080:	e3a00014 	mov	r0, #20	; 0x14
30001084:	e3a01028 	mov	r1, #40	; 0x28
30001088:	e59f2418 	ldr	r2, [pc, #1048]	; 300014a8 <.text+0x14a8>
3000108c:	e1a03004 	mov	r3, r4
30001090:	e58d4000 	str	r4, [sp]
30001094:	eb000f3a 	bl	30004d84 <PrintFbString8x16>
30001098:	e1a03004 	mov	r3, r4
3000109c:	e3a00094 	mov	r0, #148	; 0x94
300010a0:	e3a01028 	mov	r1, #40	; 0x28
300010a4:	e1a02005 	mov	r2, r5
300010a8:	e58d4000 	str	r4, [sp]
300010ac:	eb000f34 	bl	30004d84 <PrintFbString8x16>
300010b0:	e1a00005 	mov	r0, r5
300010b4:	e5dd1029 	ldrb	r1, [sp, #41]
300010b8:	e3a02010 	mov	r2, #16	; 0x10
300010bc:	ebffff94 	bl	30000f14 <Convert>
300010c0:	e3a00014 	mov	r0, #20	; 0x14
300010c4:	e3a0103c 	mov	r1, #60	; 0x3c
300010c8:	e59f23dc 	ldr	r2, [pc, #988]	; 300014ac <.text+0x14ac>
300010cc:	e1a03004 	mov	r3, r4
300010d0:	e58d4000 	str	r4, [sp]
300010d4:	eb000f2a 	bl	30004d84 <PrintFbString8x16>
300010d8:	e1a03004 	mov	r3, r4
300010dc:	e3a00094 	mov	r0, #148	; 0x94
300010e0:	e3a0103c 	mov	r1, #60	; 0x3c
300010e4:	e1a02005 	mov	r2, r5
300010e8:	e58d4000 	str	r4, [sp]
300010ec:	eb000f24 	bl	30004d84 <PrintFbString8x16>
300010f0:	e1a00005 	mov	r0, r5
300010f4:	e5dd102a 	ldrb	r1, [sp, #42]
300010f8:	e3a02010 	mov	r2, #16	; 0x10
300010fc:	ebffff84 	bl	30000f14 <Convert>
30001100:	e3a00014 	mov	r0, #20	; 0x14
30001104:	e3a01050 	mov	r1, #80	; 0x50
30001108:	e59f23a0 	ldr	r2, [pc, #928]	; 300014b0 <.text+0x14b0>
3000110c:	e1a03004 	mov	r3, r4
30001110:	e58d4000 	str	r4, [sp]
30001114:	eb000f1a 	bl	30004d84 <PrintFbString8x16>
30001118:	e1a03004 	mov	r3, r4
3000111c:	e3a00094 	mov	r0, #148	; 0x94
30001120:	e3a01050 	mov	r1, #80	; 0x50
30001124:	e1a02005 	mov	r2, r5
30001128:	e58d4000 	str	r4, [sp]
3000112c:	eb000f14 	bl	30004d84 <PrintFbString8x16>
30001130:	e1a00005 	mov	r0, r5
30001134:	e5dd102b 	ldrb	r1, [sp, #43]
30001138:	e3a02010 	mov	r2, #16	; 0x10
3000113c:	ebffff74 	bl	30000f14 <Convert>
30001140:	e3a00014 	mov	r0, #20	; 0x14
30001144:	e3a01064 	mov	r1, #100	; 0x64
30001148:	e59f2364 	ldr	r2, [pc, #868]	; 300014b4 <.text+0x14b4>
3000114c:	e1a03004 	mov	r3, r4
30001150:	e58d4000 	str	r4, [sp]
30001154:	eb000f0a 	bl	30004d84 <PrintFbString8x16>
30001158:	e1a03004 	mov	r3, r4
3000115c:	e3a00094 	mov	r0, #148	; 0x94
30001160:	e3a01064 	mov	r1, #100	; 0x64
30001164:	e1a02005 	mov	r2, r5
30001168:	e58d4000 	str	r4, [sp]
3000116c:	eb000f04 	bl	30004d84 <PrintFbString8x16>
30001170:	e5dd102b 	ldrb	r1, [sp, #43]
30001174:	e3a03001 	mov	r3, #1	; 0x1
30001178:	e2011003 	and	r1, r1, #3	; 0x3
3000117c:	e1a01113 	mov	r1, r3, lsl r1
30001180:	e1a00005 	mov	r0, r5
30001184:	e3a0200a 	mov	r2, #10	; 0xa
30001188:	ebffff61 	bl	30000f14 <Convert>
3000118c:	e3a00014 	mov	r0, #20	; 0x14
30001190:	e3a01078 	mov	r1, #120	; 0x78
30001194:	e59f231c 	ldr	r2, [pc, #796]	; 300014b8 <.text+0x14b8>
30001198:	e1a03004 	mov	r3, r4
3000119c:	e58d4000 	str	r4, [sp]
300011a0:	eb000ef7 	bl	30004d84 <PrintFbString8x16>
300011a4:	e3a00084 	mov	r0, #132	; 0x84
300011a8:	e3a01078 	mov	r1, #120	; 0x78
300011ac:	e1a02005 	mov	r2, r5
300011b0:	e1a03004 	mov	r3, r4
300011b4:	e58d4000 	str	r4, [sp]
300011b8:	eb000ef1 	bl	30004d84 <PrintFbString8x16>
300011bc:	e1a03004 	mov	r3, r4
300011c0:	e3a000b4 	mov	r0, #180	; 0xb4
300011c4:	e3a01078 	mov	r1, #120	; 0x78
300011c8:	e59f22ec 	ldr	r2, [pc, #748]	; 300014bc <.text+0x14bc>
300011cc:	e58d4000 	str	r4, [sp]
300011d0:	eb000eeb 	bl	30004d84 <PrintFbString8x16>
300011d4:	e5dd102b 	ldrb	r1, [sp, #43]
300011d8:	e1a01221 	mov	r1, r1, lsr #4
300011dc:	e3a03040 	mov	r3, #64	; 0x40
300011e0:	e2011003 	and	r1, r1, #3	; 0x3
300011e4:	e1a01113 	mov	r1, r3, lsl r1
300011e8:	e1a00005 	mov	r0, r5
300011ec:	e3a0200a 	mov	r2, #10	; 0xa
300011f0:	ebffff47 	bl	30000f14 <Convert>
300011f4:	e3a00014 	mov	r0, #20	; 0x14
300011f8:	e3a0108c 	mov	r1, #140	; 0x8c
300011fc:	e59f22bc 	ldr	r2, [pc, #700]	; 300014c0 <.text+0x14c0>
30001200:	e1a03004 	mov	r3, r4
30001204:	e58d4000 	str	r4, [sp]
30001208:	eb000edd 	bl	30004d84 <PrintFbString8x16>
3000120c:	e3a00084 	mov	r0, #132	; 0x84
30001210:	e3a0108c 	mov	r1, #140	; 0x8c
30001214:	e1a02005 	mov	r2, r5
30001218:	e1a03004 	mov	r3, r4
3000121c:	e58d4000 	str	r4, [sp]
30001220:	eb000ed7 	bl	30004d84 <PrintFbString8x16>
30001224:	e1a03004 	mov	r3, r4
30001228:	e3a000b4 	mov	r0, #180	; 0xb4
3000122c:	e3a0108c 	mov	r1, #140	; 0x8c
30001230:	e59f2284 	ldr	r2, [pc, #644]	; 300014bc <.text+0x14bc>
30001234:	e58d4000 	str	r4, [sp]
30001238:	eb000ed1 	bl	30004d84 <PrintFbString8x16>
3000123c:	e1a00005 	mov	r0, r5
30001240:	e5dd102c 	ldrb	r1, [sp, #44]
30001244:	e3a02010 	mov	r2, #16	; 0x10
30001248:	ebffff31 	bl	30000f14 <Convert>
3000124c:	e3a00014 	mov	r0, #20	; 0x14
30001250:	e3a010a0 	mov	r1, #160	; 0xa0
30001254:	e59f2268 	ldr	r2, [pc, #616]	; 300014c4 <.text+0x14c4>
30001258:	e1a03004 	mov	r3, r4
3000125c:	e58d4000 	str	r4, [sp]
30001260:	eb000ec7 	bl	30004d84 <PrintFbString8x16>
30001264:	e1a02005 	mov	r2, r5
30001268:	e3a00094 	mov	r0, #148	; 0x94
3000126c:	e3a010a0 	mov	r1, #160	; 0xa0
30001270:	e1a03004 	mov	r3, r4
30001274:	e58d4000 	str	r4, [sp]
30001278:	eb000ec1 	bl	30004d84 <PrintFbString8x16>
3000127c:	e3a00028 	mov	r0, #40	; 0x28
30001280:	e3a010f0 	mov	r1, #240	; 0xf0
30001284:	e59f223c 	ldr	r2, [pc, #572]	; 300014c8 <.text+0x14c8>
30001288:	e3a038ff 	mov	r3, #16711680	; 0xff0000
3000128c:	e58d4000 	str	r4, [sp]
30001290:	eb000ebb 	bl	30004d84 <PrintFbString8x16>
30001294:	e3a03ab1 	mov	r3, #724992	; 0xb1000
30001298:	e2833d1d 	add	r3, r3, #1856	; 0x740
3000129c:	e2833006 	add	r3, r3, #6	; 0x6
300012a0:	e3a00e12 	mov	r0, #288	; 0x120
300012a4:	e3a01028 	mov	r1, #40	; 0x28
300012a8:	e59f221c 	ldr	r2, [pc, #540]	; 300014cc <.text+0x14cc>
300012ac:	e58d4000 	str	r4, [sp]
300012b0:	eb000eda 	bl	30004e20 <PrintFbString16x32>
300012b4:	e3a03841 	mov	r3, #4259840	; 0x410000
300012b8:	e2833c69 	add	r3, r3, #26880	; 0x6900
300012bc:	e28330e1 	add	r3, r3, #225	; 0xe1
300012c0:	e3a00d05 	mov	r0, #320	; 0x140
300012c4:	e3a01055 	mov	r1, #85	; 0x55
300012c8:	e59f2200 	ldr	r2, [pc, #512]	; 300014d0 <.text+0x14d0>
300012cc:	e58d4000 	str	r4, [sp]
300012d0:	eb000eab 	bl	30004d84 <PrintFbString8x16>
300012d4:	e3a03841 	mov	r3, #4259840	; 0x410000
300012d8:	e2833c69 	add	r3, r3, #26880	; 0x6900
300012dc:	e28330e1 	add	r3, r3, #225	; 0xe1
300012e0:	e3a00e12 	mov	r0, #288	; 0x120
300012e4:	e3a0106e 	mov	r1, #110	; 0x6e
300012e8:	e59f21e4 	ldr	r2, [pc, #484]	; 300014d4 <.text+0x14d4>
300012ec:	e58d4000 	str	r4, [sp]
300012f0:	eb000ea3 	bl	30004d84 <PrintFbString8x16>
300012f4:	e3a03841 	mov	r3, #4259840	; 0x410000
300012f8:	e2833c69 	add	r3, r3, #26880	; 0x6900
300012fc:	e28330e1 	add	r3, r3, #225	; 0xe1
30001300:	e3a00e12 	mov	r0, #288	; 0x120
30001304:	e3a01082 	mov	r1, #130	; 0x82
30001308:	e59f21c8 	ldr	r2, [pc, #456]	; 300014d8 <.text+0x14d8>
3000130c:	e58d4000 	str	r4, [sp]
30001310:	eb000e9b 	bl	30004d84 <PrintFbString8x16>
30001314:	e3a03841 	mov	r3, #4259840	; 0x410000
30001318:	e2833c69 	add	r3, r3, #26880	; 0x6900
3000131c:	e28330e1 	add	r3, r3, #225	; 0xe1
30001320:	e3a0109b 	mov	r1, #155	; 0x9b
30001324:	e59f21b0 	ldr	r2, [pc, #432]	; 300014dc <.text+0x14dc>
30001328:	e3a00e12 	mov	r0, #288	; 0x120
3000132c:	e58d4000 	str	r4, [sp]
30001330:	eb000e93 	bl	30004d84 <PrintFbString8x16>
30001334:	e59f01a4 	ldr	r0, [pc, #420]	; 300014e0 <.text+0x14e0>
30001338:	eb0000e5 	bl	300016d4 <printf>
3000133c:	e59f01a0 	ldr	r0, [pc, #416]	; 300014e4 <.text+0x14e4>
30001340:	eb0000e3 	bl	300016d4 <printf>
30001344:	e59f019c 	ldr	r0, [pc, #412]	; 300014e8 <.text+0x14e8>
30001348:	eb0000e1 	bl	300016d4 <printf>
3000134c:	e59f0198 	ldr	r0, [pc, #408]	; 300014ec <.text+0x14ec>
30001350:	eb0000df 	bl	300016d4 <printf>
30001354:	e59f0194 	ldr	r0, [pc, #404]	; 300014f0 <.text+0x14f0>
30001358:	eb0000dd 	bl	300016d4 <printf>
3000135c:	e59f0190 	ldr	r0, [pc, #400]	; 300014f4 <.text+0x14f4>
30001360:	eb0000db 	bl	300016d4 <printf>
30001364:	e59f018c 	ldr	r0, [pc, #396]	; 300014f8 <.text+0x14f8>
30001368:	eb0000d9 	bl	300016d4 <printf>
3000136c:	e59f0188 	ldr	r0, [pc, #392]	; 300014fc <.text+0x14fc>
30001370:	eb0000d7 	bl	300016d4 <printf>
30001374:	eb00034a 	bl	300020a4 <isClickReturn>
30001378:	e3500000 	cmp	r0, #0	; 0x0
3000137c:	1a00003d 	bne	30001478 <.text+0x1478>
30001380:	ebfffcc2 	bl	30000690 <GetChar>
30001384:	e1a03000 	mov	r3, r0
30001388:	e21340ff 	ands	r4, r3, #255	; 0xff
3000138c:	e59f016c 	ldr	r0, [pc, #364]	; 30001500 <.text+0x1500>
30001390:	e1a01004 	mov	r1, r4
30001394:	0a000038 	beq	3000147c <.text+0x147c>
30001398:	eb0000cd 	bl	300016d4 <printf>
3000139c:	e2443045 	sub	r3, r4, #69	; 0x45
300013a0:	e3530032 	cmp	r3, #50	; 0x32
300013a4:	979ff103 	ldrls	pc, [pc, r3, lsl #2]
300013a8:	eafffff1 	b	30001374 <TestNandFlash+0x38c>
300013ac:	30001494 	mulcc	r0, r4, r4
300013b0:	30001374 	andcc	r1, r0, r4, ror r3
300013b4:	30001374 	andcc	r1, r0, r4, ror r3
300013b8:	30001374 	andcc	r1, r0, r4, ror r3
300013bc:	30001374 	andcc	r1, r0, r4, ror r3
300013c0:	30001374 	andcc	r1, r0, r4, ror r3
300013c4:	30001374 	andcc	r1, r0, r4, ror r3
300013c8:	30001374 	andcc	r1, r0, r4, ror r3
300013cc:	30001374 	andcc	r1, r0, r4, ror r3
300013d0:	30001374 	andcc	r1, r0, r4, ror r3
300013d4:	30001374 	andcc	r1, r0, r4, ror r3
300013d8:	30001374 	andcc	r1, r0, r4, ror r3
300013dc:	30001478 	andcc	r1, r0, r8, ror r4
300013e0:	3000149c 	mulcc	r0, ip, r4
300013e4:	3000148c 	andcc	r1, r0, ip, lsl #9
300013e8:	30001374 	andcc	r1, r0, r4, ror r3
300013ec:	30001374 	andcc	r1, r0, r4, ror r3
300013f0:	30001374 	andcc	r1, r0, r4, ror r3
300013f4:	30001484 	andcc	r1, r0, r4, lsl #9
300013f8:	30001374 	andcc	r1, r0, r4, ror r3
300013fc:	30001374 	andcc	r1, r0, r4, ror r3
30001400:	30001374 	andcc	r1, r0, r4, ror r3
30001404:	30001374 	andcc	r1, r0, r4, ror r3
30001408:	30001374 	andcc	r1, r0, r4, ror r3
3000140c:	30001374 	andcc	r1, r0, r4, ror r3
30001410:	30001374 	andcc	r1, r0, r4, ror r3
30001414:	30001374 	andcc	r1, r0, r4, ror r3
30001418:	30001374 	andcc	r1, r0, r4, ror r3
3000141c:	30001374 	andcc	r1, r0, r4, ror r3
30001420:	30001374 	andcc	r1, r0, r4, ror r3
30001424:	30001374 	andcc	r1, r0, r4, ror r3
30001428:	30001374 	andcc	r1, r0, r4, ror r3
3000142c:	30001494 	mulcc	r0, r4, r4
30001430:	30001374 	andcc	r1, r0, r4, ror r3
30001434:	30001374 	andcc	r1, r0, r4, ror r3
30001438:	30001374 	andcc	r1, r0, r4, ror r3
3000143c:	30001374 	andcc	r1, r0, r4, ror r3
30001440:	30001374 	andcc	r1, r0, r4, ror r3
30001444:	30001374 	andcc	r1, r0, r4, ror r3
30001448:	30001374 	andcc	r1, r0, r4, ror r3
3000144c:	30001374 	andcc	r1, r0, r4, ror r3
30001450:	30001374 	andcc	r1, r0, r4, ror r3
30001454:	30001374 	andcc	r1, r0, r4, ror r3
30001458:	30001374 	andcc	r1, r0, r4, ror r3
3000145c:	30001478 	andcc	r1, r0, r8, ror r4
30001460:	3000149c 	mulcc	r0, ip, r4
30001464:	3000148c 	andcc	r1, r0, ip, lsl #9
30001468:	30001374 	andcc	r1, r0, r4, ror r3
3000146c:	30001374 	andcc	r1, r0, r4, ror r3
30001470:	30001374 	andcc	r1, r0, r4, ror r3
30001474:	30001484 	andcc	r1, r0, r4, lsl #9
30001478:	eb0005fd 	bl	30002c74 <MainPage>
3000147c:	e28dd030 	add	sp, sp, #48	; 0x30
30001480:	e8bd8030 	ldmia	sp!, {r4, r5, pc}
30001484:	ebfffe8a 	bl	30000eb4 <DoWriteNandFlash>
30001488:	eaffffa9 	b	30001334 <TestNandFlash+0x34c>
3000148c:	ebfffdb9 	bl	30000b78 <PrintNandChipID>
30001490:	eaffffa7 	b	30001334 <TestNandFlash+0x34c>
30001494:	ebfffe79 	bl	30000e80 <DoEraseNandFlash>
30001498:	eaffffa5 	b	30001334 <TestNandFlash+0x34c>
3000149c:	ebfffe49 	bl	30000dc8 <DoReadNandFlash>
300014a0:	eaffffa3 	b	30001334 <TestNandFlash+0x34c>
300014a4:	3000e1d8 	ldrccd	lr, [r0], -r8
300014a8:	3000e1e4 	andcc	lr, r0, r4, ror #3
300014ac:	3000e1f8 	strccd	lr, [r0], -r8
300014b0:	3000e20c 	andcc	lr, r0, ip, lsl #4
300014b4:	3000e220 	andcc	lr, r0, r0, lsr #4
300014b8:	3000e234 	andcc	lr, r0, r4, lsr r2
300014bc:	3000e244 	andcc	lr, r0, r4, asr #4
300014c0:	3000e248 	andcc	lr, r0, r8, asr #4
300014c4:	3000e258 	andcc	lr, r0, r8, asr r2
300014c8:	3000e26c 	andcc	lr, r0, ip, ror #4
300014cc:	3000e2e0 	andcc	lr, r0, r0, ror #5
300014d0:	3000e2e8 	andcc	lr, r0, r8, ror #5
300014d4:	3000e300 	andcc	lr, r0, r0, lsl #6
300014d8:	3000e31c 	andcc	lr, r0, ip, lsl r3
300014dc:	3000e338 	andcc	lr, r0, r8, lsr r3
300014e0:	3000efc4 	andcc	lr, r0, r4, asr #31
300014e4:	3000e34c 	andcc	lr, r0, ip, asr #6
300014e8:	3000e36c 	andcc	lr, r0, ip, ror #6
300014ec:	3000e384 	andcc	lr, r0, r4, lsl #7
300014f0:	3000e39c 	mulcc	r0, ip, r3
300014f4:	3000e3b4 	strcch	lr, [r0], -r4
300014f8:	3000e3cc 	andcc	lr, r0, ip, asr #7
300014fc:	3000e3d8 	ldrccd	lr, [r0], -r8
30001500:	3000ee2c 	andcc	lr, r0, ip, lsr #28

30001504 <main>:
30001504:	e92d4010 	stmdb	sp!, {r4, lr}
30001508:	e24dd004 	sub	sp, sp, #4	; 0x4
3000150c:	e3a03064 	mov	r3, #100	; 0x64
30001510:	e28d4004 	add	r4, sp, #4	; 0x4
30001514:	e59f00dc 	ldr	r0, [pc, #220]	; 300015f8 <.text+0x15f8>
30001518:	e5243004 	str	r3, [r4, #-4]!
3000151c:	eb00006c 	bl	300016d4 <printf>
30001520:	eb00051f 	bl	300029a4 <BootInit>
30001524:	eb000539 	bl	30002a10 <BootScreen>
30001528:	eb0005d1 	bl	30002c74 <MainPage>
3000152c:	e3a03064 	mov	r3, #100	; 0x64
30001530:	e1a00004 	mov	r0, r4
30001534:	e58d3000 	str	r3, [sp]
30001538:	eb0003cd 	bl	30002474 <GetTestItem>
3000153c:	e3a00ffa 	mov	r0, #1000	; 0x3e8
30001540:	eb00022d 	bl	30001dfc <Delay>
30001544:	e59d3000 	ldr	r3, [sp]
30001548:	e353000b 	cmp	r3, #11	; 0xb
3000154c:	979ff103 	ldrls	pc, [pc, r3, lsl #2]
30001550:	eafffff5 	b	3000152c <main+0x28>
30001554:	300015f0 	strccd	r1, [r0], -r0
30001558:	300015e8 	andcc	r1, r0, r8, ror #11
3000155c:	300015e0 	andcc	r1, r0, r0, ror #11
30001560:	300015d8 	ldrccd	r1, [r0], -r8
30001564:	300015d0 	ldrccd	r1, [r0], -r0
30001568:	300015c8 	andcc	r1, r0, r8, asr #11
3000156c:	300015bc 	strcch	r1, [r0], -ip
30001570:	300015b4 	strcch	r1, [r0], -r4
30001574:	300015ac 	andcc	r1, r0, ip, lsr #11
30001578:	300015a4 	andcc	r1, r0, r4, lsr #11
3000157c:	30001594 	mulcc	r0, r4, r5
30001580:	30001584 	andcc	r1, r0, r4, lsl #11
30001584:	eb0001d8 	bl	30001cec <StopTimer>
30001588:	ebfffe96 	bl	30000fe8 <TestNandFlash>
3000158c:	eb0001dc 	bl	30001d04 <StartTimer>
30001590:	eaffffe5 	b	3000152c <main+0x28>
30001594:	eb0001d4 	bl	30001cec <StopTimer>
30001598:	eb00083c 	bl	30003690 <TestNorFlash>
3000159c:	eb0001d8 	bl	30001d04 <StartTimer>
300015a0:	eaffffe1 	b	3000152c <main+0x28>
300015a4:	eb001ccf 	bl	300088e8 <TestIrdaNec>
300015a8:	eaffffdf 	b	3000152c <main+0x28>
300015ac:	eb001b3c 	bl	300082a4 <TestDs18b20>
300015b0:	eaffffdd 	b	3000152c <main+0x28>
300015b4:	eb00199d 	bl	30007c30 <TestDht11>
300015b8:	eaffffdb 	b	3000152c <main+0x28>
300015bc:	eb001dba 	bl	30008cac <TestPhotoresistor>
300015c0:	eb000f55 	bl	3000531c <InitTouchScreen>
300015c4:	eaffffd8 	b	3000152c <main+0x28>
300015c8:	eb000630 	bl	30002e90 <TestSPI>
300015cc:	eaffffd6 	b	3000152c <main+0x28>
300015d0:	eb0015dd 	bl	30006d4c <TestAt24cxx>
300015d4:	eaffffd4 	b	3000152c <main+0x28>
300015d8:	eb000f79 	bl	300053c4 <TestTouchScreen>
300015dc:	eaffffd2 	b	3000152c <main+0x28>
300015e0:	eb000a7e 	bl	30003fe0 <TestLCD>
300015e4:	eaffffd0 	b	3000152c <main+0x28>
300015e8:	eb0013ec 	bl	300065a0 <TestKey>
300015ec:	eaffffce 	b	3000152c <main+0x28>
300015f0:	eb000e3a 	bl	30004ee0 <TestLED>
300015f4:	eaffffcc 	b	3000152c <main+0x28>
300015f8:	3000e3ec 	andcc	lr, r0, ip, ror #7

300015fc <outc>:
300015fc:	e52de004 	str	lr, [sp, #-4]!
30001600:	ebfffc1b 	bl	30000674 <PutChar>
30001604:	e3a00000 	mov	r0, #0	; 0x0
30001608:	e49df004 	ldr	pc, [sp], #4

3000160c <outs>:
3000160c:	e92d4010 	stmdb	sp!, {r4, lr}
30001610:	e1a04000 	mov	r4, r0
30001614:	e5d00000 	ldrb	r0, [r0]
30001618:	ea000001 	b	30001624 <outs+0x18>
3000161c:	ebfffc14 	bl	30000674 <PutChar>
30001620:	e5f40001 	ldrb	r0, [r4, #1]!
30001624:	e3500000 	cmp	r0, #0	; 0x0
30001628:	1afffffb 	bne	3000161c <outs+0x10>
3000162c:	e3a00000 	mov	r0, #0	; 0x0
30001630:	e8bd8010 	ldmia	sp!, {r4, pc}

30001634 <out_num>:
30001634:	e92d4ff0 	stmdb	sp!, {r4, r5, r6, r7, r8, r9, sl, fp, lr}
30001638:	e3a0c000 	mov	ip, #0	; 0x0
3000163c:	e24dd040 	sub	sp, sp, #64	; 0x40
30001640:	e5cdc03f 	strb	ip, [sp, #63]
30001644:	e59fa084 	ldr	sl, [pc, #132]	; 300016d0 <.text+0x16d0>
30001648:	e1a0700c 	mov	r7, ip
3000164c:	e1a0b000 	mov	fp, r0
30001650:	e1a06001 	mov	r6, r1
30001654:	e1a08003 	mov	r8, r3
30001658:	e20290ff 	and	r9, r2, #255	; 0xff
3000165c:	e0204fc0 	eor	r4, r0, r0, asr #31
30001660:	e0444fc0 	sub	r4, r4, r0, asr #31
30001664:	e28d503f 	add	r5, sp, #63	; 0x3f
30001668:	e1a00004 	mov	r0, r4
3000166c:	e1a01006 	mov	r1, r6
30001670:	ebfffafe 	bl	30000270 <__umodsi3>
30001674:	e7da3000 	ldrb	r3, [sl, r0]
30001678:	e1a01006 	mov	r1, r6
3000167c:	e1a00004 	mov	r0, r4
30001680:	e5653001 	strb	r3, [r5, #-1]!
30001684:	ebfffabd 	bl	30000180 <__udivsi3>
30001688:	e2504000 	subs	r4, r0, #0	; 0x0
3000168c:	e2877001 	add	r7, r7, #1	; 0x1
30001690:	1afffff4 	bne	30001668 <out_num+0x34>
30001694:	e3580000 	cmp	r8, #0	; 0x0
30001698:	11570008 	cmpne	r7, r8
3000169c:	aa000004 	bge	300016b4 <out_num+0x80>
300016a0:	e058c007 	subs	ip, r8, r7
300016a4:	0a000002 	beq	300016b4 <out_num+0x80>
300016a8:	e25cc001 	subs	ip, ip, #1	; 0x1
300016ac:	e5659001 	strb	r9, [r5, #-1]!
300016b0:	1afffffc 	bne	300016a8 <out_num+0x74>
300016b4:	e35b0000 	cmp	fp, #0	; 0x0
300016b8:	b3a0302d 	movlt	r3, #45	; 0x2d
300016bc:	b5653001 	strltb	r3, [r5, #-1]!
300016c0:	e1a00005 	mov	r0, r5
300016c4:	ebffffd0 	bl	3000160c <outs>
300016c8:	e28dd040 	add	sp, sp, #64	; 0x40
300016cc:	e8bd8ff0 	ldmia	sp!, {r4, r5, r6, r7, r8, r9, sl, fp, pc}
300016d0:	3000f344 	andcc	pc, r0, r4, asr #6

300016d4 <printf>:
300016d4:	e92d000f 	stmdb	sp!, {r0, r1, r2, r3}
300016d8:	e92d4030 	stmdb	sp!, {r4, r5, lr}
300016dc:	e59d400c 	ldr	r4, [sp, #12]
300016e0:	e5d40000 	ldrb	r0, [r4]
300016e4:	e3500000 	cmp	r0, #0	; 0x0
300016e8:	e28d5010 	add	r5, sp, #16	; 0x10
300016ec:	0a000005 	beq	30001708 <printf+0x34>
300016f0:	e3500025 	cmp	r0, #37	; 0x25
300016f4:	0a000007 	beq	30001718 <printf+0x44>
300016f8:	ebffffbf 	bl	300015fc <outc>
300016fc:	e5f40001 	ldrb	r0, [r4, #1]!
30001700:	e3500000 	cmp	r0, #0	; 0x0
30001704:	1afffff9 	bne	300016f0 <printf+0x1c>
30001708:	e3a00000 	mov	r0, #0	; 0x0
3000170c:	e8bd4030 	ldmia	sp!, {r4, r5, lr}
30001710:	e28dd010 	add	sp, sp, #16	; 0x10
30001714:	e1a0f00e 	mov	pc, lr
30001718:	e5f40001 	ldrb	r0, [r4, #1]!
3000171c:	e3500030 	cmp	r0, #48	; 0x30
30001720:	05f40001 	ldreqb	r0, [r4, #1]!
30001724:	e2403030 	sub	r3, r0, #48	; 0x30
30001728:	e3530009 	cmp	r3, #9	; 0x9
3000172c:	e3a02000 	mov	r2, #0	; 0x0
30001730:	8a000006 	bhi	30001750 <printf+0x7c>
30001734:	e0822102 	add	r2, r2, r2, lsl #2
30001738:	e0802082 	add	r2, r0, r2, lsl #1
3000173c:	e5f40001 	ldrb	r0, [r4, #1]!
30001740:	e2403030 	sub	r3, r0, #48	; 0x30
30001744:	e3530009 	cmp	r3, #9	; 0x9
30001748:	e2422030 	sub	r2, r2, #48	; 0x30
3000174c:	9afffff8 	bls	30001734 <printf+0x60>
30001750:	e2403063 	sub	r3, r0, #99	; 0x63
30001754:	e3530015 	cmp	r3, #21	; 0x15
30001758:	979ff103 	ldrls	pc, [pc, r3, lsl #2]
3000175c:	eaffffe5 	b	300016f8 <printf+0x24>
30001760:	300017ec 	andcc	r1, r0, ip, ror #15
30001764:	300017b8 	strcch	r1, [r0], -r8
30001768:	300016f8 	strccd	r1, [r0], -r8
3000176c:	300016f8 	strccd	r1, [r0], -r8
30001770:	300016f8 	strccd	r1, [r0], -r8
30001774:	300016f8 	strccd	r1, [r0], -r8
30001778:	300016f8 	strccd	r1, [r0], -r8
3000177c:	300016f8 	strccd	r1, [r0], -r8
30001780:	300016f8 	strccd	r1, [r0], -r8
30001784:	300016f8 	strccd	r1, [r0], -r8
30001788:	300016f8 	strccd	r1, [r0], -r8
3000178c:	300016f8 	strccd	r1, [r0], -r8
30001790:	300017dc 	ldrccd	r1, [r0], -ip
30001794:	300016f8 	strccd	r1, [r0], -r8
30001798:	300016f8 	strccd	r1, [r0], -r8
3000179c:	300016f8 	strccd	r1, [r0], -r8
300017a0:	300017d0 	ldrccd	r1, [r0], -r0
300017a4:	300016f8 	strccd	r1, [r0], -r8
300017a8:	300017b8 	strcch	r1, [r0], -r8
300017ac:	300016f8 	strccd	r1, [r0], -r8
300017b0:	300016f8 	strccd	r1, [r0], -r8
300017b4:	300017f4 	strccd	r1, [r0], -r4
300017b8:	e4950004 	ldr	r0, [r5], #4
300017bc:	e1a03002 	mov	r3, r2
300017c0:	e3a0100a 	mov	r1, #10	; 0xa
300017c4:	e3a02020 	mov	r2, #32	; 0x20
300017c8:	ebffff99 	bl	30001634 <out_num>
300017cc:	eaffffca 	b	300016fc <printf+0x28>
300017d0:	e4950004 	ldr	r0, [r5], #4
300017d4:	ebffff8c 	bl	3000160c <outs>
300017d8:	eaffffc7 	b	300016fc <printf+0x28>
300017dc:	e4950004 	ldr	r0, [r5], #4
300017e0:	e1a03002 	mov	r3, r2
300017e4:	e3a01008 	mov	r1, #8	; 0x8
300017e8:	eafffff5 	b	300017c4 <.text+0x17c4>
300017ec:	e4950004 	ldr	r0, [r5], #4
300017f0:	eaffffc0 	b	300016f8 <printf+0x24>
300017f4:	e4950004 	ldr	r0, [r5], #4
300017f8:	e1a03002 	mov	r3, r2
300017fc:	e3a01010 	mov	r1, #16	; 0x10
30001800:	eaffffef 	b	300017c4 <.text+0x17c4>

30001804 <printHex>:
30001804:	e92d4030 	stmdb	sp!, {r4, r5, lr}
30001808:	e24dd008 	sub	sp, sp, #8	; 0x8
3000180c:	e1a0200d 	mov	r2, sp
30001810:	e3a04007 	mov	r4, #7	; 0x7
30001814:	e200300f 	and	r3, r0, #15	; 0xf
30001818:	e2544001 	subs	r4, r4, #1	; 0x1
3000181c:	e4c23001 	strb	r3, [r2], #1
30001820:	e1a00220 	mov	r0, r0, lsr #4
30001824:	5afffffa 	bpl	30001814 <printHex+0x10>
30001828:	e59f004c 	ldr	r0, [pc, #76]	; 3000187c <.text+0x187c>
3000182c:	ebfffbaa 	bl	300006dc <Puts>
30001830:	e3a04007 	mov	r4, #7	; 0x7
30001834:	e08d5004 	add	r5, sp, r4
30001838:	ea000004 	b	30001850 <printHex+0x4c>
3000183c:	e3520005 	cmp	r2, #5	; 0x5
30001840:	e2830037 	add	r0, r3, #55	; 0x37
30001844:	9a000007 	bls	30001868 <printHex+0x64>
30001848:	e2544001 	subs	r4, r4, #1	; 0x1
3000184c:	4a000008 	bmi	30001874 <printHex+0x70>
30001850:	e4553001 	ldrb	r3, [r5], #-1
30001854:	e243200a 	sub	r2, r3, #10	; 0xa
30001858:	e20330ff 	and	r3, r3, #255	; 0xff
3000185c:	e3530009 	cmp	r3, #9	; 0x9
30001860:	e2830030 	add	r0, r3, #48	; 0x30
30001864:	8afffff4 	bhi	3000183c <printHex+0x38>
30001868:	ebfffb81 	bl	30000674 <PutChar>
3000186c:	e2544001 	subs	r4, r4, #1	; 0x1
30001870:	5afffff6 	bpl	30001850 <printHex+0x4c>
30001874:	e28dd008 	add	sp, sp, #8	; 0x8
30001878:	e8bd8030 	ldmia	sp!, {r4, r5, pc}
3000187c:	3000f24c 	andcc	pc, r0, ip, asr #4

30001880 <print1>:
30001880:	e59f0000 	ldr	r0, [pc, #0]	; 30001888 <.text+0x1888>
30001884:	eafffb94 	b	300006dc <Puts>
30001888:	3000e404 	andcc	lr, r0, r4, lsl #8

3000188c <print2>:
3000188c:	e59f0000 	ldr	r0, [pc, #0]	; 30001894 <.text+0x1894>
30001890:	eafffb91 	b	300006dc <Puts>
30001894:	3000e40c 	andcc	lr, r0, ip, lsl #8

30001898 <simple_strtoul>:
30001898:	e92d4030 	stmdb	sp!, {r4, r5, lr}
3000189c:	e5d0c000 	ldrb	ip, [r0]
300018a0:	e35c0030 	cmp	ip, #48	; 0x30
300018a4:	e1a05001 	mov	r5, r1
300018a8:	e1a0e002 	mov	lr, r2
300018ac:	e3a01000 	mov	r1, #0	; 0x0
300018b0:	0a000017 	beq	30001914 <simple_strtoul+0x7c>
300018b4:	e3520000 	cmp	r2, #0	; 0x0
300018b8:	e59f4090 	ldr	r4, [pc, #144]	; 30001950 <.text+0x1950>
300018bc:	0282e00a 	addeq	lr, r2, #10	; 0xa
300018c0:	ea00000a 	b	300018f0 <simple_strtoul+0x58>
300018c4:	e3120004 	tst	r2, #4	; 0x4
300018c8:	1a000004 	bne	300018e0 <simple_strtoul+0x48>
300018cc:	e24c3020 	sub	r3, ip, #32	; 0x20
300018d0:	e20330ff 	and	r3, r3, #255	; 0xff
300018d4:	e3120002 	tst	r2, #2	; 0x2
300018d8:	e2433037 	sub	r3, r3, #55	; 0x37
300018dc:	024c3037 	subeq	r3, ip, #55	; 0x37
300018e0:	e153000e 	cmp	r3, lr
300018e4:	2a000006 	bcs	30001904 <simple_strtoul+0x6c>
300018e8:	e021319e 	mla	r1, lr, r1, r3
300018ec:	e5f0c001 	ldrb	ip, [r0, #1]!
300018f0:	e20cc0ff 	and	ip, ip, #255	; 0xff
300018f4:	e7d4200c 	ldrb	r2, [r4, ip]
300018f8:	e3120044 	tst	r2, #68	; 0x44
300018fc:	e24c3030 	sub	r3, ip, #48	; 0x30
30001900:	1affffef 	bne	300018c4 <simple_strtoul+0x2c>
30001904:	e3550000 	cmp	r5, #0	; 0x0
30001908:	15850000 	strne	r0, [r5]
3000190c:	e1a00001 	mov	r0, r1
30001910:	e8bd8030 	ldmia	sp!, {r4, r5, pc}
30001914:	e5f0c001 	ldrb	ip, [r0, #1]!
30001918:	e35c0058 	cmp	ip, #88	; 0x58
3000191c:	135c0078 	cmpne	ip, #120	; 0x78
30001920:	159f4028 	ldrne	r4, [pc, #40]	; 30001950 <.text+0x1950>
30001924:	1a000006 	bne	30001944 <simple_strtoul+0xac>
30001928:	e5d03001 	ldrb	r3, [r0, #1]
3000192c:	e59f401c 	ldr	r4, [pc, #28]	; 30001950 <.text+0x1950>
30001930:	e7d42003 	ldrb	r2, [r4, r3]
30001934:	e3120044 	tst	r2, #68	; 0x44
30001938:	15f0c001 	ldrneb	ip, [r0, #1]!
3000193c:	13a0e010 	movne	lr, #16	; 0x10
30001940:	1affffea 	bne	300018f0 <simple_strtoul+0x58>
30001944:	e35e0000 	cmp	lr, #0	; 0x0
30001948:	028ee008 	addeq	lr, lr, #8	; 0x8
3000194c:	eaffffe7 	b	300018f0 <simple_strtoul+0x58>
30001950:	3000f354 	andcc	pc, r0, r4, asr r3

30001954 <simple_strtol>:
30001954:	e52de004 	str	lr, [sp, #-4]!
30001958:	e5d03000 	ldrb	r3, [r0]
3000195c:	e353002d 	cmp	r3, #45	; 0x2d
30001960:	0a000001 	beq	3000196c <simple_strtol+0x18>
30001964:	e49de004 	ldr	lr, [sp], #4
30001968:	eaffffca 	b	30001898 <simple_strtoul>
3000196c:	e2800001 	add	r0, r0, #1	; 0x1
30001970:	ebffffc8 	bl	30001898 <simple_strtoul>
30001974:	e2600000 	rsb	r0, r0, #0	; 0x0
30001978:	e49df004 	ldr	pc, [sp], #4

3000197c <gets>:
3000197c:	e92d4070 	stmdb	sp!, {r4, r5, r6, lr}
30001980:	e1a06000 	mov	r6, r0
30001984:	e3a05000 	mov	r5, #0	; 0x0
30001988:	ea000007 	b	300019ac <gets+0x30>
3000198c:	e354000d 	cmp	r4, #13	; 0xd
30001990:	e3a0000a 	mov	r0, #10	; 0xa
30001994:	0a00000b 	beq	300019c8 <gets+0x4c>
30001998:	e354000d 	cmp	r4, #13	; 0xd
3000199c:	1354000a 	cmpne	r4, #10	; 0xa
300019a0:	0a00000c 	beq	300019d8 <gets+0x5c>
300019a4:	e7c54006 	strb	r4, [r5, r6]
300019a8:	e2855001 	add	r5, r5, #1	; 0x1
300019ac:	ebfffb37 	bl	30000690 <GetChar>
300019b0:	e20040ff 	and	r4, r0, #255	; 0xff
300019b4:	e1a00004 	mov	r0, r4
300019b8:	ebfffb2d 	bl	30000674 <PutChar>
300019bc:	e354000a 	cmp	r4, #10	; 0xa
300019c0:	e3a0000d 	mov	r0, #13	; 0xd
300019c4:	1afffff0 	bne	3000198c <gets+0x10>
300019c8:	ebfffb29 	bl	30000674 <PutChar>
300019cc:	e354000d 	cmp	r4, #13	; 0xd
300019d0:	1354000a 	cmpne	r4, #10	; 0xa
300019d4:	1afffff2 	bne	300019a4 <gets+0x28>
300019d8:	e3a03000 	mov	r3, #0	; 0x0
300019dc:	e1a00006 	mov	r0, r6
300019e0:	e7c63005 	strb	r3, [r6, r5]
300019e4:	e8bd8070 	ldmia	sp!, {r4, r5, r6, pc}

300019e8 <get_int>:
300019e8:	e92d4010 	stmdb	sp!, {r4, lr}
300019ec:	e24dd064 	sub	sp, sp, #100	; 0x64
300019f0:	e1a0000d 	mov	r0, sp
300019f4:	ebffffe0 	bl	3000197c <gets>
300019f8:	e3a01000 	mov	r1, #0	; 0x0
300019fc:	e1a0000d 	mov	r0, sp
30001a00:	e1a02001 	mov	r2, r1
30001a04:	e1a0400d 	mov	r4, sp
30001a08:	ebffffd1 	bl	30001954 <simple_strtol>
30001a0c:	e28dd064 	add	sp, sp, #100	; 0x64
30001a10:	e8bd8010 	ldmia	sp!, {r4, pc}

30001a14 <get_uint>:
30001a14:	e92d4010 	stmdb	sp!, {r4, lr}
30001a18:	e24dd064 	sub	sp, sp, #100	; 0x64
30001a1c:	e1a0000d 	mov	r0, sp
30001a20:	ebffffd5 	bl	3000197c <gets>
30001a24:	e3a01000 	mov	r1, #0	; 0x0
30001a28:	e1a0000d 	mov	r0, sp
30001a2c:	e1a02001 	mov	r2, r1
30001a30:	e1a0400d 	mov	r4, sp
30001a34:	ebffff97 	bl	30001898 <simple_strtoul>
30001a38:	e28dd064 	add	sp, sp, #100	; 0x64
30001a3c:	e8bd8010 	ldmia	sp!, {r4, pc}

30001a40 <strlen>:
30001a40:	e5d03000 	ldrb	r3, [r0]
30001a44:	e3530000 	cmp	r3, #0	; 0x0
30001a48:	e1a02000 	mov	r2, r0
30001a4c:	0a000002 	beq	30001a5c <strlen+0x1c>
30001a50:	e5f03001 	ldrb	r3, [r0, #1]!
30001a54:	e3530000 	cmp	r3, #0	; 0x0
30001a58:	1afffffc 	bne	30001a50 <strlen+0x10>
30001a5c:	e0620000 	rsb	r0, r2, r0
30001a60:	e1a0f00e 	mov	pc, lr

30001a64 <strcmp>:
30001a64:	e5d02000 	ldrb	r2, [r0]
30001a68:	e4d13001 	ldrb	r3, [r1], #1
30001a6c:	e0633002 	rsb	r3, r3, r2
30001a70:	e1b0cc03 	movs	ip, r3, lsl #24
30001a74:	e2800001 	add	r0, r0, #1	; 0x1
30001a78:	e20330ff 	and	r3, r3, #255	; 0xff
30001a7c:	1a000001 	bne	30001a88 <strcmp+0x24>
30001a80:	e3520000 	cmp	r2, #0	; 0x0
30001a84:	1afffff6 	bne	30001a64 <strcmp>
30001a88:	e1a00c03 	mov	r0, r3, lsl #24
30001a8c:	e1a00c40 	mov	r0, r0, asr #24
30001a90:	e1a0f00e 	mov	pc, lr

30001a94 <memcpy>:
30001a94:	e2422001 	sub	r2, r2, #1	; 0x1
30001a98:	e3720001 	cmn	r2, #1	; 0x1
30001a9c:	e1a0c000 	mov	ip, r0
30001aa0:	01a0f00e 	moveq	pc, lr
30001aa4:	e2422001 	sub	r2, r2, #1	; 0x1
30001aa8:	e4d13001 	ldrb	r3, [r1], #1
30001aac:	e3720001 	cmn	r2, #1	; 0x1
30001ab0:	e4cc3001 	strb	r3, [ip], #1
30001ab4:	1afffffa 	bne	30001aa4 <memcpy+0x10>
30001ab8:	e1a0f00e 	mov	pc, lr

30001abc <printException>:
30001abc:	e92d4030 	stmdb	sp!, {r4, r5, lr}
30001ac0:	e1a04000 	mov	r4, r0
30001ac4:	e59f0028 	ldr	r0, [pc, #40]	; 30001af4 <.text+0x1af4>
30001ac8:	e1a05001 	mov	r5, r1
30001acc:	ebfffb02 	bl	300006dc <Puts>
30001ad0:	e1a00004 	mov	r0, r4
30001ad4:	ebffff4a 	bl	30001804 <printHex>
30001ad8:	e59f0018 	ldr	r0, [pc, #24]	; 30001af8 <.text+0x1af8>
30001adc:	ebfffafe 	bl	300006dc <Puts>
30001ae0:	e1a00005 	mov	r0, r5
30001ae4:	ebfffafc 	bl	300006dc <Puts>
30001ae8:	e59f000c 	ldr	r0, [pc, #12]	; 30001afc <.text+0x1afc>
30001aec:	e8bd4030 	ldmia	sp!, {r4, r5, lr}
30001af0:	eafffaf9 	b	300006dc <Puts>
30001af4:	3000e414 	andcc	lr, r0, r4, lsl r4
30001af8:	3000f174 	andcc	pc, r0, r4, ror r1
30001afc:	3000efc4 	andcc	lr, r0, r4, asr #31

30001b00 <printSWIVal>:
30001b00:	e92d4010 	stmdb	sp!, {r4, lr}
30001b04:	e1a04000 	mov	r4, r0
30001b08:	e59f0018 	ldr	r0, [pc, #24]	; 30001b28 <.text+0x1b28>
30001b0c:	ebfffaf2 	bl	300006dc <Puts>
30001b10:	e5940000 	ldr	r0, [r4]
30001b14:	e3c004ff 	bic	r0, r0, #-16777216	; 0xff000000
30001b18:	ebffff39 	bl	30001804 <printHex>
30001b1c:	e59f0008 	ldr	r0, [pc, #8]	; 30001b2c <.text+0x1b2c>
30001b20:	e8bd4010 	ldmia	sp!, {r4, lr}
30001b24:	eafffaec 	b	300006dc <Puts>
30001b28:	3000e428 	andcc	lr, r0, r8, lsr #8
30001b2c:	3000efc4 	andcc	lr, r0, r4, asr #31

30001b30 <HandleIrqC>:
30001b30:	e92d4030 	stmdb	sp!, {r4, r5, lr}
30001b34:	e3a0544a 	mov	r5, #1241513984	; 0x4a000000
30001b38:	e5954014 	ldr	r4, [r5, #20]
30001b3c:	e59f201c 	ldr	r2, [pc, #28]	; 30001b60 <.text+0x1b60>
30001b40:	e1a00004 	mov	r0, r4
30001b44:	e1a0e00f 	mov	lr, pc
30001b48:	e792f104 	ldr	pc, [r2, r4, lsl #2]
30001b4c:	e3a03001 	mov	r3, #1	; 0x1
30001b50:	e1a03413 	mov	r3, r3, lsl r4
30001b54:	e5853000 	str	r3, [r5]
30001b58:	e5853010 	str	r3, [r5, #16]
30001b5c:	e8bd8030 	ldmia	sp!, {r4, r5, pc}
30001b60:	30011658 	andcc	r1, r1, r8, asr r6

30001b64 <RegisterIrq>:
30001b64:	e52de004 	str	lr, [sp, #-4]!
30001b68:	e3a0e44a 	mov	lr, #1241513984	; 0x4a000000
30001b6c:	e59ec008 	ldr	ip, [lr, #8]
30001b70:	e3a03001 	mov	r3, #1	; 0x1
30001b74:	e59f200c 	ldr	r2, [pc, #12]	; 30001b88 <.text+0x1b88>
30001b78:	e1ccc013 	bic	ip, ip, r3, lsl r0
30001b7c:	e7821100 	str	r1, [r2, r0, lsl #2]
30001b80:	e58ec008 	str	ip, [lr, #8]
30001b84:	e49df004 	ldr	pc, [sp], #4
30001b88:	30011658 	andcc	r1, r1, r8, asr r6

30001b8c <RegisterTimer>:
30001b8c:	e52de004 	str	lr, [sp, #-4]!
30001b90:	e59fc038 	ldr	ip, [pc, #56]	; 30001bd0 <.text+0x1bd0>
30001b94:	e1a0e000 	mov	lr, r0
30001b98:	e3a03000 	mov	r3, #0	; 0x0
30001b9c:	ea000002 	b	30001bac <RegisterTimer+0x20>
30001ba0:	e2833001 	add	r3, r3, #1	; 0x1
30001ba4:	e353001f 	cmp	r3, #31	; 0x1f
30001ba8:	ca000006 	bgt	30001bc8 <RegisterTimer+0x3c>
30001bac:	e08c2183 	add	r2, ip, r3, lsl #3
30001bb0:	e5920004 	ldr	r0, [r2, #4]
30001bb4:	e3500000 	cmp	r0, #0	; 0x0
30001bb8:	1afffff8 	bne	30001ba0 <RegisterTimer+0x14>
30001bbc:	e78ce183 	str	lr, [ip, r3, lsl #3]
30001bc0:	e5821004 	str	r1, [r2, #4]
30001bc4:	e49df004 	ldr	pc, [sp], #4
30001bc8:	e3e00000 	mvn	r0, #0	; 0x0
30001bcc:	e49df004 	ldr	pc, [sp], #4
30001bd0:	300116d8 	ldrccd	r1, [r1], -r8

30001bd4 <UnregisterTimer>:
30001bd4:	e92d40f0 	stmdb	sp!, {r4, r5, r6, r7, lr}
30001bd8:	e59f5050 	ldr	r5, [pc, #80]	; 30001c30 <.text+0x1c30>
30001bdc:	e1a06000 	mov	r6, r0
30001be0:	e3a04000 	mov	r4, #0	; 0x0
30001be4:	e1a07005 	mov	r7, r5
30001be8:	ea000003 	b	30001bfc <UnregisterTimer+0x28>
30001bec:	e2844001 	add	r4, r4, #1	; 0x1
30001bf0:	e354001f 	cmp	r4, #31	; 0x1f
30001bf4:	e2855008 	add	r5, r5, #8	; 0x8
30001bf8:	ca000009 	bgt	30001c24 <UnregisterTimer+0x50>
30001bfc:	e7970184 	ldr	r0, [r7, r4, lsl #3]
30001c00:	e1a01006 	mov	r1, r6
30001c04:	ebffff96 	bl	30001a64 <strcmp>
30001c08:	e3500000 	cmp	r0, #0	; 0x0
30001c0c:	1afffff6 	bne	30001bec <UnregisterTimer+0x18>
30001c10:	e1a03000 	mov	r3, r0
30001c14:	e7870184 	str	r0, [r7, r4, lsl #3]
30001c18:	e5850004 	str	r0, [r5, #4]
30001c1c:	e1a00003 	mov	r0, r3
30001c20:	e8bd80f0 	ldmia	sp!, {r4, r5, r6, r7, pc}
30001c24:	e3e03000 	mvn	r3, #0	; 0x0
30001c28:	e1a00003 	mov	r0, r3
30001c2c:	e8bd80f0 	ldmia	sp!, {r4, r5, r6, r7, pc}
30001c30:	300116d8 	ldrccd	r1, [r1], -r8

30001c34 <TimerIrq>:
30001c34:	e92d4030 	stmdb	sp!, {r4, r5, lr}
30001c38:	e59f304c 	ldr	r3, [pc, #76]	; 30001c8c <.text+0x1c8c>
30001c3c:	e8930006 	ldmia	r3, {r1, r2}
30001c40:	e3a05000 	mov	r5, #0	; 0x0
30001c44:	e3a04001 	mov	r4, #1	; 0x1
30001c48:	e0911004 	adds	r1, r1, r4
30001c4c:	e0a22005 	adc	r2, r2, r5
30001c50:	e59f5038 	ldr	r5, [pc, #56]	; 30001c90 <.text+0x1c90>
30001c54:	e3a0401f 	mov	r4, #31	; 0x1f
30001c58:	e8830006 	stmia	r3, {r1, r2}
30001c5c:	ea000001 	b	30001c68 <TimerIrq+0x34>
30001c60:	e2544001 	subs	r4, r4, #1	; 0x1
30001c64:	4a000007 	bmi	30001c88 <TimerIrq+0x54>
30001c68:	e5953004 	ldr	r3, [r5, #4]
30001c6c:	e3530000 	cmp	r3, #0	; 0x0
30001c70:	e2855008 	add	r5, r5, #8	; 0x8
30001c74:	0afffff9 	beq	30001c60 <TimerIrq+0x2c>
30001c78:	e1a0e00f 	mov	lr, pc
30001c7c:	e1a0f003 	mov	pc, r3
30001c80:	e2544001 	subs	r4, r4, #1	; 0x1
30001c84:	5afffff7 	bpl	30001c68 <TimerIrq+0x34>
30001c88:	e8bd8030 	ldmia	sp!, {r4, r5, pc}
30001c8c:	3000f4bc 	strcch	pc, [r0], -ip
30001c90:	300116d8 	ldrccd	r1, [r1], -r8

30001c94 <InitTimer>:
30001c94:	e3a0c451 	mov	ip, #1358954496	; 0x51000000
30001c98:	e3a03004 	mov	r3, #4	; 0x4
30001c9c:	e58c3000 	str	r3, [ip]
30001ca0:	e59c2004 	ldr	r2, [ip, #4]
30001ca4:	e3a01cc3 	mov	r1, #49920	; 0xc300
30001ca8:	e3c2200f 	bic	r2, r2, #15	; 0xf
30001cac:	e2811050 	add	r1, r1, #80	; 0x50
30001cb0:	e58c2004 	str	r2, [ip, #4]
30001cb4:	e58c100c 	str	r1, [ip, #12]
30001cb8:	e59c3008 	ldr	r3, [ip, #8]
30001cbc:	e3833002 	orr	r3, r3, #2	; 0x2
30001cc0:	e58c3008 	str	r3, [ip, #8]
30001cc4:	e59c2008 	ldr	r2, [ip, #8]
30001cc8:	e3c22002 	bic	r2, r2, #2	; 0x2
30001ccc:	e58c2008 	str	r2, [ip, #8]
30001cd0:	e59c3008 	ldr	r3, [ip, #8]
30001cd4:	e59f100c 	ldr	r1, [pc, #12]	; 30001ce8 <.text+0x1ce8>
30001cd8:	e3833009 	orr	r3, r3, #9	; 0x9
30001cdc:	e3a0000a 	mov	r0, #10	; 0xa
30001ce0:	e58c3008 	str	r3, [ip, #8]
30001ce4:	eaffff9e 	b	30001b64 <RegisterIrq>
30001ce8:	30001c34 	andcc	r1, r0, r4, lsr ip

30001cec <StopTimer>:
30001cec:	e3a02451 	mov	r2, #1358954496	; 0x51000000
30001cf0:	e5923008 	ldr	r3, [r2, #8]
30001cf4:	e3a00000 	mov	r0, #0	; 0x0
30001cf8:	e3c33001 	bic	r3, r3, #1	; 0x1
30001cfc:	e5823008 	str	r3, [r2, #8]
30001d00:	e1a0f00e 	mov	pc, lr

30001d04 <StartTimer>:
30001d04:	e3a02451 	mov	r2, #1358954496	; 0x51000000
30001d08:	e5923008 	ldr	r3, [r2, #8]
30001d0c:	e3a00000 	mov	r0, #0	; 0x0
30001d10:	e3833001 	orr	r3, r3, #1	; 0x1
30001d14:	e5823008 	str	r3, [r2, #8]
30001d18:	e1a0f00e 	mov	pc, lr

30001d1c <uDelay>:
30001d1c:	e0801100 	add	r1, r0, r0, lsl #2
30001d20:	e3a03451 	mov	r3, #1358954496	; 0x51000000
30001d24:	e3510000 	cmp	r1, #0	; 0x0
30001d28:	e5932014 	ldr	r2, [r3, #20]
30001d2c:	d1a0f00e 	movle	pc, lr
30001d30:	e1a0c003 	mov	ip, r3
30001d34:	e59c3014 	ldr	r3, [ip, #20]
30001d38:	e1530002 	cmp	r3, r2
30001d3c:	e0630002 	rsb	r0, r3, r2
30001d40:	e0632002 	rsb	r2, r3, r2
30001d44:	c2802cc3 	addgt	r2, r0, #49920	; 0xc300
30001d48:	c2822050 	addgt	r2, r2, #80	; 0x50
30001d4c:	e0621001 	rsb	r1, r2, r1
30001d50:	e3510000 	cmp	r1, #0	; 0x0
30001d54:	e1a02003 	mov	r2, r3
30001d58:	cafffff5 	bgt	30001d34 <uDelay+0x18>
30001d5c:	e1a0f00e 	mov	pc, lr

30001d60 <mDelay>:
30001d60:	e0603280 	rsb	r3, r0, r0, lsl #5
30001d64:	e0800103 	add	r0, r0, r3, lsl #2
30001d68:	e1a00180 	mov	r0, r0, lsl #3
30001d6c:	eaffffea 	b	30001d1c <uDelay>

30001d70 <GetSystemTimeUs>:
30001d70:	e92d4070 	stmdb	sp!, {r4, r5, r6, lr}
30001d74:	e59f3070 	ldr	r3, [pc, #112]	; 30001dec <.text+0x1dec>
30001d78:	e3a02451 	mov	r2, #1358954496	; 0x51000000
30001d7c:	e5920014 	ldr	r0, [r2, #20]
30001d80:	e8930060 	ldmia	r3, {r5, r6}
30001d84:	e2600cc3 	rsb	r0, r0, #49920	; 0xc300
30001d88:	e59f3060 	ldr	r3, [pc, #96]	; 30001df0 <.text+0x1df0>
30001d8c:	e1a0c286 	mov	ip, r6, lsl #5
30001d90:	e2800050 	add	r0, r0, #80	; 0x50
30001d94:	e18c2da5 	orr	r2, ip, r5, lsr #27
30001d98:	e08ce093 	umull	lr, ip, r3, r0
30001d9c:	e1a01285 	mov	r1, r5, lsl #5
30001da0:	e0511005 	subs	r1, r1, r5
30001da4:	e0c22006 	sbc	r2, r2, r6
30001da8:	e1a00102 	mov	r0, r2, lsl #2
30001dac:	e1a03101 	mov	r3, r1, lsl #2
30001db0:	e0933005 	adds	r3, r3, r5
30001db4:	e1804f21 	orr	r4, r0, r1, lsr #30
30001db8:	e0a44006 	adc	r4, r4, r6
30001dbc:	e1a00104 	mov	r0, r4, lsl #2
30001dc0:	e1a01103 	mov	r1, r3, lsl #2
30001dc4:	e0911003 	adds	r1, r1, r3
30001dc8:	e1802f23 	orr	r2, r0, r3, lsr #30
30001dcc:	e0a22004 	adc	r2, r2, r4
30001dd0:	e1a00202 	mov	r0, r2, lsl #4
30001dd4:	e1a03201 	mov	r3, r1, lsl #4
30001dd8:	e1a0c12c 	mov	ip, ip, lsr #2
30001ddc:	e1804e21 	orr	r4, r0, r1, lsr #28
30001de0:	e093000c 	adds	r0, r3, ip
30001de4:	e2a41000 	adc	r1, r4, #0	; 0x0
30001de8:	e8bd8070 	ldmia	sp!, {r4, r5, r6, pc}
30001dec:	3000f4bc 	strcch	pc, [r0], -ip
30001df0:	cccccccd 	stcgtl	12, cr12, [ip], {205}

30001df4 <DeltaTimeUs>:
30001df4:	e0600002 	rsb	r0, r0, r2
30001df8:	e1a0f00e 	mov	pc, lr

30001dfc <Delay>:
30001dfc:	e24dd004 	sub	sp, sp, #4	; 0x4
30001e00:	e58d0000 	str	r0, [sp]
30001e04:	e59d3000 	ldr	r3, [sp]
30001e08:	e2433001 	sub	r3, r3, #1	; 0x1
30001e0c:	e58d3000 	str	r3, [sp]
30001e10:	e59d2000 	ldr	r2, [sp]
30001e14:	e3720001 	cmn	r2, #1	; 0x1
30001e18:	1afffff9 	bne	30001e04 <Delay+0x8>
30001e1c:	e28dd004 	add	sp, sp, #4	; 0x4
30001e20:	e1a0f00e 	mov	pc, lr

30001e24 <InitButton>:
30001e24:	e59f31cc 	ldr	r3, [pc, #460]	; 30001ff8 <.text+0x1ff8>
30001e28:	e59f11cc 	ldr	r1, [pc, #460]	; 30001ffc <.text+0x1ffc>
30001e2c:	e92d45f0 	stmdb	sp!, {r4, r5, r6, r7, r8, sl, lr}
30001e30:	e3a02000 	mov	r2, #0	; 0x0
30001e34:	e5831014 	str	r1, [r3, #20]
30001e38:	e59f11c0 	ldr	r1, [pc, #448]	; 30002000 <.text+0x2000>
30001e3c:	e5832000 	str	r2, [r3]
30001e40:	e2822001 	add	r2, r2, #1	; 0x1
30001e44:	e5832018 	str	r2, [r3, #24]
30001e48:	e583102c 	str	r1, [r3, #44]
30001e4c:	e2822001 	add	r2, r2, #1	; 0x1
30001e50:	e59f11ac 	ldr	r1, [pc, #428]	; 30002004 <.text+0x2004>
30001e54:	e5832030 	str	r2, [r3, #48]
30001e58:	e2822001 	add	r2, r2, #1	; 0x1
30001e5c:	e5831044 	str	r1, [r3, #68]
30001e60:	e5832048 	str	r2, [r3, #72]
30001e64:	e59f119c 	ldr	r1, [pc, #412]	; 30002008 <.text+0x2008>
30001e68:	e2822001 	add	r2, r2, #1	; 0x1
30001e6c:	e5832060 	str	r2, [r3, #96]
30001e70:	e2822001 	add	r2, r2, #1	; 0x1
30001e74:	e583105c 	str	r1, [r3, #92]
30001e78:	e5832078 	str	r2, [r3, #120]
30001e7c:	e59f1188 	ldr	r1, [pc, #392]	; 3000200c <.text+0x200c>
30001e80:	e59f2188 	ldr	r2, [pc, #392]	; 30002010 <.text+0x2010>
30001e84:	e3a0002d 	mov	r0, #45	; 0x2d
30001e88:	e3a0c08c 	mov	ip, #140	; 0x8c
30001e8c:	e3a060aa 	mov	r6, #170	; 0xaa
30001e90:	e3a04014 	mov	r4, #20	; 0x14
30001e94:	e3a07d05 	mov	r7, #320	; 0x140
30001e98:	e3a0e063 	mov	lr, #99	; 0x63
30001e9c:	e5831074 	str	r1, [r3, #116]
30001ea0:	e583e080 	str	lr, [r3, #128]
30001ea4:	e5834004 	str	r4, [r3, #4]
30001ea8:	e5830008 	str	r0, [r3, #8]
30001eac:	e583c00c 	str	ip, [r3, #12]
30001eb0:	e5830010 	str	r0, [r3, #16]
30001eb4:	e583601c 	str	r6, [r3, #28]
30001eb8:	e5830020 	str	r0, [r3, #32]
30001ebc:	e583c024 	str	ip, [r3, #36]
30001ec0:	e5830028 	str	r0, [r3, #40]
30001ec4:	e5837034 	str	r7, [r3, #52]
30001ec8:	e5830038 	str	r0, [r3, #56]
30001ecc:	e583c03c 	str	ip, [r3, #60]
30001ed0:	e5830040 	str	r0, [r3, #64]
30001ed4:	e583404c 	str	r4, [r3, #76]
30001ed8:	e583e050 	str	lr, [r3, #80]
30001edc:	e583c054 	str	ip, [r3, #84]
30001ee0:	e5830058 	str	r0, [r3, #88]
30001ee4:	e5836064 	str	r6, [r3, #100]
30001ee8:	e583e068 	str	lr, [r3, #104]
30001eec:	e583c06c 	str	ip, [r3, #108]
30001ef0:	e5830070 	str	r0, [r3, #112]
30001ef4:	e583707c 	str	r7, [r3, #124]
30001ef8:	e583208c 	str	r2, [r3, #140]
30001efc:	e59f2110 	ldr	r2, [pc, #272]	; 30002014 <.text+0x2014>
30001f00:	e58320a4 	str	r2, [r3, #164]
30001f04:	e59f210c 	ldr	r2, [pc, #268]	; 30002018 <.text+0x2018>
30001f08:	e58320bc 	str	r2, [r3, #188]
30001f0c:	e59f2108 	ldr	r2, [pc, #264]	; 3000201c <.text+0x201c>
30001f10:	e3a01006 	mov	r1, #6	; 0x6
30001f14:	e58320d4 	str	r2, [r3, #212]
30001f18:	e59f2100 	ldr	r2, [pc, #256]	; 30002020 <.text+0x2020>
30001f1c:	e5831090 	str	r1, [r3, #144]
30001f20:	e2811001 	add	r1, r1, #1	; 0x1
30001f24:	e58310a8 	str	r1, [r3, #168]
30001f28:	e58320ec 	str	r2, [r3, #236]
30001f2c:	e2811001 	add	r1, r1, #1	; 0x1
30001f30:	e59f20ec 	ldr	r2, [pc, #236]	; 30002024 <.text+0x2024>
30001f34:	e58310c0 	str	r1, [r3, #192]
30001f38:	e2811001 	add	r1, r1, #1	; 0x1
30001f3c:	e58310d8 	str	r1, [r3, #216]
30001f40:	e5832104 	str	r2, [r3, #260]
30001f44:	e2811001 	add	r1, r1, #1	; 0x1
30001f48:	e59f20d8 	ldr	r2, [pc, #216]	; 30002028 <.text+0x2028>
30001f4c:	e59f50d8 	ldr	r5, [pc, #216]	; 3000202c <.text+0x202c>
30001f50:	e3a08099 	mov	r8, #153	; 0x99
30001f54:	e3a0a0cf 	mov	sl, #207	; 0xcf
30001f58:	e58310f0 	str	r1, [r3, #240]
30001f5c:	e2811001 	add	r1, r1, #1	; 0x1
30001f60:	e5831108 	str	r1, [r3, #264]
30001f64:	e583c084 	str	ip, [r3, #132]
30001f68:	e58380c8 	str	r8, [r3, #200]
30001f6c:	e58340dc 	str	r4, [r3, #220]
30001f70:	e5830088 	str	r0, [r3, #136]
30001f74:	e5834094 	str	r4, [r3, #148]
30001f78:	e5838098 	str	r8, [r3, #152]
30001f7c:	e583c09c 	str	ip, [r3, #156]
30001f80:	e58300a0 	str	r0, [r3, #160]
30001f84:	e58360ac 	str	r6, [r3, #172]
30001f88:	e58380b0 	str	r8, [r3, #176]
30001f8c:	e583c0b4 	str	ip, [r3, #180]
30001f90:	e58300b8 	str	r0, [r3, #184]
30001f94:	e58370c4 	str	r7, [r3, #196]
30001f98:	e583c0cc 	str	ip, [r3, #204]
30001f9c:	e58300d0 	str	r0, [r3, #208]
30001fa0:	e583a0e0 	str	sl, [r3, #224]
30001fa4:	e583c0e4 	str	ip, [r3, #228]
30001fa8:	e58300e8 	str	r0, [r3, #232]
30001fac:	e58360f4 	str	r6, [r3, #244]
30001fb0:	e583a0f8 	str	sl, [r3, #248]
30001fb4:	e583c0fc 	str	ip, [r3, #252]
30001fb8:	e59f1070 	ldr	r1, [pc, #112]	; 30002030 <.text+0x2030>
30001fbc:	e5830100 	str	r0, [r3, #256]
30001fc0:	e583211c 	str	r2, [r3, #284]
30001fc4:	e3a0200c 	mov	r2, #12	; 0xc
30001fc8:	e5852000 	str	r2, [r5]
30001fcc:	e28220af 	add	r2, r2, #175	; 0xaf
30001fd0:	e583710c 	str	r7, [r3, #268]
30001fd4:	e583a110 	str	sl, [r3, #272]
30001fd8:	e585c00c 	str	ip, [r5, #12]
30001fdc:	e5850010 	str	r0, [r5, #16]
30001fe0:	e5851014 	str	r1, [r5, #20]
30001fe4:	e5856004 	str	r6, [r5, #4]
30001fe8:	e5852008 	str	r2, [r5, #8]
30001fec:	e583c114 	str	ip, [r3, #276]
30001ff0:	e5830118 	str	r0, [r3, #280]
30001ff4:	e8bd85f0 	ldmia	sp!, {r4, r5, r6, r7, r8, sl, pc}
30001ff8:	30011820 	andcc	r1, r1, r0, lsr #16
30001ffc:	3000e434 	andcc	lr, r0, r4, lsr r4
30002000:	3000e440 	andcc	lr, r0, r0, asr #8
30002004:	3000e44c 	andcc	lr, r0, ip, asr #8
30002008:	3000e458 	andcc	lr, r0, r8, asr r4
3000200c:	3000e464 	andcc	lr, r0, r4, ror #8
30002010:	3000e470 	andcc	lr, r0, r0, ror r4
30002014:	3000e47c 	andcc	lr, r0, ip, ror r4
30002018:	3000e488 	andcc	lr, r0, r8, lsl #9
3000201c:	3000e494 	mulcc	r0, r4, r4
30002020:	3000e4a0 	andcc	lr, r0, r0, lsr #9
30002024:	3000e4ac 	andcc	lr, r0, ip, lsr #9
30002028:	3000e4b8 	strcch	lr, [r0], -r8
3000202c:	30011808 	andcc	r1, r1, r8, lsl #16
30002030:	3000e4c4 	andcc	lr, r0, r4, asr #9

30002034 <ClickedButton>:
30002034:	e92d47f0 	stmdb	sp!, {r4, r5, r6, r7, r8, r9, sl, lr}
30002038:	e3a07bea 	mov	r7, #239616	; 0x3a800
3000203c:	e24dd004 	sub	sp, sp, #4	; 0x4
30002040:	e1a05000 	mov	r5, r0
30002044:	e1a08001 	mov	r8, r1
30002048:	e1a0a002 	mov	sl, r2
3000204c:	e1a09003 	mov	r9, r3
30002050:	e287709e 	add	r7, r7, #158	; 0x9e
30002054:	e3a04000 	mov	r4, #0	; 0x0
30002058:	e280608c 	add	r6, r0, #140	; 0x8c
3000205c:	e0881004 	add	r1, r8, r4
30002060:	e1a00005 	mov	r0, r5
30002064:	e2844001 	add	r4, r4, #1	; 0x1
30002068:	e1a02006 	mov	r2, r6
3000206c:	e1a03001 	mov	r3, r1
30002070:	e58d7000 	str	r7, [sp]
30002074:	eb000a0f 	bl	300048b8 <DrawLine>
30002078:	e354002c 	cmp	r4, #44	; 0x2c
3000207c:	dafffff6 	ble	3000205c <ClickedButton+0x28>
30002080:	e3a0c000 	mov	ip, #0	; 0x0
30002084:	e2850008 	add	r0, r5, #8	; 0x8
30002088:	e2881006 	add	r1, r8, #6	; 0x6
3000208c:	e1a0200a 	mov	r2, sl
30002090:	e1a03009 	mov	r3, r9
30002094:	e58dc000 	str	ip, [sp]
30002098:	eb000b60 	bl	30004e20 <PrintFbString16x32>
3000209c:	e28dd004 	add	sp, sp, #4	; 0x4
300020a0:	e8bd87f0 	ldmia	sp!, {r4, r5, r6, r7, r8, r9, sl, pc}

300020a4 <isClickReturn>:
300020a4:	e92d4ff0 	stmdb	sp!, {r4, r5, r6, r7, r8, r9, sl, fp, lr}
300020a8:	e24dd010 	sub	sp, sp, #16	; 0x10
300020ac:	e28d900c 	add	r9, sp, #12	; 0xc
300020b0:	e28da008 	add	sl, sp, #8	; 0x8
300020b4:	e28d8004 	add	r8, sp, #4	; 0x4
300020b8:	e3a0c000 	mov	ip, #0	; 0x0
300020bc:	e1a00009 	mov	r0, r9
300020c0:	e1a0100a 	mov	r1, sl
300020c4:	e1a02008 	mov	r2, r8
300020c8:	e1a0600c 	mov	r6, ip
300020cc:	e58dc00c 	str	ip, [sp, #12]
300020d0:	e58dc008 	str	ip, [sp, #8]
300020d4:	e58dc004 	str	ip, [sp, #4]
300020d8:	eb000f99 	bl	30005f44 <ReadTs>
300020dc:	e59dc00c 	ldr	ip, [sp, #12]
300020e0:	e15c0006 	cmp	ip, r6
300020e4:	e58d6000 	str	r6, [sp]
300020e8:	159d6008 	ldrne	r6, [sp, #8]
300020ec:	1a000002 	bne	300020fc <isClickReturn+0x58>
300020f0:	e59d6008 	ldr	r6, [sp, #8]
300020f4:	e3560000 	cmp	r6, #0	; 0x0
300020f8:	0a000044 	beq	30002210 <isClickReturn+0x16c>
300020fc:	e1a0400c 	mov	r4, ip
30002100:	e1a07006 	mov	r7, r6
30002104:	e3a0b001 	mov	fp, #1	; 0x1
30002108:	e3a05004 	mov	r5, #4	; 0x4
3000210c:	e1a0100a 	mov	r1, sl
30002110:	e1a02008 	mov	r2, r8
30002114:	e1a00009 	mov	r0, r9
30002118:	eb000f89 	bl	30005f44 <ReadTs>
3000211c:	e59dc00c 	ldr	ip, [sp, #12]
30002120:	e35c0000 	cmp	ip, #0	; 0x0
30002124:	e2842014 	add	r2, r4, #20	; 0x14
30002128:	e2441014 	sub	r1, r4, #20	; 0x14
3000212c:	1a000005 	bne	30002148 <isClickReturn+0xa4>
30002130:	e59d3008 	ldr	r3, [sp, #8]
30002134:	e3530000 	cmp	r3, #0	; 0x0
30002138:	1a000002 	bne	30002148 <isClickReturn+0xa4>
3000213c:	e59d3004 	ldr	r3, [sp, #4]
30002140:	e3530000 	cmp	r3, #0	; 0x0
30002144:	0a00000c 	beq	3000217c <isClickReturn+0xd8>
30002148:	e152000c 	cmp	r2, ip
3000214c:	da00000a 	ble	3000217c <isClickReturn+0xd8>
30002150:	e151000c 	cmp	r1, ip
30002154:	e2862014 	add	r2, r6, #20	; 0x14
30002158:	aa000007 	bge	3000217c <isClickReturn+0xd8>
3000215c:	e59d3008 	ldr	r3, [sp, #8]
30002160:	e1520003 	cmp	r2, r3
30002164:	e2461014 	sub	r1, r6, #20	; 0x14
30002168:	da000003 	ble	3000217c <isClickReturn+0xd8>
3000216c:	e1510003 	cmp	r1, r3
30002170:	b084400c 	addlt	r4, r4, ip
30002174:	b0877003 	addlt	r7, r7, r3
30002178:	b28bb001 	addlt	fp, fp, #1	; 0x1
3000217c:	e2555001 	subs	r5, r5, #1	; 0x1
30002180:	5affffe1 	bpl	3000210c <isClickReturn+0x68>
30002184:	e1a00004 	mov	r0, r4
30002188:	e1a0100b 	mov	r1, fp
3000218c:	ebfff867 	bl	30000330 <__divsi3>
30002190:	e1a0100b 	mov	r1, fp
30002194:	e1a04000 	mov	r4, r0
30002198:	e1a00007 	mov	r0, r7
3000219c:	e58d400c 	str	r4, [sp, #12]
300021a0:	ebfff862 	bl	30000330 <__divsi3>
300021a4:	e59f20a4 	ldr	r2, [pc, #164]	; 30002250 <.text+0x2250>
300021a8:	e1a06000 	mov	r6, r0
300021ac:	e5920004 	ldr	r0, [r2, #4]
300021b0:	e1500004 	cmp	r0, r4
300021b4:	e58d6008 	str	r6, [sp, #8]
300021b8:	aa000005 	bge	300021d4 <isClickReturn+0x130>
300021bc:	e280308c 	add	r3, r0, #140	; 0x8c
300021c0:	e1530004 	cmp	r3, r4
300021c4:	da000002 	ble	300021d4 <isClickReturn+0x130>
300021c8:	e5921008 	ldr	r1, [r2, #8]
300021cc:	e1510006 	cmp	r1, r6
300021d0:	ba000013 	blt	30002224 <isClickReturn+0x180>
300021d4:	e1a0100a 	mov	r1, sl
300021d8:	e1a02008 	mov	r2, r8
300021dc:	e1a00009 	mov	r0, r9
300021e0:	eb000f57 	bl	30005f44 <ReadTs>
300021e4:	e1a0100a 	mov	r1, sl
300021e8:	e1a02008 	mov	r2, r8
300021ec:	e1a00009 	mov	r0, r9
300021f0:	eb000f53 	bl	30005f44 <ReadTs>
300021f4:	e1a00009 	mov	r0, r9
300021f8:	e1a0100a 	mov	r1, sl
300021fc:	e1a02008 	mov	r2, r8
30002200:	eb000f4f 	bl	30005f44 <ReadTs>
30002204:	e59d0000 	ldr	r0, [sp]
30002208:	e28dd010 	add	sp, sp, #16	; 0x10
3000220c:	e8bd8ff0 	ldmia	sp!, {r4, r5, r6, r7, r8, r9, sl, fp, pc}
30002210:	e59d3004 	ldr	r3, [sp, #4]
30002214:	e3530000 	cmp	r3, #0	; 0x0
30002218:	03a00000 	moveq	r0, #0	; 0x0
3000221c:	0afffff9 	beq	30002208 <isClickReturn+0x164>
30002220:	eaffffb5 	b	300020fc <isClickReturn+0x58>
30002224:	e281302d 	add	r3, r1, #45	; 0x2d
30002228:	e1530006 	cmp	r3, r6
3000222c:	daffffe8 	ble	300021d4 <isClickReturn+0x130>
30002230:	e5922014 	ldr	r2, [r2, #20]
30002234:	e3e034ff 	mvn	r3, #-16777216	; 0xff000000
30002238:	ebffff7d 	bl	30002034 <ClickedButton>
3000223c:	e3a03001 	mov	r3, #1	; 0x1
30002240:	e3a00e7d 	mov	r0, #2000	; 0x7d0
30002244:	e58d3000 	str	r3, [sp]
30002248:	ebfffeeb 	bl	30001dfc <Delay>
3000224c:	eaffffe0 	b	300021d4 <isClickReturn+0x130>
30002250:	30011808 	andcc	r1, r1, r8, lsl #16

30002254 <InitCalibration>:
30002254:	e92d4070 	stmdb	sp!, {r4, r5, r6, lr}
30002258:	e59f5178 	ldr	r5, [pc, #376]	; 300023d8 <.text+0x23d8>
3000225c:	e3a02030 	mov	r2, #48	; 0x30
30002260:	e24dd014 	sub	sp, sp, #20	; 0x14
30002264:	e3a00802 	mov	r0, #131072	; 0x20000
30002268:	e1a01005 	mov	r1, r5
3000226c:	ebfffa05 	bl	30000a88 <ReadNand>
30002270:	e5952000 	ldr	r2, [r5]
30002274:	e59f3160 	ldr	r3, [pc, #352]	; 300023dc <.text+0x23dc>
30002278:	e1520003 	cmp	r2, r3
3000227c:	0a000050 	beq	300023c4 <InitCalibration+0x170>
30002280:	e28d100c 	add	r1, sp, #12	; 0xc
30002284:	e28d2008 	add	r2, sp, #8	; 0x8
30002288:	e28d3004 	add	r3, sp, #4	; 0x4
3000228c:	e28d0010 	add	r0, sp, #16	; 0x10
30002290:	eb000734 	bl	30003f68 <GetLcdParams>
30002294:	e3a00000 	mov	r0, #0	; 0x0
30002298:	eb0008e5 	bl	30004634 <ClearScreen>
3000229c:	e3a00046 	mov	r0, #70	; 0x46
300022a0:	e3a04000 	mov	r4, #0	; 0x0
300022a4:	e1a01000 	mov	r1, r0
300022a8:	e59f2130 	ldr	r2, [pc, #304]	; 300023e0 <.text+0x23e0>
300022ac:	e3e034ff 	mvn	r3, #-16777216	; 0xff000000
300022b0:	e58d4000 	str	r4, [sp]
300022b4:	eb000ab2 	bl	30004d84 <PrintFbString8x16>
300022b8:	e1a06005 	mov	r6, r5
300022bc:	e3a05001 	mov	r5, #1	; 0x1
300022c0:	ea000019 	b	3000232c <InitCalibration+0xd8>
300022c4:	e58d4000 	str	r4, [sp]
300022c8:	eb000aad 	bl	30004d84 <PrintFbString8x16>
300022cc:	e59d1008 	ldr	r1, [sp, #8]
300022d0:	e59f210c 	ldr	r2, [pc, #268]	; 300023e4 <.text+0x23e4>
300022d4:	e241105f 	sub	r1, r1, #95	; 0x5f
300022d8:	e3e034ff 	mvn	r3, #-16777216	; 0xff000000
300022dc:	e3a00046 	mov	r0, #70	; 0x46
300022e0:	e58d5000 	str	r5, [sp]
300022e4:	eb000aa6 	bl	30004d84 <PrintFbString8x16>
300022e8:	e3a00826 	mov	r0, #2490368	; 0x260000
300022ec:	e2800d96 	add	r0, r0, #9600	; 0x2580
300022f0:	e2800020 	add	r0, r0, #32	; 0x20
300022f4:	ebfffec0 	bl	30001dfc <Delay>
300022f8:	e59d1008 	ldr	r1, [sp, #8]
300022fc:	e1a03004 	mov	r3, r4
30002300:	e241105f 	sub	r1, r1, #95	; 0x5f
30002304:	e3a00046 	mov	r0, #70	; 0x46
30002308:	e59f20d4 	ldr	r2, [pc, #212]	; 300023e4 <.text+0x23e4>
3000230c:	e58d5000 	str	r5, [sp]
30002310:	eb000a9b 	bl	30004d84 <PrintFbString8x16>
30002314:	e3a00046 	mov	r0, #70	; 0x46
30002318:	e1a01000 	mov	r1, r0
3000231c:	e59f20bc 	ldr	r2, [pc, #188]	; 300023e0 <.text+0x23e0>
30002320:	e3e034ff 	mvn	r3, #-16777216	; 0xff000000
30002324:	e58d4000 	str	r4, [sp]
30002328:	eb000a95 	bl	30004d84 <PrintFbString8x16>
3000232c:	e59f00a4 	ldr	r0, [pc, #164]	; 300023d8 <.text+0x23d8>
30002330:	eb000d81 	bl	3000593c <CalibrateTs>
30002334:	e3500001 	cmp	r0, #1	; 0x1
30002338:	e3a00046 	mov	r0, #70	; 0x46
3000233c:	e1a03004 	mov	r3, r4
30002340:	e59f2098 	ldr	r2, [pc, #152]	; 300023e0 <.text+0x23e0>
30002344:	e1a01000 	mov	r1, r0
30002348:	1affffdd 	bne	300022c4 <InitCalibration+0x70>
3000234c:	e59f3088 	ldr	r3, [pc, #136]	; 300023dc <.text+0x23dc>
30002350:	e3a00802 	mov	r0, #131072	; 0x20000
30002354:	e5863000 	str	r3, [r6]
30002358:	e1a01000 	mov	r1, r0
3000235c:	ebfffa3f 	bl	30000c60 <NandErase>
30002360:	e3a00802 	mov	r0, #131072	; 0x20000
30002364:	e59f106c 	ldr	r1, [pc, #108]	; 300023d8 <.text+0x23d8>
30002368:	e3a02030 	mov	r2, #48	; 0x30
3000236c:	ebfffa62 	bl	30000cfc <NandWrite>
30002370:	e3a0c000 	mov	ip, #0	; 0x0
30002374:	e3a00046 	mov	r0, #70	; 0x46
30002378:	e1a0300c 	mov	r3, ip
3000237c:	e1a01000 	mov	r1, r0
30002380:	e59f2058 	ldr	r2, [pc, #88]	; 300023e0 <.text+0x23e0>
30002384:	e58dc000 	str	ip, [sp]
30002388:	eb000a7d 	bl	30004d84 <PrintFbString8x16>
3000238c:	e59d1008 	ldr	r1, [sp, #8]
30002390:	e3a00046 	mov	r0, #70	; 0x46
30002394:	e3a0c001 	mov	ip, #1	; 0x1
30002398:	e241105f 	sub	r1, r1, #95	; 0x5f
3000239c:	e59f2044 	ldr	r2, [pc, #68]	; 300023e8 <.text+0x23e8>
300023a0:	e3e034ff 	mvn	r3, #-16777216	; 0xff000000
300023a4:	e58dc000 	str	ip, [sp]
300023a8:	eb000a75 	bl	30004d84 <PrintFbString8x16>
300023ac:	e3a00826 	mov	r0, #2490368	; 0x260000
300023b0:	e2800d96 	add	r0, r0, #9600	; 0x2580
300023b4:	e2800020 	add	r0, r0, #32	; 0x20
300023b8:	ebfffe8f 	bl	30001dfc <Delay>
300023bc:	e28dd014 	add	sp, sp, #20	; 0x14
300023c0:	e8bd8070 	ldmia	sp!, {r4, r5, r6, pc}
300023c4:	e1a00005 	mov	r0, r5
300023c8:	eb000c77 	bl	300055ac <SetTsCalibrateParams>
300023cc:	e59f0018 	ldr	r0, [pc, #24]	; 300023ec <.text+0x23ec>
300023d0:	ebfffcbf 	bl	300016d4 <printf>
300023d4:	eafffff8 	b	300023bc <InitCalibration+0x168>
300023d8:	300117d8 	ldrccd	r1, [r1], -r8
300023dc:	12345678 	eornes	r5, r4, #125829120	; 0x7800000
300023e0:	3000e4d0 	ldrccd	lr, [r0], -r0
300023e4:	3000e4f8 	strccd	lr, [r0], -r8
300023e8:	3000e520 	andcc	lr, r0, r0, lsr #10
300023ec:	3000e540 	andcc	lr, r0, r0, asr #10

300023f0 <DisplayTestItemIcon>:
300023f0:	e92d47f0 	stmdb	sp!, {r4, r5, r6, r7, r8, r9, sl, lr}
300023f4:	e1a05000 	mov	r5, r0
300023f8:	e24dd004 	sub	sp, sp, #4	; 0x4
300023fc:	e1a06001 	mov	r6, r1
30002400:	e1a0a002 	mov	sl, r2
30002404:	e1a09003 	mov	r9, r3
30002408:	e3a04000 	mov	r4, #0	; 0x0
3000240c:	e280708c 	add	r7, r0, #140	; 0x8c
30002410:	e3e084ff 	mvn	r8, #-16777216	; 0xff000000
30002414:	e0861004 	add	r1, r6, r4
30002418:	e1a00005 	mov	r0, r5
3000241c:	e2844001 	add	r4, r4, #1	; 0x1
30002420:	e1a02007 	mov	r2, r7
30002424:	e1a03001 	mov	r3, r1
30002428:	e58d8000 	str	r8, [sp]
3000242c:	eb000921 	bl	300048b8 <DrawLine>
30002430:	e354002c 	cmp	r4, #44	; 0x2c
30002434:	dafffff6 	ble	30002414 <DisplayTestItemIcon+0x24>
30002438:	e3a04000 	mov	r4, #0	; 0x0
3000243c:	e1a00005 	mov	r0, r5
30002440:	e1a01006 	mov	r1, r6
30002444:	e3a0208c 	mov	r2, #140	; 0x8c
30002448:	e3a0302d 	mov	r3, #45	; 0x2d
3000244c:	e58d4000 	str	r4, [sp]
30002450:	eb0009c2 	bl	30004b60 <DrawRectangle>
30002454:	e2850008 	add	r0, r5, #8	; 0x8
30002458:	e2861006 	add	r1, r6, #6	; 0x6
3000245c:	e1a0200a 	mov	r2, sl
30002460:	e1a03009 	mov	r3, r9
30002464:	e58d4000 	str	r4, [sp]
30002468:	eb000a6c 	bl	30004e20 <PrintFbString16x32>
3000246c:	e28dd004 	add	sp, sp, #4	; 0x4
30002470:	e8bd87f0 	ldmia	sp!, {r4, r5, r6, r7, r8, r9, sl, pc}

30002474 <GetTestItem>:
30002474:	e92d4ff0 	stmdb	sp!, {r4, r5, r6, r7, r8, r9, sl, fp, lr}
30002478:	e24dd014 	sub	sp, sp, #20	; 0x14
3000247c:	e28db010 	add	fp, sp, #16	; 0x10
30002480:	e28d900c 	add	r9, sp, #12	; 0xc
30002484:	e28da008 	add	sl, sp, #8	; 0x8
30002488:	e3a0c000 	mov	ip, #0	; 0x0
3000248c:	e58d0004 	str	r0, [sp, #4]
30002490:	e1a01009 	mov	r1, r9
30002494:	e1a0000b 	mov	r0, fp
30002498:	e1a0200a 	mov	r2, sl
3000249c:	e1a0600c 	mov	r6, ip
300024a0:	e58dc000 	str	ip, [sp]
300024a4:	e58dc008 	str	ip, [sp, #8]
300024a8:	e58dc010 	str	ip, [sp, #16]
300024ac:	e58dc00c 	str	ip, [sp, #12]
300024b0:	eb000ea3 	bl	30005f44 <ReadTs>
300024b4:	e59dc010 	ldr	ip, [sp, #16]
300024b8:	e15c0006 	cmp	ip, r6
300024bc:	159d600c 	ldrne	r6, [sp, #12]
300024c0:	1a000002 	bne	300024d0 <GetTestItem+0x5c>
300024c4:	e59d600c 	ldr	r6, [sp, #12]
300024c8:	e3560000 	cmp	r6, #0	; 0x0
300024cc:	0a0000e9 	beq	30002878 <GetTestItem+0x404>
300024d0:	e59d3008 	ldr	r3, [sp, #8]
300024d4:	e3a02001 	mov	r2, #1	; 0x1
300024d8:	e3530000 	cmp	r3, #0	; 0x0
300024dc:	e1a0700c 	mov	r7, ip
300024e0:	e1a08006 	mov	r8, r6
300024e4:	e1a0400c 	mov	r4, ip
300024e8:	e1a05006 	mov	r5, r6
300024ec:	e58d2000 	str	r2, [sp]
300024f0:	0a000020 	beq	30002578 <GetTestItem+0x104>
300024f4:	e3a06000 	mov	r6, #0	; 0x0
300024f8:	e3a0c000 	mov	ip, #0	; 0x0
300024fc:	e1a0200a 	mov	r2, sl
30002500:	e1a0000b 	mov	r0, fp
30002504:	e1a01009 	mov	r1, r9
30002508:	e58dc010 	str	ip, [sp, #16]
3000250c:	e58d600c 	str	r6, [sp, #12]
30002510:	e58d6008 	str	r6, [sp, #8]
30002514:	eb000e8a 	bl	30005f44 <ReadTs>
30002518:	e59dc010 	ldr	ip, [sp, #16]
3000251c:	e284301e 	add	r3, r4, #30	; 0x1e
30002520:	e153000c 	cmp	r3, ip
30002524:	e59d0008 	ldr	r0, [sp, #8]
30002528:	e244201e 	sub	r2, r4, #30	; 0x1e
3000252c:	da00000f 	ble	30002570 <GetTestItem+0xfc>
30002530:	e152000c 	cmp	r2, ip
30002534:	e285101e 	add	r1, r5, #30	; 0x1e
30002538:	aa00000c 	bge	30002570 <GetTestItem+0xfc>
3000253c:	e59d300c 	ldr	r3, [sp, #12]
30002540:	e1510003 	cmp	r1, r3
30002544:	e245201e 	sub	r2, r5, #30	; 0x1e
30002548:	da000008 	ble	30002570 <GetTestItem+0xfc>
3000254c:	e1520003 	cmp	r2, r3
30002550:	aa000006 	bge	30002570 <GetTestItem+0xfc>
30002554:	e0888003 	add	r8, r8, r3
30002558:	e1a05003 	mov	r5, r3
3000255c:	e59d3000 	ldr	r3, [sp]
30002560:	e2833001 	add	r3, r3, #1	; 0x1
30002564:	e58d3000 	str	r3, [sp]
30002568:	e087700c 	add	r7, r7, ip
3000256c:	e1a0400c 	mov	r4, ip
30002570:	e3500000 	cmp	r0, #0	; 0x0
30002574:	1affffdf 	bne	300024f8 <GetTestItem+0x84>
30002578:	e59d1000 	ldr	r1, [sp]
3000257c:	e1a00007 	mov	r0, r7
30002580:	ebfff76a 	bl	30000330 <__divsi3>
30002584:	e59d1000 	ldr	r1, [sp]
30002588:	e1a04000 	mov	r4, r0
3000258c:	e1a00008 	mov	r0, r8
30002590:	e58d4010 	str	r4, [sp, #16]
30002594:	ebfff765 	bl	30000330 <__divsi3>
30002598:	e59f537c 	ldr	r5, [pc, #892]	; 3000291c <.text+0x291c>
3000259c:	e5953004 	ldr	r3, [r5, #4]
300025a0:	e1530004 	cmp	r3, r4
300025a4:	e1a06000 	mov	r6, r0
300025a8:	e58d000c 	str	r0, [sp, #12]
300025ac:	aa000005 	bge	300025c8 <GetTestItem+0x154>
300025b0:	e283308c 	add	r3, r3, #140	; 0x8c
300025b4:	e1530004 	cmp	r3, r4
300025b8:	da000002 	ble	300025c8 <GetTestItem+0x154>
300025bc:	e5953008 	ldr	r3, [r5, #8]
300025c0:	e1530000 	cmp	r3, r0
300025c4:	ba0000bb 	blt	300028b8 <GetTestItem+0x444>
300025c8:	e595301c 	ldr	r3, [r5, #28]
300025cc:	e1530004 	cmp	r3, r4
300025d0:	aa000005 	bge	300025ec <GetTestItem+0x178>
300025d4:	e283308c 	add	r3, r3, #140	; 0x8c
300025d8:	e1530004 	cmp	r3, r4
300025dc:	da000002 	ble	300025ec <GetTestItem+0x178>
300025e0:	e5953020 	ldr	r3, [r5, #32]
300025e4:	e1530006 	cmp	r3, r6
300025e8:	ba0000c1 	blt	300028f4 <GetTestItem+0x480>
300025ec:	e5953034 	ldr	r3, [r5, #52]
300025f0:	e1530004 	cmp	r3, r4
300025f4:	aa000005 	bge	30002610 <GetTestItem+0x19c>
300025f8:	e283308c 	add	r3, r3, #140	; 0x8c
300025fc:	e1530004 	cmp	r3, r4
30002600:	da000002 	ble	30002610 <GetTestItem+0x19c>
30002604:	e5953038 	ldr	r3, [r5, #56]
30002608:	e1530006 	cmp	r3, r6
3000260c:	ba0000bd 	blt	30002908 <GetTestItem+0x494>
30002610:	e595304c 	ldr	r3, [r5, #76]
30002614:	e1530004 	cmp	r3, r4
30002618:	aa000009 	bge	30002644 <GetTestItem+0x1d0>
3000261c:	e283308c 	add	r3, r3, #140	; 0x8c
30002620:	e1530004 	cmp	r3, r4
30002624:	da000006 	ble	30002644 <GetTestItem+0x1d0>
30002628:	e5953050 	ldr	r3, [r5, #80]
3000262c:	e1530006 	cmp	r3, r6
30002630:	aa000003 	bge	30002644 <GetTestItem+0x1d0>
30002634:	e283302d 	add	r3, r3, #45	; 0x2d
30002638:	e1530006 	cmp	r3, r6
3000263c:	c3a03003 	movgt	r3, #3	; 0x3
30002640:	ca0000a0 	bgt	300028c8 <GetTestItem+0x454>
30002644:	e5953064 	ldr	r3, [r5, #100]
30002648:	e1530004 	cmp	r3, r4
3000264c:	aa000009 	bge	30002678 <GetTestItem+0x204>
30002650:	e283308c 	add	r3, r3, #140	; 0x8c
30002654:	e1530004 	cmp	r3, r4
30002658:	da000006 	ble	30002678 <GetTestItem+0x204>
3000265c:	e5953068 	ldr	r3, [r5, #104]
30002660:	e1530006 	cmp	r3, r6
30002664:	aa000003 	bge	30002678 <GetTestItem+0x204>
30002668:	e283302d 	add	r3, r3, #45	; 0x2d
3000266c:	e1530006 	cmp	r3, r6
30002670:	c3a03004 	movgt	r3, #4	; 0x4
30002674:	ca000093 	bgt	300028c8 <GetTestItem+0x454>
30002678:	e595307c 	ldr	r3, [r5, #124]
3000267c:	e1530004 	cmp	r3, r4
30002680:	aa000009 	bge	300026ac <GetTestItem+0x238>
30002684:	e283308c 	add	r3, r3, #140	; 0x8c
30002688:	e1530004 	cmp	r3, r4
3000268c:	da000006 	ble	300026ac <GetTestItem+0x238>
30002690:	e5953080 	ldr	r3, [r5, #128]
30002694:	e1530006 	cmp	r3, r6
30002698:	aa000003 	bge	300026ac <GetTestItem+0x238>
3000269c:	e283302d 	add	r3, r3, #45	; 0x2d
300026a0:	e1530006 	cmp	r3, r6
300026a4:	c3a03005 	movgt	r3, #5	; 0x5
300026a8:	ca000086 	bgt	300028c8 <GetTestItem+0x454>
300026ac:	e5953094 	ldr	r3, [r5, #148]
300026b0:	e1530004 	cmp	r3, r4
300026b4:	aa000009 	bge	300026e0 <GetTestItem+0x26c>
300026b8:	e283308c 	add	r3, r3, #140	; 0x8c
300026bc:	e1530004 	cmp	r3, r4
300026c0:	da000006 	ble	300026e0 <GetTestItem+0x26c>
300026c4:	e5953098 	ldr	r3, [r5, #152]
300026c8:	e1530006 	cmp	r3, r6
300026cc:	aa000003 	bge	300026e0 <GetTestItem+0x26c>
300026d0:	e283302d 	add	r3, r3, #45	; 0x2d
300026d4:	e1530006 	cmp	r3, r6
300026d8:	c3a03006 	movgt	r3, #6	; 0x6
300026dc:	ca000079 	bgt	300028c8 <GetTestItem+0x454>
300026e0:	e59530ac 	ldr	r3, [r5, #172]
300026e4:	e1530004 	cmp	r3, r4
300026e8:	aa000009 	bge	30002714 <GetTestItem+0x2a0>
300026ec:	e283308c 	add	r3, r3, #140	; 0x8c
300026f0:	e1530004 	cmp	r3, r4
300026f4:	da000006 	ble	30002714 <GetTestItem+0x2a0>
300026f8:	e59530b0 	ldr	r3, [r5, #176]
300026fc:	e1530006 	cmp	r3, r6
30002700:	aa000003 	bge	30002714 <GetTestItem+0x2a0>
30002704:	e283302d 	add	r3, r3, #45	; 0x2d
30002708:	e1530006 	cmp	r3, r6
3000270c:	c3a03007 	movgt	r3, #7	; 0x7
30002710:	ca00006c 	bgt	300028c8 <GetTestItem+0x454>
30002714:	e59530c4 	ldr	r3, [r5, #196]
30002718:	e1530004 	cmp	r3, r4
3000271c:	aa000009 	bge	30002748 <GetTestItem+0x2d4>
30002720:	e283308c 	add	r3, r3, #140	; 0x8c
30002724:	e1530004 	cmp	r3, r4
30002728:	da000006 	ble	30002748 <GetTestItem+0x2d4>
3000272c:	e59530c8 	ldr	r3, [r5, #200]
30002730:	e1530006 	cmp	r3, r6
30002734:	aa000003 	bge	30002748 <GetTestItem+0x2d4>
30002738:	e283302d 	add	r3, r3, #45	; 0x2d
3000273c:	e1530006 	cmp	r3, r6
30002740:	c3a03008 	movgt	r3, #8	; 0x8
30002744:	ca00005f 	bgt	300028c8 <GetTestItem+0x454>
30002748:	e59530dc 	ldr	r3, [r5, #220]
3000274c:	e1530004 	cmp	r3, r4
30002750:	aa000009 	bge	3000277c <GetTestItem+0x308>
30002754:	e283308c 	add	r3, r3, #140	; 0x8c
30002758:	e1530004 	cmp	r3, r4
3000275c:	da000006 	ble	3000277c <GetTestItem+0x308>
30002760:	e59530e0 	ldr	r3, [r5, #224]
30002764:	e1530006 	cmp	r3, r6
30002768:	aa000003 	bge	3000277c <GetTestItem+0x308>
3000276c:	e283302d 	add	r3, r3, #45	; 0x2d
30002770:	e1530006 	cmp	r3, r6
30002774:	c3a03009 	movgt	r3, #9	; 0x9
30002778:	ca000052 	bgt	300028c8 <GetTestItem+0x454>
3000277c:	e59530f4 	ldr	r3, [r5, #244]
30002780:	e1530004 	cmp	r3, r4
30002784:	aa000009 	bge	300027b0 <GetTestItem+0x33c>
30002788:	e283308c 	add	r3, r3, #140	; 0x8c
3000278c:	e1530004 	cmp	r3, r4
30002790:	da000006 	ble	300027b0 <GetTestItem+0x33c>
30002794:	e59530f8 	ldr	r3, [r5, #248]
30002798:	e1530006 	cmp	r3, r6
3000279c:	aa000003 	bge	300027b0 <GetTestItem+0x33c>
300027a0:	e283302d 	add	r3, r3, #45	; 0x2d
300027a4:	e1530006 	cmp	r3, r6
300027a8:	c3a0300a 	movgt	r3, #10	; 0xa
300027ac:	ca000045 	bgt	300028c8 <GetTestItem+0x454>
300027b0:	e595310c 	ldr	r3, [r5, #268]
300027b4:	e1530004 	cmp	r3, r4
300027b8:	aa000002 	bge	300027c8 <GetTestItem+0x354>
300027bc:	e283308c 	add	r3, r3, #140	; 0x8c
300027c0:	e1530004 	cmp	r3, r4
300027c4:	ca000042 	bgt	300028d4 <GetTestItem+0x460>
300027c8:	e59d2004 	ldr	r2, [sp, #4]
300027cc:	e5923000 	ldr	r3, [r2]
300027d0:	e3530064 	cmp	r3, #100	; 0x64
300027d4:	0a000010 	beq	3000281c <GetTestItem+0x3a8>
300027d8:	e1a01004 	mov	r1, r4
300027dc:	e1a02006 	mov	r2, r6
300027e0:	e59f0138 	ldr	r0, [pc, #312]	; 30002920 <.text+0x2920>
300027e4:	ebfffbba 	bl	300016d4 <printf>
300027e8:	e59d2004 	ldr	r2, [sp, #4]
300027ec:	e5923000 	ldr	r3, [r2]
300027f0:	e0833083 	add	r3, r3, r3, lsl #1
300027f4:	e0853183 	add	r3, r5, r3, lsl #3
300027f8:	e5932014 	ldr	r2, [r3, #20]
300027fc:	e9930003 	ldmib	r3, {r0, r1}
30002800:	e3e034ff 	mvn	r3, #-16777216	; 0xff000000
30002804:	ebfffe0a 	bl	30002034 <ClickedButton>
30002808:	e3a00c4e 	mov	r0, #19968	; 0x4e00
3000280c:	e2800020 	add	r0, r0, #32	; 0x20
30002810:	ebfffd79 	bl	30001dfc <Delay>
30002814:	e59d2004 	ldr	r2, [sp, #4]
30002818:	e5923000 	ldr	r3, [r2]
3000281c:	e083c083 	add	ip, r3, r3, lsl #1
30002820:	e085c18c 	add	ip, r5, ip, lsl #3
30002824:	e59c2014 	ldr	r2, [ip, #20]
30002828:	e99c0003 	ldmib	ip, {r0, r1}
3000282c:	e3a03000 	mov	r3, #0	; 0x0
30002830:	ebfffeee 	bl	300023f0 <DisplayTestItemIcon>
30002834:	e1a01009 	mov	r1, r9
30002838:	e1a0200a 	mov	r2, sl
3000283c:	e1a0000b 	mov	r0, fp
30002840:	eb000dbf 	bl	30005f44 <ReadTs>
30002844:	e1a01009 	mov	r1, r9
30002848:	e1a0200a 	mov	r2, sl
3000284c:	e1a0000b 	mov	r0, fp
30002850:	eb000dbb 	bl	30005f44 <ReadTs>
30002854:	e1a01009 	mov	r1, r9
30002858:	e1a0000b 	mov	r0, fp
3000285c:	e1a0200a 	mov	r2, sl
30002860:	eb000db7 	bl	30005f44 <ReadTs>
30002864:	e59d1000 	ldr	r1, [sp]
30002868:	e59f00b4 	ldr	r0, [pc, #180]	; 30002924 <.text+0x2924>
3000286c:	ebfffb98 	bl	300016d4 <printf>
30002870:	e28dd014 	add	sp, sp, #20	; 0x14
30002874:	e8bd8ff0 	ldmia	sp!, {r4, r5, r6, r7, r8, r9, sl, fp, pc}
30002878:	e59d3008 	ldr	r3, [sp, #8]
3000287c:	e3530000 	cmp	r3, #0	; 0x0
30002880:	1affff13 	bne	300024d4 <GetTestItem+0x60>
30002884:	e1a01009 	mov	r1, r9
30002888:	e1a0200a 	mov	r2, sl
3000288c:	e1a0000b 	mov	r0, fp
30002890:	eb000dab 	bl	30005f44 <ReadTs>
30002894:	e1a01009 	mov	r1, r9
30002898:	e1a0200a 	mov	r2, sl
3000289c:	e1a0000b 	mov	r0, fp
300028a0:	eb000da7 	bl	30005f44 <ReadTs>
300028a4:	e1a0000b 	mov	r0, fp
300028a8:	e1a01009 	mov	r1, r9
300028ac:	e1a0200a 	mov	r2, sl
300028b0:	eb000da3 	bl	30005f44 <ReadTs>
300028b4:	eaffffed 	b	30002870 <GetTestItem+0x3fc>
300028b8:	e283302d 	add	r3, r3, #45	; 0x2d
300028bc:	e1530000 	cmp	r3, r0
300028c0:	c3a03000 	movgt	r3, #0	; 0x0
300028c4:	daffff3f 	ble	300025c8 <GetTestItem+0x154>
300028c8:	e59d2004 	ldr	r2, [sp, #4]
300028cc:	e5823000 	str	r3, [r2]
300028d0:	eaffffc0 	b	300027d8 <GetTestItem+0x364>
300028d4:	e5953110 	ldr	r3, [r5, #272]
300028d8:	e1530006 	cmp	r3, r6
300028dc:	aaffffb9 	bge	300027c8 <GetTestItem+0x354>
300028e0:	e283302d 	add	r3, r3, #45	; 0x2d
300028e4:	e1530006 	cmp	r3, r6
300028e8:	c3a0300b 	movgt	r3, #11	; 0xb
300028ec:	cafffff5 	bgt	300028c8 <GetTestItem+0x454>
300028f0:	eaffffb4 	b	300027c8 <GetTestItem+0x354>
300028f4:	e283302d 	add	r3, r3, #45	; 0x2d
300028f8:	e1530006 	cmp	r3, r6
300028fc:	daffff3a 	ble	300025ec <GetTestItem+0x178>
30002900:	e3a03001 	mov	r3, #1	; 0x1
30002904:	eaffffef 	b	300028c8 <GetTestItem+0x454>
30002908:	e283302d 	add	r3, r3, #45	; 0x2d
3000290c:	e1530006 	cmp	r3, r6
30002910:	c3a03002 	movgt	r3, #2	; 0x2
30002914:	caffffeb 	bgt	300028c8 <GetTestItem+0x454>
30002918:	eaffff3c 	b	30002610 <GetTestItem+0x19c>
3000291c:	30011820 	andcc	r1, r1, r0, lsr #16
30002920:	3000e558 	andcc	lr, r0, r8, asr r5
30002924:	3000e574 	andcc	lr, r0, r4, ror r5

30002928 <DisplayReturnButton>:
30002928:	e92d4070 	stmdb	sp!, {r4, r5, r6, lr}
3000292c:	e3a06bea 	mov	r6, #239616	; 0x3a800
30002930:	e59f5068 	ldr	r5, [pc, #104]	; 300029a0 <.text+0x29a0>
30002934:	e24dd004 	sub	sp, sp, #4	; 0x4
30002938:	e286609e 	add	r6, r6, #158	; 0x9e
3000293c:	e3a04000 	mov	r4, #0	; 0x0
30002940:	e9950003 	ldmib	r5, {r0, r1}
30002944:	e0811004 	add	r1, r1, r4
30002948:	e280208c 	add	r2, r0, #140	; 0x8c
3000294c:	e2844001 	add	r4, r4, #1	; 0x1
30002950:	e1a03001 	mov	r3, r1
30002954:	e58d6000 	str	r6, [sp]
30002958:	eb0007d6 	bl	300048b8 <DrawLine>
3000295c:	e354002c 	cmp	r4, #44	; 0x2c
30002960:	dafffff6 	ble	30002940 <DisplayReturnButton+0x18>
30002964:	e9950003 	ldmib	r5, {r0, r1}
30002968:	e3a04000 	mov	r4, #0	; 0x0
3000296c:	e3a0208c 	mov	r2, #140	; 0x8c
30002970:	e3a0302d 	mov	r3, #45	; 0x2d
30002974:	e58d4000 	str	r4, [sp]
30002978:	eb000878 	bl	30004b60 <DrawRectangle>
3000297c:	e9950003 	ldmib	r5, {r0, r1}
30002980:	e5952014 	ldr	r2, [r5, #20]
30002984:	e2800008 	add	r0, r0, #8	; 0x8
30002988:	e2811006 	add	r1, r1, #6	; 0x6
3000298c:	e3e034ff 	mvn	r3, #-16777216	; 0xff000000
30002990:	e58d4000 	str	r4, [sp]
30002994:	eb000921 	bl	30004e20 <PrintFbString16x32>
30002998:	e28dd004 	add	sp, sp, #4	; 0x4
3000299c:	e8bd8070 	ldmia	sp!, {r4, r5, r6, pc}
300029a0:	30011808 	andcc	r1, r1, r8, lsl #16

300029a4 <BootInit>:
300029a4:	e59f2060 	ldr	r2, [pc, #96]	; 30002a0c <.text+0x2a0c>
300029a8:	e3a03000 	mov	r3, #0	; 0x0
300029ac:	e52de004 	str	lr, [sp, #-4]!
300029b0:	e5823028 	str	r3, [r2, #40]
300029b4:	e5823000 	str	r3, [r2]
300029b8:	e5823004 	str	r3, [r2, #4]
300029bc:	e5823008 	str	r3, [r2, #8]
300029c0:	e582300c 	str	r3, [r2, #12]
300029c4:	e5823010 	str	r3, [r2, #16]
300029c8:	e5823014 	str	r3, [r2, #20]
300029cc:	e5823018 	str	r3, [r2, #24]
300029d0:	e582301c 	str	r3, [r2, #28]
300029d4:	e5823020 	str	r3, [r2, #32]
300029d8:	e5823024 	str	r3, [r2, #36]
300029dc:	ebfffd10 	bl	30001e24 <InitButton>
300029e0:	eb000935 	bl	30004ebc <InitLed>
300029e4:	eb000ebf 	bl	300064e8 <InitKey>
300029e8:	ebfff745 	bl	30000704 <InitNand>
300029ec:	eb00056c 	bl	30003fa4 <InitLcd>
300029f0:	eb000569 	bl	30003f9c <EnableLcd>
300029f4:	eb00087e 	bl	30004bf4 <InitFont>
300029f8:	ebfffca5 	bl	30001c94 <InitTimer>
300029fc:	eb000a46 	bl	3000531c <InitTouchScreen>
30002a00:	eb0006da 	bl	30004570 <GetLcdParamsforFb>
30002a04:	e49de004 	ldr	lr, [sp], #4
30002a08:	eafffe11 	b	30002254 <InitCalibration>
30002a0c:	300117d8 	ldrccd	r1, [r1], -r8

30002a10 <BootScreen>:
30002a10:	e92d4070 	stmdb	sp!, {r4, r5, r6, lr}
30002a14:	e24dd014 	sub	sp, sp, #20	; 0x14
30002a18:	e28d2008 	add	r2, sp, #8	; 0x8
30002a1c:	e28d3004 	add	r3, sp, #4	; 0x4
30002a20:	e28d0010 	add	r0, sp, #16	; 0x10
30002a24:	e28d100c 	add	r1, sp, #12	; 0xc
30002a28:	eb00054e 	bl	30003f68 <GetLcdParams>
30002a2c:	e59d3004 	ldr	r3, [sp, #4]
30002a30:	e3530008 	cmp	r3, #8	; 0x8
30002a34:	e3a02000 	mov	r2, #0	; 0x0
30002a38:	0a000046 	beq	30002b58 <BootScreen+0x148>
30002a3c:	e3530010 	cmp	r3, #16	; 0x10
30002a40:	0a000058 	beq	30002ba8 <BootScreen+0x198>
30002a44:	e3530020 	cmp	r3, #32	; 0x20
30002a48:	0a00006d 	beq	30002c04 <BootScreen+0x1f4>
30002a4c:	e3a00a7a 	mov	r0, #499712	; 0x7a000
30002a50:	e2800e12 	add	r0, r0, #288	; 0x120
30002a54:	ebfffce8 	bl	30001dfc <Delay>
30002a58:	e3a0000a 	mov	r0, #10	; 0xa
30002a5c:	e3a04001 	mov	r4, #1	; 0x1
30002a60:	e1a01000 	mov	r1, r0
30002a64:	e59f21ec 	ldr	r2, [pc, #492]	; 30002c58 <.text+0x2c58>
30002a68:	e3a03000 	mov	r3, #0	; 0x0
30002a6c:	e58d4000 	str	r4, [sp]
30002a70:	eb0008c3 	bl	30004d84 <PrintFbString8x16>
30002a74:	e3a0097a 	mov	r0, #1998848	; 0x1e8000
30002a78:	e2800d12 	add	r0, r0, #1152	; 0x480
30002a7c:	ebfffcde 	bl	30001dfc <Delay>
30002a80:	e3a01032 	mov	r1, #50	; 0x32
30002a84:	e59f21d0 	ldr	r2, [pc, #464]	; 30002c5c <.text+0x2c5c>
30002a88:	e3a03000 	mov	r3, #0	; 0x0
30002a8c:	e3a0000a 	mov	r0, #10	; 0xa
30002a90:	e58d4000 	str	r4, [sp]
30002a94:	eb0008ba 	bl	30004d84 <PrintFbString8x16>
30002a98:	e3a0097a 	mov	r0, #1998848	; 0x1e8000
30002a9c:	e2800d12 	add	r0, r0, #1152	; 0x480
30002aa0:	ebfffcd5 	bl	30001dfc <Delay>
30002aa4:	e3a0105a 	mov	r1, #90	; 0x5a
30002aa8:	e59f21b0 	ldr	r2, [pc, #432]	; 30002c60 <.text+0x2c60>
30002aac:	e3a03000 	mov	r3, #0	; 0x0
30002ab0:	e3a0000a 	mov	r0, #10	; 0xa
30002ab4:	e58d4000 	str	r4, [sp]
30002ab8:	eb0008b1 	bl	30004d84 <PrintFbString8x16>
30002abc:	e3a0097a 	mov	r0, #1998848	; 0x1e8000
30002ac0:	e2800d12 	add	r0, r0, #1152	; 0x480
30002ac4:	ebfffccc 	bl	30001dfc <Delay>
30002ac8:	e3a01082 	mov	r1, #130	; 0x82
30002acc:	e59f2190 	ldr	r2, [pc, #400]	; 30002c64 <.text+0x2c64>
30002ad0:	e3a03000 	mov	r3, #0	; 0x0
30002ad4:	e3a0000a 	mov	r0, #10	; 0xa
30002ad8:	e58d4000 	str	r4, [sp]
30002adc:	eb0008a8 	bl	30004d84 <PrintFbString8x16>
30002ae0:	e3a0097a 	mov	r0, #1998848	; 0x1e8000
30002ae4:	e2800d12 	add	r0, r0, #1152	; 0x480
30002ae8:	ebfffcc3 	bl	30001dfc <Delay>
30002aec:	e3a0000a 	mov	r0, #10	; 0xa
30002af0:	e3a010aa 	mov	r1, #170	; 0xaa
30002af4:	e59f216c 	ldr	r2, [pc, #364]	; 30002c68 <.text+0x2c68>
30002af8:	e3a03000 	mov	r3, #0	; 0x0
30002afc:	e58d4000 	str	r4, [sp]
30002b00:	eb00089f 	bl	30004d84 <PrintFbString8x16>
30002b04:	e3a010be 	mov	r1, #190	; 0xbe
30002b08:	e59f215c 	ldr	r2, [pc, #348]	; 30002c6c <.text+0x2c6c>
30002b0c:	e3a03000 	mov	r3, #0	; 0x0
30002b10:	e3a0000a 	mov	r0, #10	; 0xa
30002b14:	e58d4000 	str	r4, [sp]
30002b18:	eb000899 	bl	30004d84 <PrintFbString8x16>
30002b1c:	e3a0097a 	mov	r0, #1998848	; 0x1e8000
30002b20:	e2800d12 	add	r0, r0, #1152	; 0x480
30002b24:	ebfffcb4 	bl	30001dfc <Delay>
30002b28:	e3a0000a 	mov	r0, #10	; 0xa
30002b2c:	e3a010e6 	mov	r1, #230	; 0xe6
30002b30:	e59f2138 	ldr	r2, [pc, #312]	; 30002c70 <.text+0x2c70>
30002b34:	e3a03000 	mov	r3, #0	; 0x0
30002b38:	e58d4000 	str	r4, [sp]
30002b3c:	eb000890 	bl	30004d84 <PrintFbString8x16>
30002b40:	e3a009d5 	mov	r0, #3489792	; 0x354000
30002b44:	e2800d9f 	add	r0, r0, #10176	; 0x27c0
30002b48:	e2800020 	add	r0, r0, #32	; 0x20
30002b4c:	ebfffcaa 	bl	30001dfc <Delay>
30002b50:	e28dd014 	add	sp, sp, #20	; 0x14
30002b54:	e8bd8070 	ldmia	sp!, {r4, r5, r6, pc}
30002b58:	e59d000c 	ldr	r0, [sp, #12]
30002b5c:	e1520000 	cmp	r2, r0
30002b60:	e1a06002 	mov	r6, r2
30002b64:	e59d2010 	ldr	r2, [sp, #16]
30002b68:	aaffffb7 	bge	30002a4c <BootScreen+0x3c>
30002b6c:	e59d3008 	ldr	r3, [sp, #8]
30002b70:	e3a04000 	mov	r4, #0	; 0x0
30002b74:	e1540003 	cmp	r4, r3
30002b78:	aa000006 	bge	30002b98 <BootScreen+0x188>
30002b7c:	e1a01004 	mov	r1, r4
30002b80:	e4c21001 	strb	r1, [r2], #1
30002b84:	e59d3008 	ldr	r3, [sp, #8]
30002b88:	e2844001 	add	r4, r4, #1	; 0x1
30002b8c:	e1540003 	cmp	r4, r3
30002b90:	bafffffa 	blt	30002b80 <BootScreen+0x170>
30002b94:	e59d000c 	ldr	r0, [sp, #12]
30002b98:	e2866001 	add	r6, r6, #1	; 0x1
30002b9c:	e1560000 	cmp	r6, r0
30002ba0:	bafffff2 	blt	30002b70 <BootScreen+0x160>
30002ba4:	eaffffa8 	b	30002a4c <BootScreen+0x3c>
30002ba8:	e59d000c 	ldr	r0, [sp, #12]
30002bac:	e1520000 	cmp	r2, r0
30002bb0:	e1a06002 	mov	r6, r2
30002bb4:	e59d5010 	ldr	r5, [sp, #16]
30002bb8:	aaffffa3 	bge	30002a4c <BootScreen+0x3c>
30002bbc:	e59d3008 	ldr	r3, [sp, #8]
30002bc0:	ea000002 	b	30002bd0 <BootScreen+0x1c0>
30002bc4:	e2866001 	add	r6, r6, #1	; 0x1
30002bc8:	e1560000 	cmp	r6, r0
30002bcc:	aaffff9e 	bge	30002a4c <BootScreen+0x3c>
30002bd0:	e3a04000 	mov	r4, #0	; 0x0
30002bd4:	e1540003 	cmp	r4, r3
30002bd8:	aafffff9 	bge	30002bc4 <BootScreen+0x1b4>
30002bdc:	e3a0071f 	mov	r0, #8126464	; 0x7c0000
30002be0:	e2800b3f 	add	r0, r0, #64512	; 0xfc00
30002be4:	eb00066a 	bl	30004594 <Convert32BppTo16Bpp>
30002be8:	e59d3008 	ldr	r3, [sp, #8]
30002bec:	e2844001 	add	r4, r4, #1	; 0x1
30002bf0:	e1540003 	cmp	r4, r3
30002bf4:	e0c500b2 	strh	r0, [r5], #2
30002bf8:	bafffff7 	blt	30002bdc <BootScreen+0x1cc>
30002bfc:	e59d000c 	ldr	r0, [sp, #12]
30002c00:	eaffffef 	b	30002bc4 <BootScreen+0x1b4>
30002c04:	e59d000c 	ldr	r0, [sp, #12]
30002c08:	e1520000 	cmp	r2, r0
30002c0c:	e1a06002 	mov	r6, r2
30002c10:	e59d1010 	ldr	r1, [sp, #16]
30002c14:	aaffff8c 	bge	30002a4c <BootScreen+0x3c>
30002c18:	e59d3008 	ldr	r3, [sp, #8]
30002c1c:	e3a04000 	mov	r4, #0	; 0x0
30002c20:	e1540003 	cmp	r4, r3
30002c24:	aa000007 	bge	30002c48 <BootScreen+0x238>
30002c28:	e3a0271f 	mov	r2, #8126464	; 0x7c0000
30002c2c:	e2822b3f 	add	r2, r2, #64512	; 0xfc00
30002c30:	e4812004 	str	r2, [r1], #4
30002c34:	e59d3008 	ldr	r3, [sp, #8]
30002c38:	e2844001 	add	r4, r4, #1	; 0x1
30002c3c:	e1540003 	cmp	r4, r3
30002c40:	bafffffa 	blt	30002c30 <BootScreen+0x220>
30002c44:	e59d000c 	ldr	r0, [sp, #12]
30002c48:	e2866001 	add	r6, r6, #1	; 0x1
30002c4c:	e1560000 	cmp	r6, r0
30002c50:	bafffff1 	blt	30002c1c <BootScreen+0x20c>
30002c54:	eaffff7c 	b	30002a4c <BootScreen+0x3c>
30002c58:	3000e58c 	andcc	lr, r0, ip, lsl #11
30002c5c:	3000e5c4 	andcc	lr, r0, r4, asr #11
30002c60:	3000e5d8 	ldrccd	lr, [r0], -r8
30002c64:	3000e5e8 	andcc	lr, r0, r8, ror #11
30002c68:	3000e604 	andcc	lr, r0, r4, lsl #12
30002c6c:	3000e630 	andcc	lr, r0, r0, lsr r6
30002c70:	3000e65c 	andcc	lr, r0, ip, asr r6

30002c74 <MainPage>:
30002c74:	e92d4070 	stmdb	sp!, {r4, r5, r6, lr}
30002c78:	e24dd020 	sub	sp, sp, #32	; 0x20
30002c7c:	e28d2014 	add	r2, sp, #20	; 0x14
30002c80:	e28d3010 	add	r3, sp, #16	; 0x10
30002c84:	e28d001c 	add	r0, sp, #28	; 0x1c
30002c88:	e28d1018 	add	r1, sp, #24	; 0x18
30002c8c:	eb0004b5 	bl	30003f68 <GetLcdParams>
30002c90:	e59d2010 	ldr	r2, [sp, #16]
30002c94:	e3520008 	cmp	r2, #8	; 0x8
30002c98:	e3a03000 	mov	r3, #0	; 0x0
30002c9c:	0a000024 	beq	30002d34 <MainPage+0xc0>
30002ca0:	e3520010 	cmp	r2, #16	; 0x10
30002ca4:	0a00003c 	beq	30002d9c <MainPage+0x128>
30002ca8:	e3520020 	cmp	r2, #32	; 0x20
30002cac:	0a000058 	beq	30002e14 <MainPage+0x1a0>
30002cb0:	e3a0c000 	mov	ip, #0	; 0x0
30002cb4:	e3a000b0 	mov	r0, #176	; 0xb0
30002cb8:	e3a01005 	mov	r1, #5	; 0x5
30002cbc:	e59f21c4 	ldr	r2, [pc, #452]	; 30002e88 <.text+0x2e88>
30002cc0:	e3e034ff 	mvn	r3, #-16777216	; 0xff000000
30002cc4:	e58dc000 	str	ip, [sp]
30002cc8:	eb000854 	bl	30004e20 <PrintFbString16x32>
30002ccc:	e59f41b8 	ldr	r4, [pc, #440]	; 30002e8c <.text+0x2e8c>
30002cd0:	e3a0500b 	mov	r5, #11	; 0xb
30002cd4:	e9940003 	ldmib	r4, {r0, r1}
30002cd8:	e5942014 	ldr	r2, [r4, #20]
30002cdc:	e3a03000 	mov	r3, #0	; 0x0
30002ce0:	ebfffdc2 	bl	300023f0 <DisplayTestItemIcon>
30002ce4:	e2555001 	subs	r5, r5, #1	; 0x1
30002ce8:	e2844018 	add	r4, r4, #24	; 0x18
30002cec:	5afffff8 	bpl	30002cd4 <MainPage+0x60>
30002cf0:	e28d400c 	add	r4, sp, #12	; 0xc
30002cf4:	e28d5008 	add	r5, sp, #8	; 0x8
30002cf8:	e28d6004 	add	r6, sp, #4	; 0x4
30002cfc:	e1a01005 	mov	r1, r5
30002d00:	e1a02006 	mov	r2, r6
30002d04:	e1a00004 	mov	r0, r4
30002d08:	eb000c8d 	bl	30005f44 <ReadTs>
30002d0c:	e1a01005 	mov	r1, r5
30002d10:	e1a02006 	mov	r2, r6
30002d14:	e1a00004 	mov	r0, r4
30002d18:	eb000c89 	bl	30005f44 <ReadTs>
30002d1c:	e1a00004 	mov	r0, r4
30002d20:	e1a01005 	mov	r1, r5
30002d24:	e1a02006 	mov	r2, r6
30002d28:	eb000c85 	bl	30005f44 <ReadTs>
30002d2c:	e28dd020 	add	sp, sp, #32	; 0x20
30002d30:	e8bd8070 	ldmia	sp!, {r4, r5, r6, pc}
30002d34:	e59dc018 	ldr	ip, [sp, #24]
30002d38:	e153000c 	cmp	r3, ip
30002d3c:	e1a00003 	mov	r0, r3
30002d40:	e58d300c 	str	r3, [sp, #12]
30002d44:	e59d101c 	ldr	r1, [sp, #28]
30002d48:	aaffffd8 	bge	30002cb0 <MainPage+0x3c>
30002d4c:	e59d2014 	ldr	r2, [sp, #20]
30002d50:	e1a0e003 	mov	lr, r3
30002d54:	e15e0002 	cmp	lr, r2
30002d58:	e58de008 	str	lr, [sp, #8]
30002d5c:	aa000009 	bge	30002d88 <MainPage+0x114>
30002d60:	e1a0000e 	mov	r0, lr
30002d64:	e4c10001 	strb	r0, [r1], #1
30002d68:	e59d3008 	ldr	r3, [sp, #8]
30002d6c:	e59d2014 	ldr	r2, [sp, #20]
30002d70:	e2833001 	add	r3, r3, #1	; 0x1
30002d74:	e1530002 	cmp	r3, r2
30002d78:	e58d3008 	str	r3, [sp, #8]
30002d7c:	bafffff8 	blt	30002d64 <MainPage+0xf0>
30002d80:	e59d000c 	ldr	r0, [sp, #12]
30002d84:	e59dc018 	ldr	ip, [sp, #24]
30002d88:	e2800001 	add	r0, r0, #1	; 0x1
30002d8c:	e150000c 	cmp	r0, ip
30002d90:	e58d000c 	str	r0, [sp, #12]
30002d94:	baffffee 	blt	30002d54 <MainPage+0xe0>
30002d98:	eaffffc4 	b	30002cb0 <MainPage+0x3c>
30002d9c:	e59dc018 	ldr	ip, [sp, #24]
30002da0:	e153000c 	cmp	r3, ip
30002da4:	e1a00003 	mov	r0, r3
30002da8:	e58d300c 	str	r3, [sp, #12]
30002dac:	e59d401c 	ldr	r4, [sp, #28]
30002db0:	aaffffbe 	bge	30002cb0 <MainPage+0x3c>
30002db4:	e59d2014 	ldr	r2, [sp, #20]
30002db8:	e1a05003 	mov	r5, r3
30002dbc:	ea000003 	b	30002dd0 <MainPage+0x15c>
30002dc0:	e2800001 	add	r0, r0, #1	; 0x1
30002dc4:	e150000c 	cmp	r0, ip
30002dc8:	e58d000c 	str	r0, [sp, #12]
30002dcc:	aaffffb7 	bge	30002cb0 <MainPage+0x3c>
30002dd0:	e1550002 	cmp	r5, r2
30002dd4:	e58d5008 	str	r5, [sp, #8]
30002dd8:	aafffff8 	bge	30002dc0 <MainPage+0x14c>
30002ddc:	e3a0073d 	mov	r0, #15990784	; 0xf40000
30002de0:	e2800b29 	add	r0, r0, #41984	; 0xa400
30002de4:	e2800060 	add	r0, r0, #96	; 0x60
30002de8:	eb0005e9 	bl	30004594 <Convert32BppTo16Bpp>
30002dec:	e59d3008 	ldr	r3, [sp, #8]
30002df0:	e59d2014 	ldr	r2, [sp, #20]
30002df4:	e2833001 	add	r3, r3, #1	; 0x1
30002df8:	e1530002 	cmp	r3, r2
30002dfc:	e0c400b2 	strh	r0, [r4], #2
30002e00:	e58d3008 	str	r3, [sp, #8]
30002e04:	bafffff4 	blt	30002ddc <MainPage+0x168>
30002e08:	e59d000c 	ldr	r0, [sp, #12]
30002e0c:	e59dc018 	ldr	ip, [sp, #24]
30002e10:	eaffffea 	b	30002dc0 <MainPage+0x14c>
30002e14:	e59dc018 	ldr	ip, [sp, #24]
30002e18:	e153000c 	cmp	r3, ip
30002e1c:	e1a00003 	mov	r0, r3
30002e20:	e58d300c 	str	r3, [sp, #12]
30002e24:	e59de01c 	ldr	lr, [sp, #28]
30002e28:	aaffffa0 	bge	30002cb0 <MainPage+0x3c>
30002e2c:	e59d2014 	ldr	r2, [sp, #20]
30002e30:	e1a04003 	mov	r4, r3
30002e34:	e1540002 	cmp	r4, r2
30002e38:	e58d4008 	str	r4, [sp, #8]
30002e3c:	aa00000b 	bge	30002e70 <MainPage+0x1fc>
30002e40:	e3a0173d 	mov	r1, #15990784	; 0xf40000
30002e44:	e2811b29 	add	r1, r1, #41984	; 0xa400
30002e48:	e2811060 	add	r1, r1, #96	; 0x60
30002e4c:	e48e1004 	str	r1, [lr], #4
30002e50:	e59d3008 	ldr	r3, [sp, #8]
30002e54:	e59d2014 	ldr	r2, [sp, #20]
30002e58:	e2833001 	add	r3, r3, #1	; 0x1
30002e5c:	e1530002 	cmp	r3, r2
30002e60:	e58d3008 	str	r3, [sp, #8]
30002e64:	bafffff8 	blt	30002e4c <MainPage+0x1d8>
30002e68:	e59d000c 	ldr	r0, [sp, #12]
30002e6c:	e59dc018 	ldr	ip, [sp, #24]
30002e70:	e2803001 	add	r3, r0, #1	; 0x1
30002e74:	e153000c 	cmp	r3, ip
30002e78:	e1a00003 	mov	r0, r3
30002e7c:	e58d300c 	str	r3, [sp, #12]
30002e80:	baffffeb 	blt	30002e34 <MainPage+0x1c0>
30002e84:	eaffff89 	b	30002cb0 <MainPage+0x3c>
30002e88:	3000e688 	andcc	lr, r0, r8, lsl #13
30002e8c:	30011820 	andcc	r1, r1, r0, lsr #16

30002e90 <TestSPI>:
30002e90:	e92d4010 	stmdb	sp!, {r4, lr}
30002e94:	e3a04000 	mov	r4, #0	; 0x0
30002e98:	e24dd00c 	sub	sp, sp, #12	; 0xc
30002e9c:	e58d4008 	str	r4, [sp, #8]
30002ea0:	e58d4004 	str	r4, [sp, #4]
30002ea4:	eb00104e 	bl	30006fe4 <InitSPIGPIO>
30002ea8:	e3e004ff 	mvn	r0, #-16777216	; 0xff000000
30002eac:	eb0005e0 	bl	30004634 <ClearScreen>
30002eb0:	e3a038e3 	mov	r3, #14876672	; 0xe30000
30002eb4:	e2833c17 	add	r3, r3, #5888	; 0x1700
30002eb8:	e283300d 	add	r3, r3, #13	; 0xd
30002ebc:	e3a0005a 	mov	r0, #90	; 0x5a
30002ec0:	e3a01005 	mov	r1, #5	; 0x5
30002ec4:	e59f22c0 	ldr	r2, [pc, #704]	; 3000318c <.text+0x318c>
30002ec8:	e58d4000 	str	r4, [sp]
30002ecc:	eb0007d3 	bl	30004e20 <PrintFbString16x32>
30002ed0:	eb0011ed 	bl	3000768c <InitOLED>
30002ed4:	e59f22b4 	ldr	r2, [pc, #692]	; 30003190 <.text+0x3190>
30002ed8:	e1a00004 	mov	r0, r4
30002edc:	e1a01004 	mov	r1, r4
30002ee0:	eb001247 	bl	30007804 <PrintOLED>
30002ee4:	e28d0008 	add	r0, sp, #8	; 0x8
30002ee8:	e28d1004 	add	r1, sp, #4	; 0x4
30002eec:	eb0010c3 	bl	30007200 <ReadSPIFlashID>
30002ef0:	e59f029c 	ldr	r0, [pc, #668]	; 30003194 <.text+0x3194>
30002ef4:	e59d1008 	ldr	r1, [sp, #8]
30002ef8:	e59d2004 	ldr	r2, [sp, #4]
30002efc:	ebfff9f4 	bl	300016d4 <printf>
30002f00:	e59d3008 	ldr	r3, [sp, #8]
30002f04:	e35300ff 	cmp	r3, #255	; 0xff
30002f08:	0a000087 	beq	3000312c <.text+0x312c>
30002f0c:	e59d3004 	ldr	r3, [sp, #4]
30002f10:	e35300ff 	cmp	r3, #255	; 0xff
30002f14:	0a000084 	beq	3000312c <.text+0x312c>
30002f18:	eb001141 	bl	30007424 <InitSPIFlash>
30002f1c:	e3e004ff 	mvn	r0, #-16777216	; 0xff000000
30002f20:	eb0005c3 	bl	30004634 <ClearScreen>
30002f24:	e3a038e3 	mov	r3, #14876672	; 0xe30000
30002f28:	e2833c17 	add	r3, r3, #5888	; 0x1700
30002f2c:	e283300d 	add	r3, r3, #13	; 0xd
30002f30:	e3a0005a 	mov	r0, #90	; 0x5a
30002f34:	e3a01005 	mov	r1, #5	; 0x5
30002f38:	e59f224c 	ldr	r2, [pc, #588]	; 3000318c <.text+0x318c>
30002f3c:	e58d4000 	str	r4, [sp]
30002f40:	eb0007b6 	bl	30004e20 <PrintFbString16x32>
30002f44:	ebfffe77 	bl	30002928 <DisplayReturnButton>
30002f48:	e3a03ab1 	mov	r3, #724992	; 0xb1000
30002f4c:	e2833d1d 	add	r3, r3, #1856	; 0x740
30002f50:	e2833006 	add	r3, r3, #6	; 0x6
30002f54:	e3a0005a 	mov	r0, #90	; 0x5a
30002f58:	e3a01028 	mov	r1, #40	; 0x28
30002f5c:	e59f2234 	ldr	r2, [pc, #564]	; 30003198 <.text+0x3198>
30002f60:	e58d4000 	str	r4, [sp]
30002f64:	eb0007ad 	bl	30004e20 <PrintFbString16x32>
30002f68:	e3a03841 	mov	r3, #4259840	; 0x410000
30002f6c:	e2833c69 	add	r3, r3, #26880	; 0x6900
30002f70:	e28330e1 	add	r3, r3, #225	; 0xe1
30002f74:	e3a0007a 	mov	r0, #122	; 0x7a
30002f78:	e3a01055 	mov	r1, #85	; 0x55
30002f7c:	e59f2218 	ldr	r2, [pc, #536]	; 3000319c <.text+0x319c>
30002f80:	e58d4000 	str	r4, [sp]
30002f84:	eb00077e 	bl	30004d84 <PrintFbString8x16>
30002f88:	e3a03841 	mov	r3, #4259840	; 0x410000
30002f8c:	e2833c69 	add	r3, r3, #26880	; 0x6900
30002f90:	e28330e1 	add	r3, r3, #225	; 0xe1
30002f94:	e3a0005a 	mov	r0, #90	; 0x5a
30002f98:	e3a0106e 	mov	r1, #110	; 0x6e
30002f9c:	e59f21fc 	ldr	r2, [pc, #508]	; 300031a0 <.text+0x31a0>
30002fa0:	e58d4000 	str	r4, [sp]
30002fa4:	eb000776 	bl	30004d84 <PrintFbString8x16>
30002fa8:	e3a03841 	mov	r3, #4259840	; 0x410000
30002fac:	e2833c69 	add	r3, r3, #26880	; 0x6900
30002fb0:	e28330e1 	add	r3, r3, #225	; 0xe1
30002fb4:	e3a0005a 	mov	r0, #90	; 0x5a
30002fb8:	e3a01082 	mov	r1, #130	; 0x82
30002fbc:	e59f21e0 	ldr	r2, [pc, #480]	; 300031a4 <.text+0x31a4>
30002fc0:	e58d4000 	str	r4, [sp]
30002fc4:	eb00076e 	bl	30004d84 <PrintFbString8x16>
30002fc8:	e3a03841 	mov	r3, #4259840	; 0x410000
30002fcc:	e2833c69 	add	r3, r3, #26880	; 0x6900
30002fd0:	e28330e1 	add	r3, r3, #225	; 0xe1
30002fd4:	e3a0005a 	mov	r0, #90	; 0x5a
30002fd8:	e3a0109b 	mov	r1, #155	; 0x9b
30002fdc:	e59f21c4 	ldr	r2, [pc, #452]	; 300031a8 <.text+0x31a8>
30002fe0:	e58d4000 	str	r4, [sp]
30002fe4:	eb000766 	bl	30004d84 <PrintFbString8x16>
30002fe8:	e3a00028 	mov	r0, #40	; 0x28
30002fec:	e3a010f0 	mov	r1, #240	; 0xf0
30002ff0:	e59f21b4 	ldr	r2, [pc, #436]	; 300031ac <.text+0x31ac>
30002ff4:	e3a038ff 	mov	r3, #16711680	; 0xff0000
30002ff8:	e58d4000 	str	r4, [sp]
30002ffc:	eb000760 	bl	30004d84 <PrintFbString8x16>
30003000:	e59f01a8 	ldr	r0, [pc, #424]	; 300031b0 <.text+0x31b0>
30003004:	ebfff9b2 	bl	300016d4 <printf>
30003008:	e59f01a4 	ldr	r0, [pc, #420]	; 300031b4 <.text+0x31b4>
3000300c:	ebfff9b0 	bl	300016d4 <printf>
30003010:	e59f01a0 	ldr	r0, [pc, #416]	; 300031b8 <.text+0x31b8>
30003014:	ebfff9ae 	bl	300016d4 <printf>
30003018:	e59f019c 	ldr	r0, [pc, #412]	; 300031bc <.text+0x31bc>
3000301c:	ebfff9ac 	bl	300016d4 <printf>
30003020:	e59f0198 	ldr	r0, [pc, #408]	; 300031c0 <.text+0x31c0>
30003024:	ebfff9aa 	bl	300016d4 <printf>
30003028:	ebfffc1d 	bl	300020a4 <isClickReturn>
3000302c:	e3500000 	cmp	r0, #0	; 0x0
30003030:	1a000049 	bne	3000315c <.text+0x315c>
30003034:	ebfff595 	bl	30000690 <GetChar>
30003038:	e20040ff 	and	r4, r0, #255	; 0xff
3000303c:	e1a01004 	mov	r1, r4
30003040:	e59f017c 	ldr	r0, [pc, #380]	; 300031c4 <.text+0x31c4>
30003044:	ebfff9a2 	bl	300016d4 <printf>
30003048:	e3540000 	cmp	r4, #0	; 0x0
3000304c:	e2444045 	sub	r4, r4, #69	; 0x45
30003050:	0a000042 	beq	30003160 <.text+0x3160>
30003054:	e3540032 	cmp	r4, #50	; 0x32
30003058:	979ff104 	ldrls	pc, [pc, r4, lsl #2]
3000305c:	eafffff1 	b	30003028 <TestSPI+0x198>
30003060:	30003174 	andcc	r3, r0, r4, ror r1
30003064:	30003028 	andcc	r3, r0, r8, lsr #32
30003068:	30003028 	andcc	r3, r0, r8, lsr #32
3000306c:	30003028 	andcc	r3, r0, r8, lsr #32
30003070:	30003028 	andcc	r3, r0, r8, lsr #32
30003074:	30003028 	andcc	r3, r0, r8, lsr #32
30003078:	30003028 	andcc	r3, r0, r8, lsr #32
3000307c:	30003028 	andcc	r3, r0, r8, lsr #32
30003080:	30003028 	andcc	r3, r0, r8, lsr #32
30003084:	30003028 	andcc	r3, r0, r8, lsr #32
30003088:	30003028 	andcc	r3, r0, r8, lsr #32
3000308c:	30003028 	andcc	r3, r0, r8, lsr #32
30003090:	3000315c 	andcc	r3, r0, ip, asr r1
30003094:	30003180 	andcc	r3, r0, r0, lsl #3
30003098:	30003028 	andcc	r3, r0, r8, lsr #32
3000309c:	30003028 	andcc	r3, r0, r8, lsr #32
300030a0:	30003028 	andcc	r3, r0, r8, lsr #32
300030a4:	30003028 	andcc	r3, r0, r8, lsr #32
300030a8:	30003168 	andcc	r3, r0, r8, ror #2
300030ac:	30003028 	andcc	r3, r0, r8, lsr #32
300030b0:	30003028 	andcc	r3, r0, r8, lsr #32
300030b4:	30003028 	andcc	r3, r0, r8, lsr #32
300030b8:	30003028 	andcc	r3, r0, r8, lsr #32
300030bc:	30003028 	andcc	r3, r0, r8, lsr #32
300030c0:	30003028 	andcc	r3, r0, r8, lsr #32
300030c4:	30003028 	andcc	r3, r0, r8, lsr #32
300030c8:	30003028 	andcc	r3, r0, r8, lsr #32
300030cc:	30003028 	andcc	r3, r0, r8, lsr #32
300030d0:	30003028 	andcc	r3, r0, r8, lsr #32
300030d4:	30003028 	andcc	r3, r0, r8, lsr #32
300030d8:	30003028 	andcc	r3, r0, r8, lsr #32
300030dc:	30003028 	andcc	r3, r0, r8, lsr #32
300030e0:	30003174 	andcc	r3, r0, r4, ror r1
300030e4:	30003028 	andcc	r3, r0, r8, lsr #32
300030e8:	30003028 	andcc	r3, r0, r8, lsr #32
300030ec:	30003028 	andcc	r3, r0, r8, lsr #32
300030f0:	30003028 	andcc	r3, r0, r8, lsr #32
300030f4:	30003028 	andcc	r3, r0, r8, lsr #32
300030f8:	30003028 	andcc	r3, r0, r8, lsr #32
300030fc:	30003028 	andcc	r3, r0, r8, lsr #32
30003100:	30003028 	andcc	r3, r0, r8, lsr #32
30003104:	30003028 	andcc	r3, r0, r8, lsr #32
30003108:	30003028 	andcc	r3, r0, r8, lsr #32
3000310c:	30003028 	andcc	r3, r0, r8, lsr #32
30003110:	3000315c 	andcc	r3, r0, ip, asr r1
30003114:	30003180 	andcc	r3, r0, r0, lsl #3
30003118:	30003028 	andcc	r3, r0, r8, lsr #32
3000311c:	30003028 	andcc	r3, r0, r8, lsr #32
30003120:	30003028 	andcc	r3, r0, r8, lsr #32
30003124:	30003028 	andcc	r3, r0, r8, lsr #32
30003128:	30003168 	andcc	r3, r0, r8, ror #2
3000312c:	e3a03841 	mov	r3, #4259840	; 0x410000
30003130:	e2833c69 	add	r3, r3, #26880	; 0x6900
30003134:	e3a00028 	mov	r0, #40	; 0x28
30003138:	e3a0c001 	mov	ip, #1	; 0x1
3000313c:	e28330e1 	add	r3, r3, #225	; 0xe1
30003140:	e3a01078 	mov	r1, #120	; 0x78
30003144:	e59f207c 	ldr	r2, [pc, #124]	; 300031c8 <.text+0x31c8>
30003148:	e58dc000 	str	ip, [sp]
3000314c:	eb00070c 	bl	30004d84 <PrintFbString8x16>
30003150:	e3a00d4e 	mov	r0, #4992	; 0x1380
30003154:	e2800008 	add	r0, r0, #8	; 0x8
30003158:	ebfffb00 	bl	30001d60 <mDelay>
3000315c:	ebfffec4 	bl	30002c74 <MainPage>
30003160:	e28dd00c 	add	sp, sp, #12	; 0xc
30003164:	e8bd8010 	ldmia	sp!, {r4, pc}
30003168:	eb0010bb 	bl	3000745c <DoWriteSPIFLASH>
3000316c:	e59f0058 	ldr	r0, [pc, #88]	; 300031cc <.text+0x31cc>
30003170:	eaffffa3 	b	30003004 <TestSPI+0x174>
30003174:	eb0010fe 	bl	30007574 <DoEraseSPIFLASH>
30003178:	e59f004c 	ldr	r0, [pc, #76]	; 300031cc <.text+0x31cc>
3000317c:	eaffffa0 	b	30003004 <TestSPI+0x174>
30003180:	eb0010cd 	bl	300074bc <DoReadSPIFLASH>
30003184:	e59f0040 	ldr	r0, [pc, #64]	; 300031cc <.text+0x31cc>
30003188:	eaffff9d 	b	30003004 <TestSPI+0x174>
3000318c:	3000e694 	mulcc	r0, r4, r6
30003190:	3000e6a8 	andcc	lr, r0, r8, lsr #13
30003194:	3000e6c8 	andcc	lr, r0, r8, asr #13
30003198:	3000e2e0 	andcc	lr, r0, r0, ror #5
3000319c:	3000e6f4 	strccd	lr, [r0], -r4
300031a0:	3000e70c 	andcc	lr, r0, ip, lsl #14
300031a4:	3000e728 	andcc	lr, r0, r8, lsr #14
300031a8:	3000e744 	andcc	lr, r0, r4, asr #14
300031ac:	3000e758 	andcc	lr, r0, r8, asr r7
300031b0:	3000e7cc 	andcc	lr, r0, ip, asr #15
300031b4:	3000e7e4 	andcc	lr, r0, r4, ror #15
300031b8:	3000e7fc 	strccd	lr, [r0], -ip
300031bc:	3000e3cc 	andcc	lr, r0, ip, asr #7
300031c0:	3000e3d8 	ldrccd	lr, [r0], -r8
300031c4:	3000ee2c 	andcc	lr, r0, ip, lsr #28
300031c8:	3000e814 	andcc	lr, r0, r4, lsl r8
300031cc:	3000e84c 	andcc	lr, r0, ip, asr #16

300031d0 <NorWriteWord>:
300031d0:	e1a01081 	mov	r1, r1, lsl #1
300031d4:	e18120b0 	strh	r2, [r1, r0]
300031d8:	e1a0f00e 	mov	pc, lr

300031dc <NorCmd>:
300031dc:	e1a02001 	mov	r2, r1
300031e0:	e1a01000 	mov	r1, r0
300031e4:	e3a00000 	mov	r0, #0	; 0x0
300031e8:	eafffff8 	b	300031d0 <NorWriteWord>

300031ec <NorReadWord>:
300031ec:	e1a01081 	mov	r1, r1, lsl #1
300031f0:	e19100b0 	ldrh	r0, [r1, r0]
300031f4:	e1a0f00e 	mov	pc, lr

300031f8 <NorDat>:
300031f8:	e1a01000 	mov	r1, r0
300031fc:	e3a00000 	mov	r0, #0	; 0x0
30003200:	eafffff9 	b	300031ec <NorReadWord>

30003204 <NorWaitReady>:
30003204:	e92d4030 	stmdb	sp!, {r4, r5, lr}
30003208:	e1a050a0 	mov	r5, r0, lsr #1
3000320c:	e1a00005 	mov	r0, r5
30003210:	ebfffff8 	bl	300031f8 <NorDat>
30003214:	e1a04000 	mov	r4, r0
30003218:	e1a00005 	mov	r0, r5
3000321c:	ebfffff5 	bl	300031f8 <NorDat>
30003220:	e2042040 	and	r2, r4, #64	; 0x40
30003224:	e2003040 	and	r3, r0, #64	; 0x40
30003228:	e1530002 	cmp	r3, r2
3000322c:	e1a01000 	mov	r1, r0
30003230:	08bd8030 	ldmeqia	sp!, {r4, r5, pc}
30003234:	e1a00005 	mov	r0, r5
30003238:	e1a04001 	mov	r4, r1
3000323c:	ebffffed 	bl	300031f8 <NorDat>
30003240:	e2042040 	and	r2, r4, #64	; 0x40
30003244:	e2003040 	and	r3, r0, #64	; 0x40
30003248:	e1530002 	cmp	r3, r2
3000324c:	e1a01000 	mov	r1, r0
30003250:	1afffff7 	bne	30003234 <NorWaitReady+0x30>
30003254:	e8bd8030 	ldmia	sp!, {r4, r5, pc}

30003258 <DoScanNorFlash>:
30003258:	e92d4ff0 	stmdb	sp!, {r4, r5, r6, r7, r8, r9, sl, fp, lr}
3000325c:	e3a00e55 	mov	r0, #1360	; 0x550
30003260:	e24dd008 	sub	sp, sp, #8	; 0x8
30003264:	e2800005 	add	r0, r0, #5	; 0x5
30003268:	e3a010aa 	mov	r1, #170	; 0xaa
3000326c:	ebffffda 	bl	300031dc <NorCmd>
30003270:	e3a00faa 	mov	r0, #680	; 0x2a8
30003274:	e2800002 	add	r0, r0, #2	; 0x2
30003278:	e3a01055 	mov	r1, #85	; 0x55
3000327c:	ebffffd6 	bl	300031dc <NorCmd>
30003280:	e3a00e55 	mov	r0, #1360	; 0x550
30003284:	e3a01090 	mov	r1, #144	; 0x90
30003288:	e2800005 	add	r0, r0, #5	; 0x5
3000328c:	ebffffd2 	bl	300031dc <NorCmd>
30003290:	e3a00000 	mov	r0, #0	; 0x0
30003294:	ebffffd7 	bl	300031f8 <NorDat>
30003298:	e1a06000 	mov	r6, r0
3000329c:	e3a00001 	mov	r0, #1	; 0x1
300032a0:	ebffffd4 	bl	300031f8 <NorDat>
300032a4:	e3a010f0 	mov	r1, #240	; 0xf0
300032a8:	e1a05000 	mov	r5, r0
300032ac:	e3a00000 	mov	r0, #0	; 0x0
300032b0:	ebffffc9 	bl	300031dc <NorCmd>
300032b4:	e3a01098 	mov	r1, #152	; 0x98
300032b8:	e3a00055 	mov	r0, #85	; 0x55
300032bc:	ebffffc6 	bl	300031dc <NorCmd>
300032c0:	e3a00010 	mov	r0, #16	; 0x10
300032c4:	ebffffcb 	bl	300031f8 <NorDat>
300032c8:	e5cd0004 	strb	r0, [sp, #4]
300032cc:	e3a00011 	mov	r0, #17	; 0x11
300032d0:	ebffffc8 	bl	300031f8 <NorDat>
300032d4:	e5cd0005 	strb	r0, [sp, #5]
300032d8:	e3a00012 	mov	r0, #18	; 0x12
300032dc:	ebffffc5 	bl	300031f8 <NorDat>
300032e0:	e3a04000 	mov	r4, #0	; 0x0
300032e4:	e28d1004 	add	r1, sp, #4	; 0x4
300032e8:	e5cd0006 	strb	r0, [sp, #6]
300032ec:	e59f011c 	ldr	r0, [pc, #284]	; 30003410 <.text+0x3410>
300032f0:	e5cd4007 	strb	r4, [sp, #7]
300032f4:	ebfff8f6 	bl	300016d4 <printf>
300032f8:	e3a00027 	mov	r0, #39	; 0x27
300032fc:	ebffffbd 	bl	300031f8 <NorDat>
30003300:	e3a0c001 	mov	ip, #1	; 0x1
30003304:	e1a0c01c 	mov	ip, ip, lsl r0
30003308:	e1a01006 	mov	r1, r6
3000330c:	e1a0300c 	mov	r3, ip
30003310:	e1a02005 	mov	r2, r5
30003314:	e1a0ca2c 	mov	ip, ip, lsr #20
30003318:	e59f00f4 	ldr	r0, [pc, #244]	; 30003414 <.text+0x3414>
3000331c:	e58dc000 	str	ip, [sp]
30003320:	ebfff8eb 	bl	300016d4 <printf>
30003324:	e3a0002c 	mov	r0, #44	; 0x2c
30003328:	ebffffb2 	bl	300031f8 <NorDat>
3000332c:	e1a0b000 	mov	fp, r0
30003330:	e59f00e0 	ldr	r0, [pc, #224]	; 30003418 <.text+0x3418>
30003334:	ebfff8e6 	bl	300016d4 <printf>
30003338:	e154000b 	cmp	r4, fp
3000333c:	e1a07004 	mov	r7, r4
30003340:	e1a09004 	mov	r9, r4
30003344:	e3a0a02d 	mov	sl, #45	; 0x2d
30003348:	e1a06004 	mov	r6, r4
3000334c:	aa000025 	bge	300033e8 <DoScanNorFlash+0x190>
30003350:	e1a0000a 	mov	r0, sl
30003354:	ebffffa7 	bl	300031f8 <NorDat>
30003358:	e1a04000 	mov	r4, r0
3000335c:	e28a0001 	add	r0, sl, #1	; 0x1
30003360:	ebffffa4 	bl	300031f8 <NorDat>
30003364:	e0844400 	add	r4, r4, r0, lsl #8
30003368:	e28a0002 	add	r0, sl, #2	; 0x2
3000336c:	ebffffa1 	bl	300031f8 <NorDat>
30003370:	e2848001 	add	r8, r4, #1	; 0x1
30003374:	e1a04000 	mov	r4, r0
30003378:	e28a0003 	add	r0, sl, #3	; 0x3
3000337c:	ebffff9d 	bl	300031f8 <NorDat>
30003380:	e3a05000 	mov	r5, #0	; 0x0
30003384:	e0844400 	add	r4, r4, r0, lsl #8
30003388:	e1550008 	cmp	r5, r8
3000338c:	e1a04404 	mov	r4, r4, lsl #8
30003390:	e28aa004 	add	sl, sl, #4	; 0x4
30003394:	aa000010 	bge	300033dc <DoScanNorFlash+0x184>
30003398:	e1a00007 	mov	r0, r7
3000339c:	ebfff918 	bl	30001804 <printHex>
300033a0:	e3a00020 	mov	r0, #32	; 0x20
300033a4:	ebfff4b2 	bl	30000674 <PutChar>
300033a8:	e59f306c 	ldr	r3, [pc, #108]	; 3000341c <.text+0x341c>
300033ac:	e2866001 	add	r6, r6, #1	; 0x1
300033b0:	e0c12693 	smull	r2, r1, r3, r6
300033b4:	e1a02fc6 	mov	r2, r6, asr #31
300033b8:	e06220c1 	rsb	r2, r2, r1, asr #1
300033bc:	e0822102 	add	r2, r2, r2, lsl #2
300033c0:	e1560002 	cmp	r6, r2
300033c4:	e2855001 	add	r5, r5, #1	; 0x1
300033c8:	e59f0050 	ldr	r0, [pc, #80]	; 30003420 <.text+0x3420>
300033cc:	e0877004 	add	r7, r7, r4
300033d0:	0a00000b 	beq	30003404 <DoScanNorFlash+0x1ac>
300033d4:	e1550008 	cmp	r5, r8
300033d8:	baffffee 	blt	30003398 <DoScanNorFlash+0x140>
300033dc:	e2899001 	add	r9, r9, #1	; 0x1
300033e0:	e159000b 	cmp	r9, fp
300033e4:	baffffd9 	blt	30003350 <DoScanNorFlash+0xf8>
300033e8:	e59f0030 	ldr	r0, [pc, #48]	; 30003420 <.text+0x3420>
300033ec:	ebfff8b8 	bl	300016d4 <printf>
300033f0:	e3a00000 	mov	r0, #0	; 0x0
300033f4:	e3a010f0 	mov	r1, #240	; 0xf0
300033f8:	ebffff77 	bl	300031dc <NorCmd>
300033fc:	e28dd008 	add	sp, sp, #8	; 0x8
30003400:	e8bd8ff0 	ldmia	sp!, {r4, r5, r6, r7, r8, r9, sl, fp, pc}
30003404:	ebfff8b2 	bl	300016d4 <printf>
30003408:	e1550008 	cmp	r5, r8
3000340c:	eafffff1 	b	300033d8 <DoScanNorFlash+0x180>
30003410:	3000e864 	andcc	lr, r0, r4, ror #16
30003414:	3000e870 	andcc	lr, r0, r0, ror r8
30003418:	3000e8ac 	andcc	lr, r0, ip, lsr #17
3000341c:	66666667 	strvsbt	r6, [r6], -r7, ror #12
30003420:	3000efc4 	andcc	lr, r0, r4, asr #31

30003424 <DoEraseNorFlash>:
30003424:	e92d4070 	stmdb	sp!, {r4, r5, r6, lr}
30003428:	e59f0074 	ldr	r0, [pc, #116]	; 300034a4 <.text+0x34a4>
3000342c:	ebfff8a8 	bl	300016d4 <printf>
30003430:	ebfff977 	bl	30001a14 <get_uint>
30003434:	e3a05e55 	mov	r5, #1360	; 0x550
30003438:	e1a04000 	mov	r4, r0
3000343c:	e2855005 	add	r5, r5, #5	; 0x5
30003440:	e59f0060 	ldr	r0, [pc, #96]	; 300034a8 <.text+0x34a8>
30003444:	e3a06faa 	mov	r6, #680	; 0x2a8
30003448:	ebfff8a1 	bl	300016d4 <printf>
3000344c:	e2866002 	add	r6, r6, #2	; 0x2
30003450:	e1a00005 	mov	r0, r5
30003454:	e3a010aa 	mov	r1, #170	; 0xaa
30003458:	ebffff5f 	bl	300031dc <NorCmd>
3000345c:	e1a00006 	mov	r0, r6
30003460:	e3a01055 	mov	r1, #85	; 0x55
30003464:	ebffff5c 	bl	300031dc <NorCmd>
30003468:	e1a00005 	mov	r0, r5
3000346c:	e3a01080 	mov	r1, #128	; 0x80
30003470:	ebffff59 	bl	300031dc <NorCmd>
30003474:	e1a00005 	mov	r0, r5
30003478:	e3a010aa 	mov	r1, #170	; 0xaa
3000347c:	ebffff56 	bl	300031dc <NorCmd>
30003480:	e1a00006 	mov	r0, r6
30003484:	e3a01055 	mov	r1, #85	; 0x55
30003488:	ebffff53 	bl	300031dc <NorCmd>
3000348c:	e1a000a4 	mov	r0, r4, lsr #1
30003490:	e3a01030 	mov	r1, #48	; 0x30
30003494:	ebffff50 	bl	300031dc <NorCmd>
30003498:	e1a00004 	mov	r0, r4
3000349c:	e8bd4070 	ldmia	sp!, {r4, r5, r6, lr}
300034a0:	eaffff57 	b	30003204 <NorWaitReady>
300034a4:	3000e14c 	andcc	lr, r0, ip, asr #2
300034a8:	3000e174 	andcc	lr, r0, r4, ror r1

300034ac <DoWriteNorFlash>:
300034ac:	e92d40f0 	stmdb	sp!, {r4, r5, r6, r7, lr}
300034b0:	e59f0120 	ldr	r0, [pc, #288]	; 300035d8 <.text+0x35d8>
300034b4:	e24dd064 	sub	sp, sp, #100	; 0x64
300034b8:	ebfff885 	bl	300016d4 <printf>
300034bc:	ebfff954 	bl	30001a14 <get_uint>
300034c0:	e1a05000 	mov	r5, r0
300034c4:	e59f0110 	ldr	r0, [pc, #272]	; 300035dc <.text+0x35dc>
300034c8:	ebfff881 	bl	300016d4 <printf>
300034cc:	e1a0000d 	mov	r0, sp
300034d0:	ebfff929 	bl	3000197c <gets>
300034d4:	e59f0104 	ldr	r0, [pc, #260]	; 300035e0 <.text+0x35e0>
300034d8:	ebfff87d 	bl	300016d4 <printf>
300034dc:	e5dd3000 	ldrb	r3, [sp]
300034e0:	e3530000 	cmp	r3, #0	; 0x0
300034e4:	0a000026 	beq	30003584 <DoWriteNorFlash+0xd8>
300034e8:	e5dd3001 	ldrb	r3, [sp, #1]
300034ec:	e3530000 	cmp	r3, #0	; 0x0
300034f0:	0a000023 	beq	30003584 <DoWriteNorFlash+0xd8>
300034f4:	e28d6065 	add	r6, sp, #101	; 0x65
300034f8:	e28d2064 	add	r2, sp, #100	; 0x64
300034fc:	e1a01006 	mov	r1, r6
30003500:	e28d7064 	add	r7, sp, #100	; 0x64
30003504:	e5513064 	ldrb	r3, [r1, #-100]
30003508:	e5522064 	ldrb	r2, [r2, #-100]
3000350c:	e3a00e55 	mov	r0, #1360	; 0x550
30003510:	e2800005 	add	r0, r0, #5	; 0x5
30003514:	e3a010aa 	mov	r1, #170	; 0xaa
30003518:	e0824403 	add	r4, r2, r3, lsl #8
3000351c:	ebffff2e 	bl	300031dc <NorCmd>
30003520:	e3a00faa 	mov	r0, #680	; 0x2a8
30003524:	e2800002 	add	r0, r0, #2	; 0x2
30003528:	e3a01055 	mov	r1, #85	; 0x55
3000352c:	ebffff2a 	bl	300031dc <NorCmd>
30003530:	e3a00e55 	mov	r0, #1360	; 0x550
30003534:	e2800005 	add	r0, r0, #5	; 0x5
30003538:	e3a010a0 	mov	r1, #160	; 0xa0
3000353c:	ebffff26 	bl	300031dc <NorCmd>
30003540:	e1a01004 	mov	r1, r4
30003544:	e1a000a5 	mov	r0, r5, lsr #1
30003548:	ebffff23 	bl	300031dc <NorCmd>
3000354c:	e2877002 	add	r7, r7, #2	; 0x2
30003550:	e1a00005 	mov	r0, r5
30003554:	ebffff2a 	bl	30003204 <NorWaitReady>
30003558:	e5573064 	ldrb	r3, [r7, #-100]
3000355c:	e2866002 	add	r6, r6, #2	; 0x2
30003560:	e3530000 	cmp	r3, #0	; 0x0
30003564:	e1a02007 	mov	r2, r7
30003568:	e1a01006 	mov	r1, r6
3000356c:	e2855002 	add	r5, r5, #2	; 0x2
30003570:	0a000004 	beq	30003588 <DoWriteNorFlash+0xdc>
30003574:	e5563064 	ldrb	r3, [r6, #-100]
30003578:	e3530000 	cmp	r3, #0	; 0x0
3000357c:	1affffe0 	bne	30003504 <DoWriteNorFlash+0x58>
30003580:	ea000000 	b	30003588 <DoWriteNorFlash+0xdc>
30003584:	e28d2064 	add	r2, sp, #100	; 0x64
30003588:	e3a00e55 	mov	r0, #1360	; 0x550
3000358c:	e2800005 	add	r0, r0, #5	; 0x5
30003590:	e3a010aa 	mov	r1, #170	; 0xaa
30003594:	e5524064 	ldrb	r4, [r2, #-100]
30003598:	ebffff0f 	bl	300031dc <NorCmd>
3000359c:	e3a00faa 	mov	r0, #680	; 0x2a8
300035a0:	e2800002 	add	r0, r0, #2	; 0x2
300035a4:	e3a01055 	mov	r1, #85	; 0x55
300035a8:	ebffff0b 	bl	300031dc <NorCmd>
300035ac:	e3a00e55 	mov	r0, #1360	; 0x550
300035b0:	e2800005 	add	r0, r0, #5	; 0x5
300035b4:	e3a010a0 	mov	r1, #160	; 0xa0
300035b8:	ebffff07 	bl	300031dc <NorCmd>
300035bc:	e1a000a5 	mov	r0, r5, lsr #1
300035c0:	e1a01004 	mov	r1, r4
300035c4:	ebffff04 	bl	300031dc <NorCmd>
300035c8:	e1a00005 	mov	r0, r5
300035cc:	ebffff0c 	bl	30003204 <NorWaitReady>
300035d0:	e28dd064 	add	sp, sp, #100	; 0x64
300035d4:	e8bd80f0 	ldmia	sp!, {r4, r5, r6, r7, pc}
300035d8:	3000e184 	andcc	lr, r0, r4, lsl #3
300035dc:	3000e1ac 	andcc	lr, r0, ip, lsr #3
300035e0:	3000e1c8 	andcc	lr, r0, r8, asr #3

300035e4 <DoReadNorFlash>:
300035e4:	e92d40f0 	stmdb	sp!, {r4, r5, r6, r7, lr}
300035e8:	e59f008c 	ldr	r0, [pc, #140]	; 3000367c <.text+0x367c>
300035ec:	e24dd010 	sub	sp, sp, #16	; 0x10
300035f0:	ebfff837 	bl	300016d4 <printf>
300035f4:	ebfff906 	bl	30001a14 <get_uint>
300035f8:	e1a06000 	mov	r6, r0
300035fc:	e59f007c 	ldr	r0, [pc, #124]	; 30003680 <.text+0x3680>
30003600:	ebfff833 	bl	300016d4 <printf>
30003604:	e3a07000 	mov	r7, #0	; 0x0
30003608:	e1a0500d 	mov	r5, sp
3000360c:	e3a0400f 	mov	r4, #15	; 0xf
30003610:	e4d63001 	ldrb	r3, [r6], #1
30003614:	e20330ff 	and	r3, r3, #255	; 0xff
30003618:	e1a01003 	mov	r1, r3
3000361c:	e59f0060 	ldr	r0, [pc, #96]	; 30003684 <.text+0x3684>
30003620:	e4c53001 	strb	r3, [r5], #1
30003624:	ebfff82a 	bl	300016d4 <printf>
30003628:	e2544001 	subs	r4, r4, #1	; 0x1
3000362c:	5afffff7 	bpl	30003610 <DoReadNorFlash+0x2c>
30003630:	e59f0050 	ldr	r0, [pc, #80]	; 30003688 <.text+0x3688>
30003634:	ebfff826 	bl	300016d4 <printf>
30003638:	e1a0500d 	mov	r5, sp
3000363c:	e3a0400f 	mov	r4, #15	; 0xf
30003640:	e4d52001 	ldrb	r2, [r5], #1
30003644:	e2423020 	sub	r3, r2, #32	; 0x20
30003648:	e353005e 	cmp	r3, #94	; 0x5e
3000364c:	e3a0002e 	mov	r0, #46	; 0x2e
30003650:	91a00002 	movls	r0, r2
30003654:	ebfff406 	bl	30000674 <PutChar>
30003658:	e2544001 	subs	r4, r4, #1	; 0x1
3000365c:	5afffff7 	bpl	30003640 <DoReadNorFlash+0x5c>
30003660:	e2877001 	add	r7, r7, #1	; 0x1
30003664:	e59f0020 	ldr	r0, [pc, #32]	; 3000368c <.text+0x368c>
30003668:	ebfff819 	bl	300016d4 <printf>
3000366c:	e3570003 	cmp	r7, #3	; 0x3
30003670:	daffffe4 	ble	30003608 <DoReadNorFlash+0x24>
30003674:	e28dd010 	add	sp, sp, #16	; 0x10
30003678:	e8bd80f0 	ldmia	sp!, {r4, r5, r6, r7, pc}
3000367c:	3000e114 	andcc	lr, r0, r4, lsl r1
30003680:	3000e130 	andcc	lr, r0, r0, lsr r1
30003684:	3000e13c 	andcc	lr, r0, ip, lsr r1
30003688:	3000e144 	andcc	lr, r0, r4, asr #2
3000368c:	3000efc4 	andcc	lr, r0, r4, asr #31

30003690 <TestNorFlash>:
30003690:	e92d45f0 	stmdb	sp!, {r4, r5, r6, r7, r8, sl, lr}
30003694:	e3e004ff 	mvn	r0, #-16777216	; 0xff000000
30003698:	e24dd028 	sub	sp, sp, #40	; 0x28
3000369c:	eb0003e4 	bl	30004634 <ClearScreen>
300036a0:	e3a038e3 	mov	r3, #14876672	; 0xe30000
300036a4:	e2833c17 	add	r3, r3, #5888	; 0x1700
300036a8:	e3a04000 	mov	r4, #0	; 0x0
300036ac:	e283300d 	add	r3, r3, #13	; 0xd
300036b0:	e59f2410 	ldr	r2, [pc, #1040]	; 30003ac8 <.text+0x3ac8>
300036b4:	e3a000b0 	mov	r0, #176	; 0xb0
300036b8:	e3a01005 	mov	r1, #5	; 0x5
300036bc:	e58d4000 	str	r4, [sp]
300036c0:	eb0005d6 	bl	30004e20 <PrintFbString16x32>
300036c4:	ebfffc97 	bl	30002928 <DisplayReturnButton>
300036c8:	e3a00e55 	mov	r0, #1360	; 0x550
300036cc:	e2800005 	add	r0, r0, #5	; 0x5
300036d0:	e3a010aa 	mov	r1, #170	; 0xaa
300036d4:	ebfffec0 	bl	300031dc <NorCmd>
300036d8:	e3a00faa 	mov	r0, #680	; 0x2a8
300036dc:	e2800002 	add	r0, r0, #2	; 0x2
300036e0:	e3a01055 	mov	r1, #85	; 0x55
300036e4:	ebfffebc 	bl	300031dc <NorCmd>
300036e8:	e3a00e55 	mov	r0, #1360	; 0x550
300036ec:	e3a01090 	mov	r1, #144	; 0x90
300036f0:	e2800005 	add	r0, r0, #5	; 0x5
300036f4:	ebfffeb8 	bl	300031dc <NorCmd>
300036f8:	e1a00004 	mov	r0, r4
300036fc:	ebfffebd 	bl	300031f8 <NorDat>
30003700:	e1a07000 	mov	r7, r0
30003704:	e3a00001 	mov	r0, #1	; 0x1
30003708:	ebfffeba 	bl	300031f8 <NorDat>
3000370c:	e3a010f0 	mov	r1, #240	; 0xf0
30003710:	e1a08000 	mov	r8, r0
30003714:	e1a00004 	mov	r0, r4
30003718:	ebfffeaf 	bl	300031dc <NorCmd>
3000371c:	e3a01098 	mov	r1, #152	; 0x98
30003720:	e3a00055 	mov	r0, #85	; 0x55
30003724:	ebfffeac 	bl	300031dc <NorCmd>
30003728:	e3a00027 	mov	r0, #39	; 0x27
3000372c:	ebfffeb1 	bl	300031f8 <NorDat>
30003730:	e3a06001 	mov	r6, #1	; 0x1
30003734:	e1a06016 	mov	r6, r6, lsl r0
30003738:	e3a010f0 	mov	r1, #240	; 0xf0
3000373c:	e1a00004 	mov	r0, r4
30003740:	e28d5004 	add	r5, sp, #4	; 0x4
30003744:	ebfffea4 	bl	300031dc <NorCmd>
30003748:	e1a0aa26 	mov	sl, r6, lsr #20
3000374c:	e1a03006 	mov	r3, r6
30003750:	e1a01007 	mov	r1, r7
30003754:	e1a02008 	mov	r2, r8
30003758:	e59f036c 	ldr	r0, [pc, #876]	; 30003acc <.text+0x3acc>
3000375c:	e58da000 	str	sl, [sp]
30003760:	ebfff7db 	bl	300016d4 <printf>
30003764:	e1a01007 	mov	r1, r7
30003768:	e1a00005 	mov	r0, r5
3000376c:	e3a02010 	mov	r2, #16	; 0x10
30003770:	ebfff5e7 	bl	30000f14 <Convert>
30003774:	e3a00014 	mov	r0, #20	; 0x14
30003778:	e3a01046 	mov	r1, #70	; 0x46
3000377c:	e59f234c 	ldr	r2, [pc, #844]	; 30003ad0 <.text+0x3ad0>
30003780:	e1a03004 	mov	r3, r4
30003784:	e58d4000 	str	r4, [sp]
30003788:	eb00057d 	bl	30004d84 <PrintFbString8x16>
3000378c:	e1a03004 	mov	r3, r4
30003790:	e3a00094 	mov	r0, #148	; 0x94
30003794:	e3a01046 	mov	r1, #70	; 0x46
30003798:	e1a02005 	mov	r2, r5
3000379c:	e58d4000 	str	r4, [sp]
300037a0:	eb000577 	bl	30004d84 <PrintFbString8x16>
300037a4:	e1a00005 	mov	r0, r5
300037a8:	e1a01008 	mov	r1, r8
300037ac:	e3a02010 	mov	r2, #16	; 0x10
300037b0:	ebfff5d7 	bl	30000f14 <Convert>
300037b4:	e3a00014 	mov	r0, #20	; 0x14
300037b8:	e3a0105a 	mov	r1, #90	; 0x5a
300037bc:	e59f2310 	ldr	r2, [pc, #784]	; 30003ad4 <.text+0x3ad4>
300037c0:	e1a03004 	mov	r3, r4
300037c4:	e58d4000 	str	r4, [sp]
300037c8:	eb00056d 	bl	30004d84 <PrintFbString8x16>
300037cc:	e1a03004 	mov	r3, r4
300037d0:	e3a00094 	mov	r0, #148	; 0x94
300037d4:	e3a0105a 	mov	r1, #90	; 0x5a
300037d8:	e1a02005 	mov	r2, r5
300037dc:	e58d4000 	str	r4, [sp]
300037e0:	eb000567 	bl	30004d84 <PrintFbString8x16>
300037e4:	e1a00005 	mov	r0, r5
300037e8:	e1a01006 	mov	r1, r6
300037ec:	e3a02010 	mov	r2, #16	; 0x10
300037f0:	ebfff5c7 	bl	30000f14 <Convert>
300037f4:	e3a00014 	mov	r0, #20	; 0x14
300037f8:	e3a0106e 	mov	r1, #110	; 0x6e
300037fc:	e59f22d4 	ldr	r2, [pc, #724]	; 30003ad8 <.text+0x3ad8>
30003800:	e1a03004 	mov	r3, r4
30003804:	e58d4000 	str	r4, [sp]
30003808:	eb00055d 	bl	30004d84 <PrintFbString8x16>
3000380c:	e3a00094 	mov	r0, #148	; 0x94
30003810:	e3a0106e 	mov	r1, #110	; 0x6e
30003814:	e1a02005 	mov	r2, r5
30003818:	e1a03004 	mov	r3, r4
3000381c:	e58d4000 	str	r4, [sp]
30003820:	eb000557 	bl	30004d84 <PrintFbString8x16>
30003824:	e1a03004 	mov	r3, r4
30003828:	e3a000d4 	mov	r0, #212	; 0xd4
3000382c:	e3a0106e 	mov	r1, #110	; 0x6e
30003830:	e59f22a4 	ldr	r2, [pc, #676]	; 30003adc <.text+0x3adc>
30003834:	e58d4000 	str	r4, [sp]
30003838:	eb000551 	bl	30004d84 <PrintFbString8x16>
3000383c:	e1a00005 	mov	r0, r5
30003840:	e1a0100a 	mov	r1, sl
30003844:	e3a0200a 	mov	r2, #10	; 0xa
30003848:	ebfff5b1 	bl	30000f14 <Convert>
3000384c:	e3a00014 	mov	r0, #20	; 0x14
30003850:	e3a01082 	mov	r1, #130	; 0x82
30003854:	e59f2284 	ldr	r2, [pc, #644]	; 30003ae0 <.text+0x3ae0>
30003858:	e1a03004 	mov	r3, r4
3000385c:	e58d4000 	str	r4, [sp]
30003860:	eb000547 	bl	30004d84 <PrintFbString8x16>
30003864:	e1a02005 	mov	r2, r5
30003868:	e3a00094 	mov	r0, #148	; 0x94
3000386c:	e3a01082 	mov	r1, #130	; 0x82
30003870:	e1a03004 	mov	r3, r4
30003874:	e58d4000 	str	r4, [sp]
30003878:	eb000541 	bl	30004d84 <PrintFbString8x16>
3000387c:	e3a000d2 	mov	r0, #210	; 0xd2
30003880:	e3a01082 	mov	r1, #130	; 0x82
30003884:	e59f2258 	ldr	r2, [pc, #600]	; 30003ae4 <.text+0x3ae4>
30003888:	e1a03004 	mov	r3, r4
3000388c:	e58d4000 	str	r4, [sp]
30003890:	eb00053b 	bl	30004d84 <PrintFbString8x16>
30003894:	e3a00028 	mov	r0, #40	; 0x28
30003898:	e3a010f0 	mov	r1, #240	; 0xf0
3000389c:	e59f2244 	ldr	r2, [pc, #580]	; 30003ae8 <.text+0x3ae8>
300038a0:	e3a038ff 	mov	r3, #16711680	; 0xff0000
300038a4:	e58d4000 	str	r4, [sp]
300038a8:	eb000535 	bl	30004d84 <PrintFbString8x16>
300038ac:	e3a03ab1 	mov	r3, #724992	; 0xb1000
300038b0:	e2833d1d 	add	r3, r3, #1856	; 0x740
300038b4:	e2833006 	add	r3, r3, #6	; 0x6
300038b8:	e3a00e12 	mov	r0, #288	; 0x120
300038bc:	e3a01028 	mov	r1, #40	; 0x28
300038c0:	e59f2224 	ldr	r2, [pc, #548]	; 30003aec <.text+0x3aec>
300038c4:	e58d4000 	str	r4, [sp]
300038c8:	eb000554 	bl	30004e20 <PrintFbString16x32>
300038cc:	e3a03841 	mov	r3, #4259840	; 0x410000
300038d0:	e2833c69 	add	r3, r3, #26880	; 0x6900
300038d4:	e28330e1 	add	r3, r3, #225	; 0xe1
300038d8:	e3a00d05 	mov	r0, #320	; 0x140
300038dc:	e3a01055 	mov	r1, #85	; 0x55
300038e0:	e59f2208 	ldr	r2, [pc, #520]	; 30003af0 <.text+0x3af0>
300038e4:	e58d4000 	str	r4, [sp]
300038e8:	eb000525 	bl	30004d84 <PrintFbString8x16>
300038ec:	e3a03841 	mov	r3, #4259840	; 0x410000
300038f0:	e2833c69 	add	r3, r3, #26880	; 0x6900
300038f4:	e28330e1 	add	r3, r3, #225	; 0xe1
300038f8:	e3a00e12 	mov	r0, #288	; 0x120
300038fc:	e3a0106e 	mov	r1, #110	; 0x6e
30003900:	e59f21ec 	ldr	r2, [pc, #492]	; 30003af4 <.text+0x3af4>
30003904:	e58d4000 	str	r4, [sp]
30003908:	eb00051d 	bl	30004d84 <PrintFbString8x16>
3000390c:	e3a03841 	mov	r3, #4259840	; 0x410000
30003910:	e2833c69 	add	r3, r3, #26880	; 0x6900
30003914:	e28330e1 	add	r3, r3, #225	; 0xe1
30003918:	e3a00e12 	mov	r0, #288	; 0x120
3000391c:	e3a01082 	mov	r1, #130	; 0x82
30003920:	e59f21d0 	ldr	r2, [pc, #464]	; 30003af8 <.text+0x3af8>
30003924:	e58d4000 	str	r4, [sp]
30003928:	eb000515 	bl	30004d84 <PrintFbString8x16>
3000392c:	e3a03841 	mov	r3, #4259840	; 0x410000
30003930:	e2833c69 	add	r3, r3, #26880	; 0x6900
30003934:	e28330e1 	add	r3, r3, #225	; 0xe1
30003938:	e3a0109b 	mov	r1, #155	; 0x9b
3000393c:	e59f21b8 	ldr	r2, [pc, #440]	; 30003afc <.text+0x3afc>
30003940:	e3a00e12 	mov	r0, #288	; 0x120
30003944:	e58d4000 	str	r4, [sp]
30003948:	eb00050d 	bl	30004d84 <PrintFbString8x16>
3000394c:	e59f01ac 	ldr	r0, [pc, #428]	; 30003b00 <.text+0x3b00>
30003950:	ebfff75f 	bl	300016d4 <printf>
30003954:	e59f01a8 	ldr	r0, [pc, #424]	; 30003b04 <.text+0x3b04>
30003958:	ebfff75d 	bl	300016d4 <printf>
3000395c:	e59f01a4 	ldr	r0, [pc, #420]	; 30003b08 <.text+0x3b08>
30003960:	ebfff75b 	bl	300016d4 <printf>
30003964:	e59f01a0 	ldr	r0, [pc, #416]	; 30003b0c <.text+0x3b0c>
30003968:	ebfff759 	bl	300016d4 <printf>
3000396c:	e59f019c 	ldr	r0, [pc, #412]	; 30003b10 <.text+0x3b10>
30003970:	ebfff757 	bl	300016d4 <printf>
30003974:	e59f0198 	ldr	r0, [pc, #408]	; 30003b14 <.text+0x3b14>
30003978:	ebfff755 	bl	300016d4 <printf>
3000397c:	e59f0194 	ldr	r0, [pc, #404]	; 30003b18 <.text+0x3b18>
30003980:	ebfff753 	bl	300016d4 <printf>
30003984:	e59f0190 	ldr	r0, [pc, #400]	; 30003b1c <.text+0x3b1c>
30003988:	ebfff751 	bl	300016d4 <printf>
3000398c:	ebfff9c4 	bl	300020a4 <isClickReturn>
30003990:	e3500000 	cmp	r0, #0	; 0x0
30003994:	1a00003d 	bne	30003a90 <.text+0x3a90>
30003998:	ebfff33c 	bl	30000690 <GetChar>
3000399c:	e20040ff 	and	r4, r0, #255	; 0xff
300039a0:	e1a01004 	mov	r1, r4
300039a4:	e59f0174 	ldr	r0, [pc, #372]	; 30003b20 <.text+0x3b20>
300039a8:	ebfff749 	bl	300016d4 <printf>
300039ac:	e3540000 	cmp	r4, #0	; 0x0
300039b0:	e2444045 	sub	r4, r4, #69	; 0x45
300039b4:	0a000036 	beq	30003a94 <.text+0x3a94>
300039b8:	e3540032 	cmp	r4, #50	; 0x32
300039bc:	979ff104 	ldrls	pc, [pc, r4, lsl #2]
300039c0:	eafffff1 	b	3000398c <TestNorFlash+0x2fc>
300039c4:	30003ab8 	strcch	r3, [r0], -r8
300039c8:	3000398c 	andcc	r3, r0, ip, lsl #19
300039cc:	3000398c 	andcc	r3, r0, ip, lsl #19
300039d0:	3000398c 	andcc	r3, r0, ip, lsl #19
300039d4:	3000398c 	andcc	r3, r0, ip, lsl #19
300039d8:	3000398c 	andcc	r3, r0, ip, lsl #19
300039dc:	3000398c 	andcc	r3, r0, ip, lsl #19
300039e0:	3000398c 	andcc	r3, r0, ip, lsl #19
300039e4:	3000398c 	andcc	r3, r0, ip, lsl #19
300039e8:	3000398c 	andcc	r3, r0, ip, lsl #19
300039ec:	3000398c 	andcc	r3, r0, ip, lsl #19
300039f0:	3000398c 	andcc	r3, r0, ip, lsl #19
300039f4:	30003a90 	mulcc	r0, r0, sl
300039f8:	30003ac0 	andcc	r3, r0, r0, asr #21
300039fc:	30003ab0 	strcch	r3, [r0], -r0
30003a00:	3000398c 	andcc	r3, r0, ip, lsl #19
30003a04:	3000398c 	andcc	r3, r0, ip, lsl #19
30003a08:	3000398c 	andcc	r3, r0, ip, lsl #19
30003a0c:	30003a9c 	mulcc	r0, ip, sl
30003a10:	3000398c 	andcc	r3, r0, ip, lsl #19
30003a14:	3000398c 	andcc	r3, r0, ip, lsl #19
30003a18:	3000398c 	andcc	r3, r0, ip, lsl #19
30003a1c:	3000398c 	andcc	r3, r0, ip, lsl #19
30003a20:	3000398c 	andcc	r3, r0, ip, lsl #19
30003a24:	3000398c 	andcc	r3, r0, ip, lsl #19
30003a28:	3000398c 	andcc	r3, r0, ip, lsl #19
30003a2c:	3000398c 	andcc	r3, r0, ip, lsl #19
30003a30:	3000398c 	andcc	r3, r0, ip, lsl #19
30003a34:	3000398c 	andcc	r3, r0, ip, lsl #19
30003a38:	3000398c 	andcc	r3, r0, ip, lsl #19
30003a3c:	3000398c 	andcc	r3, r0, ip, lsl #19
30003a40:	3000398c 	andcc	r3, r0, ip, lsl #19
30003a44:	30003ab8 	strcch	r3, [r0], -r8
30003a48:	3000398c 	andcc	r3, r0, ip, lsl #19
30003a4c:	3000398c 	andcc	r3, r0, ip, lsl #19
30003a50:	3000398c 	andcc	r3, r0, ip, lsl #19
30003a54:	3000398c 	andcc	r3, r0, ip, lsl #19
30003a58:	3000398c 	andcc	r3, r0, ip, lsl #19
30003a5c:	3000398c 	andcc	r3, r0, ip, lsl #19
30003a60:	3000398c 	andcc	r3, r0, ip, lsl #19
30003a64:	3000398c 	andcc	r3, r0, ip, lsl #19
30003a68:	3000398c 	andcc	r3, r0, ip, lsl #19
30003a6c:	3000398c 	andcc	r3, r0, ip, lsl #19
30003a70:	3000398c 	andcc	r3, r0, ip, lsl #19
30003a74:	30003a90 	mulcc	r0, r0, sl
30003a78:	30003ac0 	andcc	r3, r0, r0, asr #21
30003a7c:	30003ab0 	strcch	r3, [r0], -r0
30003a80:	3000398c 	andcc	r3, r0, ip, lsl #19
30003a84:	3000398c 	andcc	r3, r0, ip, lsl #19
30003a88:	3000398c 	andcc	r3, r0, ip, lsl #19
30003a8c:	30003a9c 	mulcc	r0, ip, sl
30003a90:	ebfffc77 	bl	30002c74 <MainPage>
30003a94:	e28dd028 	add	sp, sp, #40	; 0x28
30003a98:	e8bd85f0 	ldmia	sp!, {r4, r5, r6, r7, r8, sl, pc}
30003a9c:	ebfffe82 	bl	300034ac <DoWriteNorFlash>
30003aa0:	e59f0058 	ldr	r0, [pc, #88]	; 30003b00 <.text+0x3b00>
30003aa4:	ebfff70a 	bl	300016d4 <printf>
30003aa8:	e59f0074 	ldr	r0, [pc, #116]	; 30003b24 <.text+0x3b24>
30003aac:	eaffffa9 	b	30003958 <TestNorFlash+0x2c8>
30003ab0:	ebfffde8 	bl	30003258 <DoScanNorFlash>
30003ab4:	eaffffa4 	b	3000394c <TestNorFlash+0x2bc>
30003ab8:	ebfffe59 	bl	30003424 <DoEraseNorFlash>
30003abc:	eafffff7 	b	30003aa0 <.text+0x3aa0>
30003ac0:	ebfffec7 	bl	300035e4 <DoReadNorFlash>
30003ac4:	eafffff5 	b	30003aa0 <.text+0x3aa0>
30003ac8:	3000e8cc 	andcc	lr, r0, ip, asr #17
30003acc:	3000e870 	andcc	lr, r0, r0, ror r8
30003ad0:	3000e8d8 	ldrccd	lr, [r0], -r8
30003ad4:	3000e8ec 	andcc	lr, r0, ip, ror #17
30003ad8:	3000e900 	andcc	lr, r0, r0, lsl #18
30003adc:	3000e914 	andcc	lr, r0, r4, lsl r9
30003ae0:	3000e91c 	andcc	lr, r0, ip, lsl r9
30003ae4:	3000e930 	andcc	lr, r0, r0, lsr r9
30003ae8:	3000e934 	andcc	lr, r0, r4, lsr r9
30003aec:	3000e2e0 	andcc	lr, r0, r0, ror #5
30003af0:	3000e2e8 	andcc	lr, r0, r8, ror #5
30003af4:	3000e300 	andcc	lr, r0, r0, lsl #6
30003af8:	3000e31c 	andcc	lr, r0, ip, lsl r3
30003afc:	3000e338 	andcc	lr, r0, r8, lsr r3
30003b00:	3000efc4 	andcc	lr, r0, r4, asr #31
30003b04:	3000e9a8 	andcc	lr, r0, r8, lsr #19
30003b08:	3000e9c0 	andcc	lr, r0, r0, asr #19
30003b0c:	3000e9d8 	ldrccd	lr, [r0], -r8
30003b10:	3000e9f0 	strccd	lr, [r0], -r0
30003b14:	3000ea08 	andcc	lr, r0, r8, lsl #20
30003b18:	3000e3cc 	andcc	lr, r0, ip, asr #7
30003b1c:	3000e3d8 	ldrccd	lr, [r0], -r8
30003b20:	3000ee2c 	andcc	lr, r0, ip, lsr #28
30003b24:	3000ea20 	andcc	lr, r0, r0, lsr #20

30003b28 <RegisterLcdController>:
30003b28:	e59f1030 	ldr	r1, [pc, #48]	; 30003b60 <.text+0x3b60>
30003b2c:	e1a0c000 	mov	ip, r0
30003b30:	e3a02000 	mov	r2, #0	; 0x0
30003b34:	e7913102 	ldr	r3, [r1, r2, lsl #2]
30003b38:	e3530000 	cmp	r3, #0	; 0x0
30003b3c:	0a000004 	beq	30003b54 <RegisterLcdController+0x2c>
30003b40:	e2822001 	add	r2, r2, #1	; 0x1
30003b44:	e3520009 	cmp	r2, #9	; 0x9
30003b48:	dafffff9 	ble	30003b34 <RegisterLcdController+0xc>
30003b4c:	e3e00000 	mvn	r0, #0	; 0x0
30003b50:	e1a0f00e 	mov	pc, lr
30003b54:	e1a00002 	mov	r0, r2
30003b58:	e781c102 	str	ip, [r1, r2, lsl #2]
30003b5c:	e1a0f00e 	mov	pc, lr
30003b60:	3000f4c4 	andcc	pc, r0, r4, asr #9

30003b64 <SelectLcdController>:
30003b64:	e92d40f0 	stmdb	sp!, {r4, r5, r6, r7, lr}
30003b68:	e59f7048 	ldr	r7, [pc, #72]	; 30003bb8 <.text+0x3bb8>
30003b6c:	e1a06000 	mov	r6, r0
30003b70:	e3a05000 	mov	r5, #0	; 0x0
30003b74:	e7974105 	ldr	r4, [r7, r5, lsl #2]
30003b78:	e3540000 	cmp	r4, #0	; 0x0
30003b7c:	e1a01006 	mov	r1, r6
30003b80:	0a000003 	beq	30003b94 <SelectLcdController+0x30>
30003b84:	e5940000 	ldr	r0, [r4]
30003b88:	ebfff7b5 	bl	30001a64 <strcmp>
30003b8c:	e3500000 	cmp	r0, #0	; 0x0
30003b90:	0a000004 	beq	30003ba8 <SelectLcdController+0x44>
30003b94:	e2855001 	add	r5, r5, #1	; 0x1
30003b98:	e3550009 	cmp	r5, #9	; 0x9
30003b9c:	dafffff4 	ble	30003b74 <SelectLcdController+0x10>
30003ba0:	e3e00000 	mvn	r0, #0	; 0x0
30003ba4:	e8bd80f0 	ldmia	sp!, {r4, r5, r6, r7, pc}
30003ba8:	e59f300c 	ldr	r3, [pc, #12]	; 30003bbc <.text+0x3bbc>
30003bac:	e1a00005 	mov	r0, r5
30003bb0:	e5834000 	str	r4, [r3]
30003bb4:	e8bd80f0 	ldmia	sp!, {r4, r5, r6, r7, pc}
30003bb8:	3000f4c4 	andcc	pc, r0, r4, asr #9
30003bbc:	3000f4ec 	andcc	pc, r0, ip, ror #9

30003bc0 <InitLcdController>:
30003bc0:	e52de004 	str	lr, [sp, #-4]!
30003bc4:	e59f301c 	ldr	r3, [pc, #28]	; 30003be8 <.text+0x3be8>
30003bc8:	e5933000 	ldr	r3, [r3]
30003bcc:	e3530000 	cmp	r3, #0	; 0x0
30003bd0:	03e00000 	mvneq	r0, #0	; 0x0
30003bd4:	049df004 	ldreq	pc, [sp], #4
30003bd8:	e1a0e00f 	mov	lr, pc
30003bdc:	e593f004 	ldr	pc, [r3, #4]
30003be0:	e3a00000 	mov	r0, #0	; 0x0
30003be4:	e49df004 	ldr	pc, [sp], #4
30003be8:	3000f4ec 	andcc	pc, r0, ip, ror #9

30003bec <EnableLcdController>:
30003bec:	e52de004 	str	lr, [sp, #-4]!
30003bf0:	e59f3014 	ldr	r3, [pc, #20]	; 30003c0c <.text+0x3c0c>
30003bf4:	e5933000 	ldr	r3, [r3]
30003bf8:	e3530000 	cmp	r3, #0	; 0x0
30003bfc:	049df004 	ldreq	pc, [sp], #4
30003c00:	e1a0e00f 	mov	lr, pc
30003c04:	e593f008 	ldr	pc, [r3, #8]
30003c08:	e49df004 	ldr	pc, [sp], #4
30003c0c:	3000f4ec 	andcc	pc, r0, ip, ror #9

30003c10 <DisableLcdController>:
30003c10:	e52de004 	str	lr, [sp, #-4]!
30003c14:	e59f3014 	ldr	r3, [pc, #20]	; 30003c30 <.text+0x3c30>
30003c18:	e5933000 	ldr	r3, [r3]
30003c1c:	e3530000 	cmp	r3, #0	; 0x0
30003c20:	049df004 	ldreq	pc, [sp], #4
30003c24:	e1a0e00f 	mov	lr, pc
30003c28:	e593f00c 	ldr	pc, [r3, #12]
30003c2c:	e49df004 	ldr	pc, [sp], #4
30003c30:	3000f4ec 	andcc	pc, r0, ip, ror #9

30003c34 <AddLcdContollerS3c2440>:
30003c34:	ea0000a2 	b	30003ec4 <AddS3c2440LcdContoller>

30003c38 <InitJz2440LcdPin_>:
30003c38:	e3a01456 	mov	r1, #1442840576	; 0x56000000
30003c3c:	e5913010 	ldr	r3, [r1, #16]
30003c40:	e3c33003 	bic	r3, r3, #3	; 0x3
30003c44:	e5813010 	str	r3, [r1, #16]
30003c48:	e3a02caa 	mov	r2, #43520	; 0xaa00
30003c4c:	e5913010 	ldr	r3, [r1, #16]
30003c50:	e28220aa 	add	r2, r2, #170	; 0xaa
30003c54:	e1822802 	orr	r2, r2, r2, lsl #16
30003c58:	e3833001 	orr	r3, r3, #1	; 0x1
30003c5c:	e5813010 	str	r3, [r1, #16]
30003c60:	e5812020 	str	r2, [r1, #32]
30003c64:	e5812030 	str	r2, [r1, #48]
30003c68:	e5913060 	ldr	r3, [r1, #96]
30003c6c:	e3833c03 	orr	r3, r3, #768	; 0x300
30003c70:	e5813060 	str	r3, [r1, #96]
30003c74:	e1a0f00e 	mov	pc, lr

30003c78 <InitS3c2440LcdController_>:
30003c78:	e92d4010 	stmdb	sp!, {r4, lr}
30003c7c:	e1a04000 	mov	r4, r0
30003c80:	ebffffec 	bl	30003c38 <InitJz2440LcdPin_>
30003c84:	e5940034 	ldr	r0, [r4, #52]
30003c88:	eb0015ce 	bl	300093c8 <__floatsidf>
30003c8c:	e1a03001 	mov	r3, r1
30003c90:	e1a02000 	mov	r2, r0
30003c94:	e28f0f5a 	add	r0, pc, #360	; 0x168
30003c98:	e8900003 	ldmia	r0, {r0, r1}
30003c9c:	eb0016ac 	bl	30009754 <__divdf3>
30003ca0:	e28f2f59 	add	r2, pc, #356	; 0x164
30003ca4:	e892000c 	ldmia	r2, {r2, r3}
30003ca8:	eb0015e4 	bl	30009440 <__muldf3>
30003cac:	e28f2e16 	add	r2, pc, #352	; 0x160
30003cb0:	e892000c 	ldmia	r2, {r2, r3}
30003cb4:	eb0014ff 	bl	300090b8 <__subdf3>
30003cb8:	e28f2f53 	add	r2, pc, #332	; 0x14c
30003cbc:	e892000c 	ldmia	r2, {r2, r3}
30003cc0:	eb0014fd 	bl	300090bc <__adddf3>
30003cc4:	eb00173d 	bl	300099c0 <__fixdfsi>
30003cc8:	e5942040 	ldr	r2, [r4, #64]
30003ccc:	e3520008 	cmp	r2, #8	; 0x8
30003cd0:	03a0200b 	moveq	r2, #11	; 0xb
30003cd4:	0a000002 	beq	30003ce4 <InitS3c2440LcdController_+0x6c>
30003cd8:	e3520010 	cmp	r2, #16	; 0x10
30003cdc:	13a0200d 	movne	r2, #13	; 0xd
30003ce0:	03a0200c 	moveq	r2, #12	; 0xc
30003ce4:	e1a02082 	mov	r2, r2, lsl #1
30003ce8:	e1822400 	orr	r2, r2, r0, lsl #8
30003cec:	e3a0c44d 	mov	ip, #1291845632	; 0x4d000000
30003cf0:	e3822060 	orr	r2, r2, #96	; 0x60
30003cf4:	e58c2000 	str	r2, [ip]
30003cf8:	e594303c 	ldr	r3, [r4, #60]
30003cfc:	e5941020 	ldr	r1, [r4, #32]
30003d00:	e5940024 	ldr	r0, [r4, #36]
30003d04:	e2433001 	sub	r3, r3, #1	; 0x1
30003d08:	e594201c 	ldr	r2, [r4, #28]
30003d0c:	e2411001 	sub	r1, r1, #1	; 0x1
30003d10:	e1a03703 	mov	r3, r3, lsl #14
30003d14:	e1833c01 	orr	r3, r3, r1, lsl #24
30003d18:	e2400001 	sub	r0, r0, #1	; 0x1
30003d1c:	e2422001 	sub	r2, r2, #1	; 0x1
30003d20:	e1833300 	orr	r3, r3, r0, lsl #6
30003d24:	e1833002 	orr	r3, r3, r2
30003d28:	e58c3004 	str	r3, [ip, #4]
30003d2c:	e5942038 	ldr	r2, [r4, #56]
30003d30:	e594302c 	ldr	r3, [r4, #44]
30003d34:	e5941030 	ldr	r1, [r4, #48]
30003d38:	e2422001 	sub	r2, r2, #1	; 0x1
30003d3c:	e2433001 	sub	r3, r3, #1	; 0x1
30003d40:	e1a02402 	mov	r2, r2, lsl #8
30003d44:	e1822983 	orr	r2, r2, r3, lsl #19
30003d48:	e2411001 	sub	r1, r1, #1	; 0x1
30003d4c:	e1822001 	orr	r2, r2, r1
30003d50:	e58c2008 	str	r2, [ip, #8]
30003d54:	e5943028 	ldr	r3, [r4, #40]
30003d58:	e2433001 	sub	r3, r3, #1	; 0x1
30003d5c:	e58c300c 	str	r3, [ip, #12]
30003d60:	e5943040 	ldr	r3, [r4, #64]
30003d64:	e3530020 	cmp	r3, #32	; 0x20
30003d68:	e3a0e000 	mov	lr, #0	; 0x0
30003d6c:	0a000002 	beq	30003d7c <InitS3c2440LcdController_+0x104>
30003d70:	e3530010 	cmp	r3, #16	; 0x10
30003d74:	13a0e002 	movne	lr, #2	; 0x2
30003d78:	03a0e001 	moveq	lr, #1	; 0x1
30003d7c:	e284200c 	add	r2, r4, #12	; 0xc
30003d80:	e892000c 	ldmia	r2, {r2, r3}
30003d84:	e5941014 	ldr	r1, [r4, #20]
30003d88:	e1a03383 	mov	r3, r3, lsl #7
30003d8c:	e5940018 	ldr	r0, [r4, #24]
30003d90:	e1833502 	orr	r3, r3, r2, lsl #10
30003d94:	e594c004 	ldr	ip, [r4, #4]
30003d98:	e1833481 	orr	r3, r3, r1, lsl #9
30003d9c:	e5942008 	ldr	r2, [r4, #8]
30003da0:	e1833400 	orr	r3, r3, r0, lsl #8
30003da4:	e183330c 	orr	r3, r3, ip, lsl #6
30003da8:	e1833282 	orr	r3, r3, r2, lsl #5
30003dac:	e183300e 	orr	r3, r3, lr
30003db0:	e3a0c44d 	mov	ip, #1291845632	; 0x4d000000
30003db4:	e3833b02 	orr	r3, r3, #2048	; 0x800
30003db8:	e58c3010 	str	r3, [ip, #16]
30003dbc:	e5942044 	ldr	r2, [r4, #68]
30003dc0:	e3c20102 	bic	r0, r2, #-2147483648	; 0x80000000
30003dc4:	e1a030a0 	mov	r3, r0, lsr #1
30003dc8:	e58c3014 	str	r3, [ip, #20]
30003dcc:	e2841038 	add	r1, r4, #56	; 0x38
30003dd0:	e891000a 	ldmia	r1, {r1, r3}
30003dd4:	e0000193 	mul	r0, r3, r1
30003dd8:	e5942040 	ldr	r2, [r4, #64]
30003ddc:	e0030092 	mul	r3, r2, r0
30003de0:	e5941044 	ldr	r1, [r4, #68]
30003de4:	e1a02fc3 	mov	r2, r3, asr #31
30003de8:	e0833ea2 	add	r3, r3, r2, lsr #29
30003dec:	e08101c3 	add	r0, r1, r3, asr #3
30003df0:	e1a000a0 	mov	r0, r0, lsr #1
30003df4:	e3c004ff 	bic	r0, r0, #-16777216	; 0xff000000
30003df8:	e3c0060e 	bic	r0, r0, #14680064	; 0xe00000
30003dfc:	e58c0018 	str	r0, [ip, #24]
30003e00:	e8bd8010 	ldmia	sp!, {r4, pc}
30003e04:	40590000 	submis	r0, r9, r0
30003e08:	00000000 	andeq	r0, r0, r0
30003e0c:	3fe00000 	swicc	0x00e00000
30003e10:	00000000 	andeq	r0, r0, r0
30003e14:	3ff00000 	swicc	0x00f00000	; IMB
30003e18:	00000000 	andeq	r0, r0, r0

30003e1c <EnableS3c2440LcdController_>:
30003e1c:	e3a02456 	mov	r2, #1442840576	; 0x56000000
30003e20:	e5923014 	ldr	r3, [r2, #20]
30003e24:	e3833001 	orr	r3, r3, #1	; 0x1
30003e28:	e5823014 	str	r3, [r2, #20]
30003e2c:	e3a0144d 	mov	r1, #1291845632	; 0x4d000000
30003e30:	e5913010 	ldr	r3, [r1, #16]
30003e34:	e3833008 	orr	r3, r3, #8	; 0x8
30003e38:	e5813010 	str	r3, [r1, #16]
30003e3c:	e5912000 	ldr	r2, [r1]
30003e40:	e3822001 	orr	r2, r2, #1	; 0x1
30003e44:	e5812000 	str	r2, [r1]
30003e48:	e1a0f00e 	mov	pc, lr

30003e4c <DisableS3c2440LcdController_>:
30003e4c:	e3a02456 	mov	r2, #1442840576	; 0x56000000
30003e50:	e5923014 	ldr	r3, [r2, #20]
30003e54:	e3c33001 	bic	r3, r3, #1	; 0x1
30003e58:	e5823014 	str	r3, [r2, #20]
30003e5c:	e3a0144d 	mov	r1, #1291845632	; 0x4d000000
30003e60:	e5913010 	ldr	r3, [r1, #16]
30003e64:	e3c33008 	bic	r3, r3, #8	; 0x8
30003e68:	e5813010 	str	r3, [r1, #16]
30003e6c:	e5912000 	ldr	r2, [r1]
30003e70:	e3c22001 	bic	r2, r2, #1	; 0x1
30003e74:	e5812000 	str	r2, [r1]
30003e78:	e1a0f00e 	mov	pc, lr

30003e7c <InitS3c2440LcdControllerPalette>:
30003e7c:	e3a0144d 	mov	r1, #1291845632	; 0x4d000000
30003e80:	e5913000 	ldr	r3, [r1]
30003e84:	e2130001 	ands	r0, r3, #1	; 0x1
30003e88:	15913000 	ldrne	r3, [r1]
30003e8c:	13c33001 	bicne	r3, r3, #1	; 0x1
30003e90:	15813000 	strne	r3, [r1]
30003e94:	e2812b01 	add	r2, r1, #1024	; 0x400
30003e98:	e3a03000 	mov	r3, #0	; 0x0
30003e9c:	e4823004 	str	r3, [r2], #4
30003ea0:	e2833001 	add	r3, r3, #1	; 0x1
30003ea4:	e35300ff 	cmp	r3, #255	; 0xff
30003ea8:	dafffffb 	ble	30003e9c <InitS3c2440LcdControllerPalette+0x20>
30003eac:	e3500000 	cmp	r0, #0	; 0x0
30003eb0:	13a0244d 	movne	r2, #1291845632	; 0x4d000000
30003eb4:	15923000 	ldrne	r3, [r2]
30003eb8:	13833001 	orrne	r3, r3, #1	; 0x1
30003ebc:	15823000 	strne	r3, [r2]
30003ec0:	e1a0f00e 	mov	pc, lr

30003ec4 <AddS3c2440LcdContoller>:
30003ec4:	e59f0000 	ldr	r0, [pc, #0]	; 30003ecc <.text+0x3ecc>
30003ec8:	eaffff16 	b	30003b28 <RegisterLcdController>
30003ecc:	3000f454 	andcc	pc, r0, r4, asr r4

30003ed0 <RegisterLcd>:
30003ed0:	e59f1030 	ldr	r1, [pc, #48]	; 30003f08 <.text+0x3f08>
30003ed4:	e1a0c000 	mov	ip, r0
30003ed8:	e3a02000 	mov	r2, #0	; 0x0
30003edc:	e7913102 	ldr	r3, [r1, r2, lsl #2]
30003ee0:	e3530000 	cmp	r3, #0	; 0x0
30003ee4:	0a000004 	beq	30003efc <RegisterLcd+0x2c>
30003ee8:	e2822001 	add	r2, r2, #1	; 0x1
30003eec:	e3520009 	cmp	r2, #9	; 0x9
30003ef0:	dafffff9 	ble	30003edc <RegisterLcd+0xc>
30003ef4:	e3e00000 	mvn	r0, #0	; 0x0
30003ef8:	e1a0f00e 	mov	pc, lr
30003efc:	e1a00002 	mov	r0, r2
30003f00:	e781c102 	str	ip, [r1, r2, lsl #2]
30003f04:	e1a0f00e 	mov	pc, lr
30003f08:	3000f4f0 	strccd	pc, [r0], -r0

30003f0c <SelectLcd>:
30003f0c:	e92d40f0 	stmdb	sp!, {r4, r5, r6, r7, lr}
30003f10:	e59f7048 	ldr	r7, [pc, #72]	; 30003f60 <.text+0x3f60>
30003f14:	e1a06000 	mov	r6, r0
30003f18:	e3a05000 	mov	r5, #0	; 0x0
30003f1c:	e7974105 	ldr	r4, [r7, r5, lsl #2]
30003f20:	e3540000 	cmp	r4, #0	; 0x0
30003f24:	e1a01006 	mov	r1, r6
30003f28:	0a000003 	beq	30003f3c <SelectLcd+0x30>
30003f2c:	e5940000 	ldr	r0, [r4]
30003f30:	ebfff6cb 	bl	30001a64 <strcmp>
30003f34:	e3500000 	cmp	r0, #0	; 0x0
30003f38:	0a000004 	beq	30003f50 <SelectLcd+0x44>
30003f3c:	e2855001 	add	r5, r5, #1	; 0x1
30003f40:	e3550009 	cmp	r5, #9	; 0x9
30003f44:	dafffff4 	ble	30003f1c <SelectLcd+0x10>
30003f48:	e3e00000 	mvn	r0, #0	; 0x0
30003f4c:	e8bd80f0 	ldmia	sp!, {r4, r5, r6, r7, pc}
30003f50:	e59f300c 	ldr	r3, [pc, #12]	; 30003f64 <.text+0x3f64>
30003f54:	e1a00005 	mov	r0, r5
30003f58:	e5834000 	str	r4, [r3]
30003f5c:	e8bd80f0 	ldmia	sp!, {r4, r5, r6, r7, pc}
30003f60:	3000f4f0 	strccd	pc, [r0], -r0
30003f64:	3000f518 	andcc	pc, r0, r8, lsl r5

30003f68 <GetLcdParams>:
30003f68:	e92d4010 	stmdb	sp!, {r4, lr}
30003f6c:	e59fc024 	ldr	ip, [pc, #36]	; 30003f98 <.text+0x3f98>
30003f70:	e59c4000 	ldr	r4, [ip]
30003f74:	e594e044 	ldr	lr, [r4, #68]
30003f78:	e580e000 	str	lr, [r0]
30003f7c:	e5940038 	ldr	r0, [r4, #56]
30003f80:	e5810000 	str	r0, [r1]
30003f84:	e594103c 	ldr	r1, [r4, #60]
30003f88:	e5821000 	str	r1, [r2]
30003f8c:	e5942040 	ldr	r2, [r4, #64]
30003f90:	e5832000 	str	r2, [r3]
30003f94:	e8bd8010 	ldmia	sp!, {r4, pc}
30003f98:	3000f518 	andcc	pc, r0, r8, lsl r5

30003f9c <EnableLcd>:
30003f9c:	eaffff12 	b	30003bec <EnableLcdController>

30003fa0 <DisableLcd>:
30003fa0:	eaffff1a 	b	30003c10 <DisableLcdController>

30003fa4 <InitLcd>:
30003fa4:	e52de004 	str	lr, [sp, #-4]!
30003fa8:	eb00016d 	bl	30004564 <Add4Point3Lcd>
30003fac:	ebffff20 	bl	30003c34 <AddLcdContollerS3c2440>
30003fb0:	e59f001c 	ldr	r0, [pc, #28]	; 30003fd4 <.text+0x3fd4>
30003fb4:	ebffffd4 	bl	30003f0c <SelectLcd>
30003fb8:	e59f0018 	ldr	r0, [pc, #24]	; 30003fd8 <.text+0x3fd8>
30003fbc:	ebfffee8 	bl	30003b64 <SelectLcdController>
30003fc0:	e59f3014 	ldr	r3, [pc, #20]	; 30003fdc <.text+0x3fdc>
30003fc4:	e5930000 	ldr	r0, [r3]
30003fc8:	ebfffefc 	bl	30003bc0 <InitLcdController>
30003fcc:	e3a00000 	mov	r0, #0	; 0x0
30003fd0:	e49df004 	ldr	pc, [sp], #4
30003fd4:	3000ea40 	andcc	lr, r0, r0, asr #20
30003fd8:	3000ea38 	andcc	lr, r0, r8, lsr sl
30003fdc:	3000f518 	andcc	pc, r0, r8, lsl r5

30003fe0 <TestLCD>:
30003fe0:	e52de004 	str	lr, [sp, #-4]!
30003fe4:	e24dd014 	sub	sp, sp, #20	; 0x14
30003fe8:	e28d3004 	add	r3, sp, #4	; 0x4
30003fec:	e28d0010 	add	r0, sp, #16	; 0x10
30003ff0:	e28d100c 	add	r1, sp, #12	; 0xc
30003ff4:	e28d2008 	add	r2, sp, #8	; 0x8
30003ff8:	ebffffda 	bl	30003f68 <GetLcdParams>
30003ffc:	e59d3004 	ldr	r3, [sp, #4]
30004000:	e3530008 	cmp	r3, #8	; 0x8
30004004:	0a00005b 	beq	30004178 <TestLCD+0x198>
30004008:	e3530010 	cmp	r3, #16	; 0x10
3000400c:	0a0000af 	beq	300042d0 <TestLCD+0x2f0>
30004010:	e3530020 	cmp	r3, #32	; 0x20
30004014:	0a0000fb 	beq	30004408 <TestLCD+0x428>
30004018:	e3a0093d 	mov	r0, #999424	; 0xf4000
3000401c:	e2800d09 	add	r0, r0, #576	; 0x240
30004020:	ebfff775 	bl	30001dfc <Delay>
30004024:	e59d200c 	ldr	r2, [sp, #12]
30004028:	e3a00000 	mov	r0, #0	; 0x0
3000402c:	e1a01000 	mov	r1, r0
30004030:	e1a03000 	mov	r3, r0
30004034:	e3a0c8ff 	mov	ip, #16711680	; 0xff0000
30004038:	e2422001 	sub	r2, r2, #1	; 0x1
3000403c:	e58dc000 	str	ip, [sp]
30004040:	eb00021c 	bl	300048b8 <DrawLine>
30004044:	e59d000c 	ldr	r0, [sp, #12]
30004048:	e59d3008 	ldr	r3, [sp, #8]
3000404c:	e2400001 	sub	r0, r0, #1	; 0x1
30004050:	e3a0c8ff 	mov	ip, #16711680	; 0xff0000
30004054:	e28cccff 	add	ip, ip, #65280	; 0xff00
30004058:	e1a02000 	mov	r2, r0
3000405c:	e2433001 	sub	r3, r3, #1	; 0x1
30004060:	e3a01000 	mov	r1, #0	; 0x0
30004064:	e58dc000 	str	ip, [sp]
30004068:	eb000212 	bl	300048b8 <DrawLine>
3000406c:	e28d1008 	add	r1, sp, #8	; 0x8
30004070:	e8910006 	ldmia	r1, {r1, r2}
30004074:	e2411001 	sub	r1, r1, #1	; 0x1
30004078:	e3a0c8ff 	mov	ip, #16711680	; 0xff0000
3000407c:	e28cc0aa 	add	ip, ip, #170	; 0xaa
30004080:	e1a03001 	mov	r3, r1
30004084:	e2422001 	sub	r2, r2, #1	; 0x1
30004088:	e3a00000 	mov	r0, #0	; 0x0
3000408c:	e58dc000 	str	ip, [sp]
30004090:	eb000208 	bl	300048b8 <DrawLine>
30004094:	e59d3008 	ldr	r3, [sp, #8]
30004098:	e3a00000 	mov	r0, #0	; 0x0
3000409c:	e3a0c8ff 	mov	ip, #16711680	; 0xff0000
300040a0:	e28cc0ef 	add	ip, ip, #239	; 0xef
300040a4:	e1a01000 	mov	r1, r0
300040a8:	e1a02000 	mov	r2, r0
300040ac:	e2433001 	sub	r3, r3, #1	; 0x1
300040b0:	e58dc000 	str	ip, [sp]
300040b4:	eb0001ff 	bl	300048b8 <DrawLine>
300040b8:	e59d200c 	ldr	r2, [sp, #12]
300040bc:	e59d3008 	ldr	r3, [sp, #8]
300040c0:	e3a00000 	mov	r0, #0	; 0x0
300040c4:	e3a0c8ff 	mov	ip, #16711680	; 0xff0000
300040c8:	e28ccc45 	add	ip, ip, #17664	; 0x4500
300040cc:	e1a01000 	mov	r1, r0
300040d0:	e2422001 	sub	r2, r2, #1	; 0x1
300040d4:	e2433001 	sub	r3, r3, #1	; 0x1
300040d8:	e58dc000 	str	ip, [sp]
300040dc:	eb0001f5 	bl	300048b8 <DrawLine>
300040e0:	e59d3008 	ldr	r3, [sp, #8]
300040e4:	e59d000c 	ldr	r0, [sp, #12]
300040e8:	e3a01000 	mov	r1, #0	; 0x0
300040ec:	e3a0c8ff 	mov	ip, #16711680	; 0xff0000
300040f0:	e28ccd1e 	add	ip, ip, #1920	; 0x780
300040f4:	e1a02001 	mov	r2, r1
300040f8:	e2433001 	sub	r3, r3, #1	; 0x1
300040fc:	e2400001 	sub	r0, r0, #1	; 0x1
30004100:	e58dc000 	str	ip, [sp]
30004104:	eb0001eb 	bl	300048b8 <DrawLine>
30004108:	e3a0093d 	mov	r0, #999424	; 0xf4000
3000410c:	e2800d09 	add	r0, r0, #576	; 0x240
30004110:	ebfff739 	bl	30001dfc <Delay>
30004114:	e59d1008 	ldr	r1, [sp, #8]
30004118:	e59d000c 	ldr	r0, [sp, #12]
3000411c:	e1a03fc1 	mov	r3, r1, asr #31
30004120:	e0812f23 	add	r2, r1, r3, lsr #30
30004124:	e0800fa0 	add	r0, r0, r0, lsr #31
30004128:	e0811fa3 	add	r1, r1, r3, lsr #31
3000412c:	e1a000c0 	mov	r0, r0, asr #1
30004130:	e1a010c1 	mov	r1, r1, asr #1
30004134:	e1a02142 	mov	r2, r2, asr #2
30004138:	e3a03cff 	mov	r3, #65280	; 0xff00
3000413c:	eb000191 	bl	30004788 <DrawCircle>
30004140:	e3a0000a 	mov	r0, #10	; 0xa
30004144:	e3a03cff 	mov	r3, #65280	; 0xff00
30004148:	e1a01000 	mov	r1, r0
3000414c:	e3a0c001 	mov	ip, #1	; 0x1
30004150:	e28330ff 	add	r3, r3, #255	; 0xff
30004154:	e59f2404 	ldr	r2, [pc, #1028]	; 30004560 <.text+0x4560>
30004158:	e58dc000 	str	ip, [sp]
3000415c:	eb000308 	bl	30004d84 <PrintFbString8x16>
30004160:	e3a009b7 	mov	r0, #2998272	; 0x2dc000
30004164:	e2800d1b 	add	r0, r0, #1728	; 0x6c0
30004168:	ebfff723 	bl	30001dfc <Delay>
3000416c:	ebfffac0 	bl	30002c74 <MainPage>
30004170:	e28dd014 	add	sp, sp, #20	; 0x14
30004174:	e8bd8000 	ldmia	sp!, {pc}
30004178:	e59d000c 	ldr	r0, [sp, #12]
3000417c:	e3a0e000 	mov	lr, #0	; 0x0
30004180:	e15e0000 	cmp	lr, r0
30004184:	e59d1010 	ldr	r1, [sp, #16]
30004188:	aa00000d 	bge	300041c4 <TestLCD+0x1e4>
3000418c:	e59d2008 	ldr	r2, [sp, #8]
30004190:	e3a03000 	mov	r3, #0	; 0x0
30004194:	e1530002 	cmp	r3, r2
30004198:	aa000006 	bge	300041b8 <TestLCD+0x1d8>
3000419c:	e3a0000c 	mov	r0, #12	; 0xc
300041a0:	e4c10001 	strb	r0, [r1], #1
300041a4:	e59d2008 	ldr	r2, [sp, #8]
300041a8:	e2833001 	add	r3, r3, #1	; 0x1
300041ac:	e1530002 	cmp	r3, r2
300041b0:	bafffffa 	blt	300041a0 <TestLCD+0x1c0>
300041b4:	e59d000c 	ldr	r0, [sp, #12]
300041b8:	e28ee001 	add	lr, lr, #1	; 0x1
300041bc:	e15e0000 	cmp	lr, r0
300041c0:	bafffff2 	blt	30004190 <TestLCD+0x1b0>
300041c4:	e3a00a7a 	mov	r0, #499712	; 0x7a000
300041c8:	e2800e12 	add	r0, r0, #288	; 0x120
300041cc:	ebfff70a 	bl	30001dfc <Delay>
300041d0:	e59d000c 	ldr	r0, [sp, #12]
300041d4:	e3a0e000 	mov	lr, #0	; 0x0
300041d8:	e15e0000 	cmp	lr, r0
300041dc:	e59d1010 	ldr	r1, [sp, #16]
300041e0:	aa00000d 	bge	3000421c <TestLCD+0x23c>
300041e4:	e59d2008 	ldr	r2, [sp, #8]
300041e8:	e3a03000 	mov	r3, #0	; 0x0
300041ec:	e1530002 	cmp	r3, r2
300041f0:	aa000006 	bge	30004210 <TestLCD+0x230>
300041f4:	e3a0002f 	mov	r0, #47	; 0x2f
300041f8:	e4c10001 	strb	r0, [r1], #1
300041fc:	e59d2008 	ldr	r2, [sp, #8]
30004200:	e2833001 	add	r3, r3, #1	; 0x1
30004204:	e1530002 	cmp	r3, r2
30004208:	bafffffa 	blt	300041f8 <TestLCD+0x218>
3000420c:	e59d000c 	ldr	r0, [sp, #12]
30004210:	e28ee001 	add	lr, lr, #1	; 0x1
30004214:	e15e0000 	cmp	lr, r0
30004218:	bafffff2 	blt	300041e8 <TestLCD+0x208>
3000421c:	e3a00a7a 	mov	r0, #499712	; 0x7a000
30004220:	e2800e12 	add	r0, r0, #288	; 0x120
30004224:	ebfff6f4 	bl	30001dfc <Delay>
30004228:	e59d000c 	ldr	r0, [sp, #12]
3000422c:	e3a0e000 	mov	lr, #0	; 0x0
30004230:	e15e0000 	cmp	lr, r0
30004234:	e59d1010 	ldr	r1, [sp, #16]
30004238:	aa00000d 	bge	30004274 <TestLCD+0x294>
3000423c:	e59d2008 	ldr	r2, [sp, #8]
30004240:	e3a03000 	mov	r3, #0	; 0x0
30004244:	e1530002 	cmp	r3, r2
30004248:	aa000006 	bge	30004268 <TestLCD+0x288>
3000424c:	e3a00058 	mov	r0, #88	; 0x58
30004250:	e4c10001 	strb	r0, [r1], #1
30004254:	e59d2008 	ldr	r2, [sp, #8]
30004258:	e2833001 	add	r3, r3, #1	; 0x1
3000425c:	e1530002 	cmp	r3, r2
30004260:	bafffffa 	blt	30004250 <TestLCD+0x270>
30004264:	e59d000c 	ldr	r0, [sp, #12]
30004268:	e28ee001 	add	lr, lr, #1	; 0x1
3000426c:	e15e0000 	cmp	lr, r0
30004270:	bafffff2 	blt	30004240 <TestLCD+0x260>
30004274:	e3a00a7a 	mov	r0, #499712	; 0x7a000
30004278:	e2800e12 	add	r0, r0, #288	; 0x120
3000427c:	ebfff6de 	bl	30001dfc <Delay>
30004280:	e59d000c 	ldr	r0, [sp, #12]
30004284:	e3a0e000 	mov	lr, #0	; 0x0
30004288:	e15e0000 	cmp	lr, r0
3000428c:	e59d1010 	ldr	r1, [sp, #16]
30004290:	aaffff60 	bge	30004018 <TestLCD+0x38>
30004294:	e59d2008 	ldr	r2, [sp, #8]
30004298:	e3a03000 	mov	r3, #0	; 0x0
3000429c:	e1530002 	cmp	r3, r2
300042a0:	aa000006 	bge	300042c0 <TestLCD+0x2e0>
300042a4:	e1a00003 	mov	r0, r3
300042a8:	e4c10001 	strb	r0, [r1], #1
300042ac:	e59d2008 	ldr	r2, [sp, #8]
300042b0:	e2833001 	add	r3, r3, #1	; 0x1
300042b4:	e1530002 	cmp	r3, r2
300042b8:	bafffffa 	blt	300042a8 <TestLCD+0x2c8>
300042bc:	e59d000c 	ldr	r0, [sp, #12]
300042c0:	e28ee001 	add	lr, lr, #1	; 0x1
300042c4:	e15e0000 	cmp	lr, r0
300042c8:	bafffff2 	blt	30004298 <TestLCD+0x2b8>
300042cc:	eaffff51 	b	30004018 <TestLCD+0x38>
300042d0:	e59d000c 	ldr	r0, [sp, #12]
300042d4:	e3a0e000 	mov	lr, #0	; 0x0
300042d8:	e15e0000 	cmp	lr, r0
300042dc:	e59d1010 	ldr	r1, [sp, #16]
300042e0:	aa00000b 	bge	30004314 <TestLCD+0x334>
300042e4:	e59d2008 	ldr	r2, [sp, #8]
300042e8:	e3a03000 	mov	r3, #0	; 0x0
300042ec:	e1530002 	cmp	r3, r2
300042f0:	aa000004 	bge	30004308 <TestLCD+0x328>
300042f4:	e3a0cb3e 	mov	ip, #63488	; 0xf800
300042f8:	e2833001 	add	r3, r3, #1	; 0x1
300042fc:	e1530002 	cmp	r3, r2
30004300:	e0c1c0b2 	strh	ip, [r1], #2
30004304:	bafffffb 	blt	300042f8 <TestLCD+0x318>
30004308:	e28ee001 	add	lr, lr, #1	; 0x1
3000430c:	e15e0000 	cmp	lr, r0
30004310:	bafffff4 	blt	300042e8 <TestLCD+0x308>
30004314:	e3a00a7a 	mov	r0, #499712	; 0x7a000
30004318:	e2800e12 	add	r0, r0, #288	; 0x120
3000431c:	ebfff6b6 	bl	30001dfc <Delay>
30004320:	e59d000c 	ldr	r0, [sp, #12]
30004324:	e3a0e000 	mov	lr, #0	; 0x0
30004328:	e15e0000 	cmp	lr, r0
3000432c:	e59d1010 	ldr	r1, [sp, #16]
30004330:	aa00000b 	bge	30004364 <TestLCD+0x384>
30004334:	e59d2008 	ldr	r2, [sp, #8]
30004338:	e3a03000 	mov	r3, #0	; 0x0
3000433c:	e1530002 	cmp	r3, r2
30004340:	aa000004 	bge	30004358 <TestLCD+0x378>
30004344:	e2833001 	add	r3, r3, #1	; 0x1
30004348:	e3a0ce7e 	mov	ip, #2016	; 0x7e0
3000434c:	e1530002 	cmp	r3, r2
30004350:	e0c1c0b2 	strh	ip, [r1], #2
30004354:	bafffffa 	blt	30004344 <TestLCD+0x364>
30004358:	e28ee001 	add	lr, lr, #1	; 0x1
3000435c:	e15e0000 	cmp	lr, r0
30004360:	bafffff4 	blt	30004338 <TestLCD+0x358>
30004364:	e3a00a7a 	mov	r0, #499712	; 0x7a000
30004368:	e2800e12 	add	r0, r0, #288	; 0x120
3000436c:	ebfff6a2 	bl	30001dfc <Delay>
30004370:	e59d000c 	ldr	r0, [sp, #12]
30004374:	e3a0e000 	mov	lr, #0	; 0x0
30004378:	e15e0000 	cmp	lr, r0
3000437c:	e59d1010 	ldr	r1, [sp, #16]
30004380:	aa00000b 	bge	300043b4 <TestLCD+0x3d4>
30004384:	e59d2008 	ldr	r2, [sp, #8]
30004388:	e3a03000 	mov	r3, #0	; 0x0
3000438c:	e1530002 	cmp	r3, r2
30004390:	aa000004 	bge	300043a8 <TestLCD+0x3c8>
30004394:	e2833001 	add	r3, r3, #1	; 0x1
30004398:	e3a0c01f 	mov	ip, #31	; 0x1f
3000439c:	e1530002 	cmp	r3, r2
300043a0:	e0c1c0b2 	strh	ip, [r1], #2
300043a4:	bafffffa 	blt	30004394 <TestLCD+0x3b4>
300043a8:	e28ee001 	add	lr, lr, #1	; 0x1
300043ac:	e15e0000 	cmp	lr, r0
300043b0:	bafffff4 	blt	30004388 <TestLCD+0x3a8>
300043b4:	e3a00a7a 	mov	r0, #499712	; 0x7a000
300043b8:	e2800e12 	add	r0, r0, #288	; 0x120
300043bc:	ebfff68e 	bl	30001dfc <Delay>
300043c0:	e59d000c 	ldr	r0, [sp, #12]
300043c4:	e3a0e000 	mov	lr, #0	; 0x0
300043c8:	e15e0000 	cmp	lr, r0
300043cc:	e59d1010 	ldr	r1, [sp, #16]
300043d0:	aaffff10 	bge	30004018 <TestLCD+0x38>
300043d4:	e59d2008 	ldr	r2, [sp, #8]
300043d8:	e3a03000 	mov	r3, #0	; 0x0
300043dc:	e1530002 	cmp	r3, r2
300043e0:	aa000004 	bge	300043f8 <TestLCD+0x418>
300043e4:	e2833001 	add	r3, r3, #1	; 0x1
300043e8:	e3a0c000 	mov	ip, #0	; 0x0
300043ec:	e1530002 	cmp	r3, r2
300043f0:	e0c1c0b2 	strh	ip, [r1], #2
300043f4:	bafffffa 	blt	300043e4 <TestLCD+0x404>
300043f8:	e28ee001 	add	lr, lr, #1	; 0x1
300043fc:	e15e0000 	cmp	lr, r0
30004400:	bafffff4 	blt	300043d8 <TestLCD+0x3f8>
30004404:	eaffff03 	b	30004018 <TestLCD+0x38>
30004408:	e59d000c 	ldr	r0, [sp, #12]
3000440c:	e3a0e000 	mov	lr, #0	; 0x0
30004410:	e15e0000 	cmp	lr, r0
30004414:	e59d1010 	ldr	r1, [sp, #16]
30004418:	aa00000d 	bge	30004454 <TestLCD+0x474>
3000441c:	e59d2008 	ldr	r2, [sp, #8]
30004420:	e3a03000 	mov	r3, #0	; 0x0
30004424:	e1530002 	cmp	r3, r2
30004428:	aa000006 	bge	30004448 <TestLCD+0x468>
3000442c:	e3a008ff 	mov	r0, #16711680	; 0xff0000
30004430:	e4810004 	str	r0, [r1], #4
30004434:	e59d2008 	ldr	r2, [sp, #8]
30004438:	e2833001 	add	r3, r3, #1	; 0x1
3000443c:	e1530002 	cmp	r3, r2
30004440:	bafffffa 	blt	30004430 <TestLCD+0x450>
30004444:	e59d000c 	ldr	r0, [sp, #12]
30004448:	e28ee001 	add	lr, lr, #1	; 0x1
3000444c:	e15e0000 	cmp	lr, r0
30004450:	bafffff2 	blt	30004420 <TestLCD+0x440>
30004454:	e3a00a7a 	mov	r0, #499712	; 0x7a000
30004458:	e2800e12 	add	r0, r0, #288	; 0x120
3000445c:	ebfff666 	bl	30001dfc <Delay>
30004460:	e59d000c 	ldr	r0, [sp, #12]
30004464:	e3a0e000 	mov	lr, #0	; 0x0
30004468:	e15e0000 	cmp	lr, r0
3000446c:	e59d1010 	ldr	r1, [sp, #16]
30004470:	aa00000d 	bge	300044ac <TestLCD+0x4cc>
30004474:	e59d2008 	ldr	r2, [sp, #8]
30004478:	e3a03000 	mov	r3, #0	; 0x0
3000447c:	e1530002 	cmp	r3, r2
30004480:	aa000006 	bge	300044a0 <TestLCD+0x4c0>
30004484:	e3a00cff 	mov	r0, #65280	; 0xff00
30004488:	e4810004 	str	r0, [r1], #4
3000448c:	e59d2008 	ldr	r2, [sp, #8]
30004490:	e2833001 	add	r3, r3, #1	; 0x1
30004494:	e1530002 	cmp	r3, r2
30004498:	bafffffa 	blt	30004488 <TestLCD+0x4a8>
3000449c:	e59d000c 	ldr	r0, [sp, #12]
300044a0:	e28ee001 	add	lr, lr, #1	; 0x1
300044a4:	e15e0000 	cmp	lr, r0
300044a8:	bafffff2 	blt	30004478 <TestLCD+0x498>
300044ac:	e3a00a7a 	mov	r0, #499712	; 0x7a000
300044b0:	e2800e12 	add	r0, r0, #288	; 0x120
300044b4:	ebfff650 	bl	30001dfc <Delay>
300044b8:	e59d000c 	ldr	r0, [sp, #12]
300044bc:	e3a0e000 	mov	lr, #0	; 0x0
300044c0:	e15e0000 	cmp	lr, r0
300044c4:	e59d1010 	ldr	r1, [sp, #16]
300044c8:	aa00000d 	bge	30004504 <TestLCD+0x524>
300044cc:	e59d2008 	ldr	r2, [sp, #8]
300044d0:	e3a03000 	mov	r3, #0	; 0x0
300044d4:	e1530002 	cmp	r3, r2
300044d8:	aa000006 	bge	300044f8 <TestLCD+0x518>
300044dc:	e3a000ff 	mov	r0, #255	; 0xff
300044e0:	e4810004 	str	r0, [r1], #4
300044e4:	e59d2008 	ldr	r2, [sp, #8]
300044e8:	e2833001 	add	r3, r3, #1	; 0x1
300044ec:	e1530002 	cmp	r3, r2
300044f0:	bafffffa 	blt	300044e0 <TestLCD+0x500>
300044f4:	e59d000c 	ldr	r0, [sp, #12]
300044f8:	e28ee001 	add	lr, lr, #1	; 0x1
300044fc:	e15e0000 	cmp	lr, r0
30004500:	bafffff2 	blt	300044d0 <TestLCD+0x4f0>
30004504:	e3a00a7a 	mov	r0, #499712	; 0x7a000
30004508:	e2800e12 	add	r0, r0, #288	; 0x120
3000450c:	ebfff63a 	bl	30001dfc <Delay>
30004510:	e59d000c 	ldr	r0, [sp, #12]
30004514:	e3a0e000 	mov	lr, #0	; 0x0
30004518:	e15e0000 	cmp	lr, r0
3000451c:	e59d1010 	ldr	r1, [sp, #16]
30004520:	aafffebc 	bge	30004018 <TestLCD+0x38>
30004524:	e59d2008 	ldr	r2, [sp, #8]
30004528:	e3a03000 	mov	r3, #0	; 0x0
3000452c:	e1530002 	cmp	r3, r2
30004530:	aa000006 	bge	30004550 <TestLCD+0x570>
30004534:	e1a00003 	mov	r0, r3
30004538:	e4810004 	str	r0, [r1], #4
3000453c:	e59d2008 	ldr	r2, [sp, #8]
30004540:	e2833001 	add	r3, r3, #1	; 0x1
30004544:	e1530002 	cmp	r3, r2
30004548:	bafffffa 	blt	30004538 <TestLCD+0x558>
3000454c:	e59d000c 	ldr	r0, [sp, #12]
30004550:	e28ee001 	add	lr, lr, #1	; 0x1
30004554:	e15e0000 	cmp	lr, r0
30004558:	bafffff2 	blt	30004528 <TestLCD+0x548>
3000455c:	eafffead 	b	30004018 <TestLCD+0x38>
30004560:	3000ea48 	andcc	lr, r0, r8, asr #20

30004564 <Add4Point3Lcd>:
30004564:	e59f0000 	ldr	r0, [pc, #0]	; 3000456c <.text+0x456c>
30004568:	eafffe58 	b	30003ed0 <RegisterLcd>
3000456c:	3000f468 	andcc	pc, r0, r8, ror #8

30004570 <GetLcdParamsforFb>:
30004570:	e59f000c 	ldr	r0, [pc, #12]	; 30004584 <.text+0x4584>
30004574:	e59f100c 	ldr	r1, [pc, #12]	; 30004588 <.text+0x4588>
30004578:	e59f200c 	ldr	r2, [pc, #12]	; 3000458c <.text+0x458c>
3000457c:	e59f300c 	ldr	r3, [pc, #12]	; 30004590 <.text+0x4590>
30004580:	eafffe78 	b	30003f68 <GetLcdParams>
30004584:	3000f51c 	andcc	pc, r0, ip, lsl r5
30004588:	3000f520 	andcc	pc, r0, r0, lsr #10
3000458c:	3000f524 	andcc	pc, r0, r4, lsr #10
30004590:	3000f528 	andcc	pc, r0, r8, lsr #10

30004594 <Convert32BppTo16Bpp>:
30004594:	e1a022a0 	mov	r2, r0, lsr #5
30004598:	e1a03420 	mov	r3, r0, lsr #8
3000459c:	e2022e7e 	and	r2, r2, #2016	; 0x7e0
300045a0:	e2033b3e 	and	r3, r3, #63488	; 0xf800
300045a4:	e1833002 	orr	r3, r3, r2
300045a8:	e20000ff 	and	r0, r0, #255	; 0xff
300045ac:	e18301a0 	orr	r0, r3, r0, lsr #3
300045b0:	e1a0f00e 	mov	pc, lr

300045b4 <PutFbPixel>:
300045b4:	e92d4070 	stmdb	sp!, {r4, r5, r6, lr}
300045b8:	e59f3068 	ldr	r3, [pc, #104]	; 30004628 <.text+0x4628>
300045bc:	e59fc068 	ldr	ip, [pc, #104]	; 3000462c <.text+0x462c>
300045c0:	e5934000 	ldr	r4, [r3]
300045c4:	e59c5000 	ldr	r5, [ip]
300045c8:	e00e0495 	mul	lr, r5, r4
300045cc:	e00c0095 	mul	ip, r5, r0
300045d0:	e59f0058 	ldr	r0, [pc, #88]	; 30004630 <.text+0x4630>
300045d4:	e1a03fce 	mov	r3, lr, asr #31
300045d8:	e5904000 	ldr	r4, [r0]
300045dc:	e08eeea3 	add	lr, lr, r3, lsr #29
300045e0:	e1a03fcc 	mov	r3, ip, asr #31
300045e4:	e08ccea3 	add	ip, ip, r3, lsr #29
300045e8:	e1a0e1ce 	mov	lr, lr, asr #3
300045ec:	e3550010 	cmp	r5, #16	; 0x10
300045f0:	e0264e91 	mla	r6, r1, lr, r4
300045f4:	e1a00002 	mov	r0, r2
300045f8:	e1a041cc 	mov	r4, ip, asr #3
300045fc:	0a000006 	beq	3000461c <PutFbPixel+0x68>
30004600:	ca000002 	bgt	30004610 <PutFbPixel+0x5c>
30004604:	e3550008 	cmp	r5, #8	; 0x8
30004608:	07c62004 	streqb	r2, [r6, r4]
3000460c:	e8bd8070 	ldmia	sp!, {r4, r5, r6, pc}
30004610:	e3550020 	cmp	r5, #32	; 0x20
30004614:	07862004 	streq	r2, [r6, r4]
30004618:	e8bd8070 	ldmia	sp!, {r4, r5, r6, pc}
3000461c:	ebffffdc 	bl	30004594 <Convert32BppTo16Bpp>
30004620:	e18600b4 	strh	r0, [r6, r4]
30004624:	e8bd8070 	ldmia	sp!, {r4, r5, r6, pc}
30004628:	3000f520 	andcc	pc, r0, r0, lsr #10
3000462c:	3000f528 	andcc	pc, r0, r8, lsr #10
30004630:	3000f51c 	andcc	pc, r0, ip, lsl r5

30004634 <ClearScreen>:
30004634:	e92d45f0 	stmdb	sp!, {r4, r5, r6, r7, r8, sl, lr}
30004638:	e59f3138 	ldr	r3, [pc, #312]	; 30004778 <.text+0x4778>
3000463c:	e5933000 	ldr	r3, [r3]
30004640:	e3530008 	cmp	r3, #8	; 0x8
30004644:	e1a06000 	mov	r6, r0
30004648:	0a000018 	beq	300046b0 <ClearScreen+0x7c>
3000464c:	e3530010 	cmp	r3, #16	; 0x10
30004650:	0a00002b 	beq	30004704 <ClearScreen+0xd0>
30004654:	e3530020 	cmp	r3, #32	; 0x20
30004658:	18bd85f0 	ldmneia	sp!, {r4, r5, r6, r7, r8, sl, pc}
3000465c:	e59fa118 	ldr	sl, [pc, #280]	; 3000477c <.text+0x477c>
30004660:	e59a2000 	ldr	r2, [sl]
30004664:	e3a07000 	mov	r7, #0	; 0x0
30004668:	e59f3110 	ldr	r3, [pc, #272]	; 30004780 <.text+0x4780>
3000466c:	e1570002 	cmp	r7, r2
30004670:	e5932000 	ldr	r2, [r3]
30004674:	a8bd85f0 	ldmgeia	sp!, {r4, r5, r6, r7, r8, sl, pc}
30004678:	e59f1104 	ldr	r1, [pc, #260]	; 30004784 <.text+0x4784>
3000467c:	e5913000 	ldr	r3, [r1]
30004680:	e3a04000 	mov	r4, #0	; 0x0
30004684:	ea000002 	b	30004694 <ClearScreen+0x60>
30004688:	e4826004 	str	r6, [r2], #4
3000468c:	e5913000 	ldr	r3, [r1]
30004690:	e2844001 	add	r4, r4, #1	; 0x1
30004694:	e1540003 	cmp	r4, r3
30004698:	bafffffa 	blt	30004688 <ClearScreen+0x54>
3000469c:	e59a3000 	ldr	r3, [sl]
300046a0:	e2877001 	add	r7, r7, #1	; 0x1
300046a4:	e1570003 	cmp	r7, r3
300046a8:	bafffff3 	blt	3000467c <ClearScreen+0x48>
300046ac:	e8bd85f0 	ldmia	sp!, {r4, r5, r6, r7, r8, sl, pc}
300046b0:	e59fa0c4 	ldr	sl, [pc, #196]	; 3000477c <.text+0x477c>
300046b4:	e59a2000 	ldr	r2, [sl]
300046b8:	e3a07000 	mov	r7, #0	; 0x0
300046bc:	e59f30bc 	ldr	r3, [pc, #188]	; 30004780 <.text+0x4780>
300046c0:	e1570002 	cmp	r7, r2
300046c4:	e5932000 	ldr	r2, [r3]
300046c8:	a8bd85f0 	ldmgeia	sp!, {r4, r5, r6, r7, r8, sl, pc}
300046cc:	e59f80b0 	ldr	r8, [pc, #176]	; 30004784 <.text+0x4784>
300046d0:	e5983000 	ldr	r3, [r8]
300046d4:	e3a04000 	mov	r4, #0	; 0x0
300046d8:	ea000002 	b	300046e8 <ClearScreen+0xb4>
300046dc:	e4c26001 	strb	r6, [r2], #1
300046e0:	e5983000 	ldr	r3, [r8]
300046e4:	e2844001 	add	r4, r4, #1	; 0x1
300046e8:	e1540003 	cmp	r4, r3
300046ec:	bafffffa 	blt	300046dc <ClearScreen+0xa8>
300046f0:	e59a3000 	ldr	r3, [sl]
300046f4:	e2877001 	add	r7, r7, #1	; 0x1
300046f8:	e1570003 	cmp	r7, r3
300046fc:	bafffff3 	blt	300046d0 <ClearScreen+0x9c>
30004700:	e8bd85f0 	ldmia	sp!, {r4, r5, r6, r7, r8, sl, pc}
30004704:	e59fa070 	ldr	sl, [pc, #112]	; 3000477c <.text+0x477c>
30004708:	e59a2000 	ldr	r2, [sl]
3000470c:	e3a07000 	mov	r7, #0	; 0x0
30004710:	e59f3068 	ldr	r3, [pc, #104]	; 30004780 <.text+0x4780>
30004714:	e1570002 	cmp	r7, r2
30004718:	e5935000 	ldr	r5, [r3]
3000471c:	a8bd85f0 	ldmgeia	sp!, {r4, r5, r6, r7, r8, sl, pc}
30004720:	e59f805c 	ldr	r8, [pc, #92]	; 30004784 <.text+0x4784>
30004724:	ea000003 	b	30004738 <ClearScreen+0x104>
30004728:	e59a3000 	ldr	r3, [sl]
3000472c:	e2877001 	add	r7, r7, #1	; 0x1
30004730:	e1570003 	cmp	r7, r3
30004734:	aa00000e 	bge	30004774 <ClearScreen+0x140>
30004738:	e5983000 	ldr	r3, [r8]
3000473c:	e3a04000 	mov	r4, #0	; 0x0
30004740:	e1540003 	cmp	r4, r3
30004744:	aafffff7 	bge	30004728 <ClearScreen+0xf4>
30004748:	e1a00006 	mov	r0, r6
3000474c:	ebffff90 	bl	30004594 <Convert32BppTo16Bpp>
30004750:	e5983000 	ldr	r3, [r8]
30004754:	e2844001 	add	r4, r4, #1	; 0x1
30004758:	e1540003 	cmp	r4, r3
3000475c:	e0c500b2 	strh	r0, [r5], #2
30004760:	bafffffb 	blt	30004754 <ClearScreen+0x120>
30004764:	e59a3000 	ldr	r3, [sl]
30004768:	e2877001 	add	r7, r7, #1	; 0x1
3000476c:	e1570003 	cmp	r7, r3
30004770:	bafffff0 	blt	30004738 <ClearScreen+0x104>
30004774:	e8bd85f0 	ldmia	sp!, {r4, r5, r6, r7, r8, sl, pc}
30004778:	3000f528 	andcc	pc, r0, r8, lsr #10
3000477c:	3000f520 	andcc	pc, r0, r0, lsr #10
30004780:	3000f51c 	andcc	pc, r0, ip, lsl r5
30004784:	3000f524 	andcc	pc, r0, r4, lsr #10

30004788 <DrawCircle>:
30004788:	e92d4ff0 	stmdb	sp!, {r4, r5, r6, r7, r8, r9, sl, fp, lr}
3000478c:	e1a0a002 	mov	sl, r2
30004790:	e0020a9a 	mul	r2, sl, sl
30004794:	e24dd00c 	sub	sp, sp, #12	; 0xc
30004798:	e1a0c002 	mov	ip, r2
3000479c:	e58d2000 	str	r2, [sp]
300047a0:	e0822102 	add	r2, r2, r2, lsl #2
300047a4:	e08c2082 	add	r2, ip, r2, lsl #1
300047a8:	e15c0082 	cmp	ip, r2, lsl #1
300047ac:	e58d0008 	str	r0, [sp, #8]
300047b0:	e58d1004 	str	r1, [sp, #4]
300047b4:	e1a08003 	mov	r8, r3
300047b8:	e3a09000 	mov	r9, #0	; 0x0
300047bc:	ca00003b 	bgt	300048b0 <DrawCircle+0x128>
300047c0:	e1a0b00c 	mov	fp, ip
300047c4:	e99d4004 	ldmib	sp, {r2, lr}
300047c8:	e08e7009 	add	r7, lr, r9
300047cc:	e06a4002 	rsb	r4, sl, r2
300047d0:	e1a00007 	mov	r0, r7
300047d4:	e1a01004 	mov	r1, r4
300047d8:	e1a02008 	mov	r2, r8
300047dc:	e069600e 	rsb	r6, r9, lr
300047e0:	ebffff73 	bl	300045b4 <PutFbPixel>
300047e4:	e59d3004 	ldr	r3, [sp, #4]
300047e8:	e1a01004 	mov	r1, r4
300047ec:	e083500a 	add	r5, r3, sl
300047f0:	e1a00006 	mov	r0, r6
300047f4:	e1a02008 	mov	r2, r8
300047f8:	ebffff6d 	bl	300045b4 <PutFbPixel>
300047fc:	e1a00006 	mov	r0, r6
30004800:	e1a01005 	mov	r1, r5
30004804:	e1a02008 	mov	r2, r8
30004808:	ebffff69 	bl	300045b4 <PutFbPixel>
3000480c:	e59dc008 	ldr	ip, [sp, #8]
30004810:	e59de004 	ldr	lr, [sp, #4]
30004814:	e1a00007 	mov	r0, r7
30004818:	e1a01005 	mov	r1, r5
3000481c:	e1a02008 	mov	r2, r8
30004820:	e08c400a 	add	r4, ip, sl
30004824:	e08e7009 	add	r7, lr, r9
30004828:	ebffff61 	bl	300045b4 <PutFbPixel>
3000482c:	e59d2004 	ldr	r2, [sp, #4]
30004830:	e1a00004 	mov	r0, r4
30004834:	e0696002 	rsb	r6, r9, r2
30004838:	e1a01007 	mov	r1, r7
3000483c:	e1a02008 	mov	r2, r8
30004840:	ebffff5b 	bl	300045b4 <PutFbPixel>
30004844:	e59d3008 	ldr	r3, [sp, #8]
30004848:	e1a00004 	mov	r0, r4
3000484c:	e06a5003 	rsb	r5, sl, r3
30004850:	e1a01006 	mov	r1, r6
30004854:	e1a02008 	mov	r2, r8
30004858:	ebffff55 	bl	300045b4 <PutFbPixel>
3000485c:	e1a01006 	mov	r1, r6
30004860:	e1a00005 	mov	r0, r5
30004864:	e1a02008 	mov	r2, r8
30004868:	ebffff51 	bl	300045b4 <PutFbPixel>
3000486c:	e2899001 	add	r9, r9, #1	; 0x1
30004870:	e1a00005 	mov	r0, r5
30004874:	e1a01007 	mov	r1, r7
30004878:	e1a02008 	mov	r2, r8
3000487c:	ebffff4c 	bl	300045b4 <PutFbPixel>
30004880:	e023b999 	mla	r3, r9, r9, fp
30004884:	e59dc000 	ldr	ip, [sp]
30004888:	e06c3003 	rsb	r3, ip, r3
3000488c:	e3530000 	cmp	r3, #0	; 0x0
30004890:	c24aa001 	subgt	sl, sl, #1	; 0x1
30004894:	c00b0a9a 	mulgt	fp, sl, sl
30004898:	e59de000 	ldr	lr, [sp]
3000489c:	e08b310b 	add	r3, fp, fp, lsl #2
300048a0:	e08b3083 	add	r3, fp, r3, lsl #1
300048a4:	c2499001 	subgt	r9, r9, #1	; 0x1
300048a8:	e15e0083 	cmp	lr, r3, lsl #1
300048ac:	daffffc4 	ble	300047c4 <DrawCircle+0x3c>
300048b0:	e28dd00c 	add	sp, sp, #12	; 0xc
300048b4:	e8bd8ff0 	ldmia	sp!, {r4, r5, r6, r7, r8, r9, sl, fp, pc}

300048b8 <DrawLine>:
300048b8:	e92d4ff0 	stmdb	sp!, {r4, r5, r6, r7, r8, r9, sl, fp, lr}
300048bc:	e0528000 	subs	r8, r2, r0
300048c0:	e1a05000 	mov	r5, r0
300048c4:	e1a0a002 	mov	sl, r2
300048c8:	e1a06001 	mov	r6, r1
300048cc:	e1a09003 	mov	r9, r3
300048d0:	e59db024 	ldr	fp, [sp, #36]
300048d4:	e0617003 	rsb	r7, r1, r3
300048d8:	4a000023 	bmi	3000496c <DrawLine+0xb4>
300048dc:	e3570000 	cmp	r7, #0	; 0x0
300048e0:	ba000036 	blt	300049c0 <DrawLine+0x108>
300048e4:	e1580007 	cmp	r8, r7
300048e8:	ba00000f 	blt	3000492c <DrawLine+0x74>
300048ec:	e0883fa8 	add	r3, r8, r8, lsr #31
300048f0:	e1500002 	cmp	r0, r2
300048f4:	e04740c3 	sub	r4, r7, r3, asr #1
300048f8:	c8bd8ff0 	ldmgtia	sp!, {r4, r5, r6, r7, r8, r9, sl, fp, pc}
300048fc:	e1a00005 	mov	r0, r5
30004900:	e1a01006 	mov	r1, r6
30004904:	e1a0200b 	mov	r2, fp
30004908:	e2855001 	add	r5, r5, #1	; 0x1
3000490c:	ebffff28 	bl	300045b4 <PutFbPixel>
30004910:	e3540000 	cmp	r4, #0	; 0x0
30004914:	c0684004 	rsbgt	r4, r8, r4
30004918:	c2866001 	addgt	r6, r6, #1	; 0x1
3000491c:	e155000a 	cmp	r5, sl
30004920:	e0844007 	add	r4, r4, r7
30004924:	dafffff4 	ble	300048fc <DrawLine+0x44>
30004928:	e8bd8ff0 	ldmia	sp!, {r4, r5, r6, r7, r8, r9, sl, fp, pc}
3000492c:	e1510003 	cmp	r1, r3
30004930:	e0873fa7 	add	r3, r7, r7, lsr #31
30004934:	e04840c3 	sub	r4, r8, r3, asr #1
30004938:	c8bd8ff0 	ldmgtia	sp!, {r4, r5, r6, r7, r8, r9, sl, fp, pc}
3000493c:	e1a00005 	mov	r0, r5
30004940:	e1a01006 	mov	r1, r6
30004944:	e1a0200b 	mov	r2, fp
30004948:	e2866001 	add	r6, r6, #1	; 0x1
3000494c:	ebffff18 	bl	300045b4 <PutFbPixel>
30004950:	e3540000 	cmp	r4, #0	; 0x0
30004954:	c0674004 	rsbgt	r4, r7, r4
30004958:	c2855001 	addgt	r5, r5, #1	; 0x1
3000495c:	e1560009 	cmp	r6, r9
30004960:	e0844008 	add	r4, r4, r8
30004964:	dafffff4 	ble	3000493c <DrawLine+0x84>
30004968:	e8bd8ff0 	ldmia	sp!, {r4, r5, r6, r7, r8, r9, sl, fp, pc}
3000496c:	e3570000 	cmp	r7, #0	; 0x0
30004970:	e2688000 	rsb	r8, r8, #0	; 0x0
30004974:	ba000044 	blt	30004a8c <DrawLine+0x1d4>
30004978:	e1580007 	cmp	r8, r7
3000497c:	ba000022 	blt	30004a0c <DrawLine+0x154>
30004980:	e0883fa8 	add	r3, r8, r8, lsr #31
30004984:	e1500002 	cmp	r0, r2
30004988:	e04740c3 	sub	r4, r7, r3, asr #1
3000498c:	b8bd8ff0 	ldmltia	sp!, {r4, r5, r6, r7, r8, r9, sl, fp, pc}
30004990:	e1a00005 	mov	r0, r5
30004994:	e1a01006 	mov	r1, r6
30004998:	e1a0200b 	mov	r2, fp
3000499c:	e2455001 	sub	r5, r5, #1	; 0x1
300049a0:	ebffff03 	bl	300045b4 <PutFbPixel>
300049a4:	e3540000 	cmp	r4, #0	; 0x0
300049a8:	c0684004 	rsbgt	r4, r8, r4
300049ac:	c2866001 	addgt	r6, r6, #1	; 0x1
300049b0:	e155000a 	cmp	r5, sl
300049b4:	e0844007 	add	r4, r4, r7
300049b8:	aafffff4 	bge	30004990 <DrawLine+0xd8>
300049bc:	e8bd8ff0 	ldmia	sp!, {r4, r5, r6, r7, r8, r9, sl, fp, pc}
300049c0:	e2677000 	rsb	r7, r7, #0	; 0x0
300049c4:	e1580007 	cmp	r8, r7
300049c8:	ba00001f 	blt	30004a4c <DrawLine+0x194>
300049cc:	e0883fa8 	add	r3, r8, r8, lsr #31
300049d0:	e1500002 	cmp	r0, r2
300049d4:	e04740c3 	sub	r4, r7, r3, asr #1
300049d8:	c8bd8ff0 	ldmgtia	sp!, {r4, r5, r6, r7, r8, r9, sl, fp, pc}
300049dc:	e1a00005 	mov	r0, r5
300049e0:	e1a01006 	mov	r1, r6
300049e4:	e1a0200b 	mov	r2, fp
300049e8:	e2855001 	add	r5, r5, #1	; 0x1
300049ec:	ebfffef0 	bl	300045b4 <PutFbPixel>
300049f0:	e3540000 	cmp	r4, #0	; 0x0
300049f4:	c0684004 	rsbgt	r4, r8, r4
300049f8:	c2466001 	subgt	r6, r6, #1	; 0x1
300049fc:	e155000a 	cmp	r5, sl
30004a00:	e0844007 	add	r4, r4, r7
30004a04:	dafffff4 	ble	300049dc <DrawLine+0x124>
30004a08:	e8bd8ff0 	ldmia	sp!, {r4, r5, r6, r7, r8, r9, sl, fp, pc}
30004a0c:	e1510003 	cmp	r1, r3
30004a10:	e0873fa7 	add	r3, r7, r7, lsr #31
30004a14:	e04840c3 	sub	r4, r8, r3, asr #1
30004a18:	c8bd8ff0 	ldmgtia	sp!, {r4, r5, r6, r7, r8, r9, sl, fp, pc}
30004a1c:	e1a00005 	mov	r0, r5
30004a20:	e1a01006 	mov	r1, r6
30004a24:	e1a0200b 	mov	r2, fp
30004a28:	e2866001 	add	r6, r6, #1	; 0x1
30004a2c:	ebfffee0 	bl	300045b4 <PutFbPixel>
30004a30:	e3540000 	cmp	r4, #0	; 0x0
30004a34:	c0674004 	rsbgt	r4, r7, r4
30004a38:	c2455001 	subgt	r5, r5, #1	; 0x1
30004a3c:	e1560009 	cmp	r6, r9
30004a40:	e0844008 	add	r4, r4, r8
30004a44:	dafffff4 	ble	30004a1c <DrawLine+0x164>
30004a48:	e8bd8ff0 	ldmia	sp!, {r4, r5, r6, r7, r8, r9, sl, fp, pc}
30004a4c:	e1510003 	cmp	r1, r3
30004a50:	e0873fa7 	add	r3, r7, r7, lsr #31
30004a54:	e04840c3 	sub	r4, r8, r3, asr #1
30004a58:	b8bd8ff0 	ldmltia	sp!, {r4, r5, r6, r7, r8, r9, sl, fp, pc}
30004a5c:	e1a00005 	mov	r0, r5
30004a60:	e1a01006 	mov	r1, r6
30004a64:	e1a0200b 	mov	r2, fp
30004a68:	e2466001 	sub	r6, r6, #1	; 0x1
30004a6c:	ebfffed0 	bl	300045b4 <PutFbPixel>
30004a70:	e3540000 	cmp	r4, #0	; 0x0
30004a74:	c0674004 	rsbgt	r4, r7, r4
30004a78:	c2855001 	addgt	r5, r5, #1	; 0x1
30004a7c:	e1560009 	cmp	r6, r9
30004a80:	e0844008 	add	r4, r4, r8
30004a84:	aafffff4 	bge	30004a5c <DrawLine+0x1a4>
30004a88:	e8bd8ff0 	ldmia	sp!, {r4, r5, r6, r7, r8, r9, sl, fp, pc}
30004a8c:	e2677000 	rsb	r7, r7, #0	; 0x0
30004a90:	e1580007 	cmp	r8, r7
30004a94:	ba00000f 	blt	30004ad8 <DrawLine+0x220>
30004a98:	e0883fa8 	add	r3, r8, r8, lsr #31
30004a9c:	e1500002 	cmp	r0, r2
30004aa0:	e04740c3 	sub	r4, r7, r3, asr #1
30004aa4:	b8bd8ff0 	ldmltia	sp!, {r4, r5, r6, r7, r8, r9, sl, fp, pc}
30004aa8:	e1a00005 	mov	r0, r5
30004aac:	e1a01006 	mov	r1, r6
30004ab0:	e1a0200b 	mov	r2, fp
30004ab4:	e2455001 	sub	r5, r5, #1	; 0x1
30004ab8:	ebfffebd 	bl	300045b4 <PutFbPixel>
30004abc:	e3540000 	cmp	r4, #0	; 0x0
30004ac0:	c0684004 	rsbgt	r4, r8, r4
30004ac4:	c2466001 	subgt	r6, r6, #1	; 0x1
30004ac8:	e155000a 	cmp	r5, sl
30004acc:	e0844007 	add	r4, r4, r7
30004ad0:	aafffff4 	bge	30004aa8 <DrawLine+0x1f0>
30004ad4:	e8bd8ff0 	ldmia	sp!, {r4, r5, r6, r7, r8, r9, sl, fp, pc}
30004ad8:	e1510003 	cmp	r1, r3
30004adc:	e0873fa7 	add	r3, r7, r7, lsr #31
30004ae0:	e04840c3 	sub	r4, r8, r3, asr #1
30004ae4:	b8bd8ff0 	ldmltia	sp!, {r4, r5, r6, r7, r8, r9, sl, fp, pc}
30004ae8:	e1a00005 	mov	r0, r5
30004aec:	e1a01006 	mov	r1, r6
30004af0:	e1a0200b 	mov	r2, fp
30004af4:	e2466001 	sub	r6, r6, #1	; 0x1
30004af8:	ebfffead 	bl	300045b4 <PutFbPixel>
30004afc:	e3540000 	cmp	r4, #0	; 0x0
30004b00:	c0674004 	rsbgt	r4, r7, r4
30004b04:	c2455001 	subgt	r5, r5, #1	; 0x1
30004b08:	e1560009 	cmp	r6, r9
30004b0c:	e0844008 	add	r4, r4, r8
30004b10:	aafffff4 	bge	30004ae8 <DrawLine+0x230>
30004b14:	e8bd8ff0 	ldmia	sp!, {r4, r5, r6, r7, r8, r9, sl, fp, pc}

30004b18 <FbDispCross>:
30004b18:	e92d4070 	stmdb	sp!, {r4, r5, r6, lr}
30004b1c:	e1a04000 	mov	r4, r0
30004b20:	e24dd004 	sub	sp, sp, #4	; 0x4
30004b24:	e1a05001 	mov	r5, r1
30004b28:	e1a06002 	mov	r6, r2
30004b2c:	e1a03001 	mov	r3, r1
30004b30:	e284200a 	add	r2, r4, #10	; 0xa
30004b34:	e240000a 	sub	r0, r0, #10	; 0xa
30004b38:	e58d6000 	str	r6, [sp]
30004b3c:	ebffff5d 	bl	300048b8 <DrawLine>
30004b40:	e1a00004 	mov	r0, r4
30004b44:	e285300a 	add	r3, r5, #10	; 0xa
30004b48:	e245100a 	sub	r1, r5, #10	; 0xa
30004b4c:	e1a02004 	mov	r2, r4
30004b50:	e58d6000 	str	r6, [sp]
30004b54:	ebffff57 	bl	300048b8 <DrawLine>
30004b58:	e28dd004 	add	sp, sp, #4	; 0x4
30004b5c:	e8bd8070 	ldmia	sp!, {r4, r5, r6, pc}

30004b60 <DrawRectangle>:
30004b60:	e92d45f0 	stmdb	sp!, {r4, r5, r6, r7, r8, sl, lr}
30004b64:	e24dd004 	sub	sp, sp, #4	; 0x4
30004b68:	e59da020 	ldr	sl, [sp, #32]
30004b6c:	e1a07000 	mov	r7, r0
30004b70:	e1a05001 	mov	r5, r1
30004b74:	e0808002 	add	r8, r0, r2
30004b78:	e0816003 	add	r6, r1, r3
30004b7c:	e3a04000 	mov	r4, #0	; 0x0
30004b80:	e0851004 	add	r1, r5, r4
30004b84:	e1a03001 	mov	r3, r1
30004b88:	e1a00007 	mov	r0, r7
30004b8c:	e1a02008 	mov	r2, r8
30004b90:	e58da000 	str	sl, [sp]
30004b94:	ebffff47 	bl	300048b8 <DrawLine>
30004b98:	e0640008 	rsb	r0, r4, r8
30004b9c:	e1a02000 	mov	r2, r0
30004ba0:	e1a01005 	mov	r1, r5
30004ba4:	e1a03006 	mov	r3, r6
30004ba8:	e58da000 	str	sl, [sp]
30004bac:	ebffff41 	bl	300048b8 <DrawLine>
30004bb0:	e0641006 	rsb	r1, r4, r6
30004bb4:	e1a03001 	mov	r3, r1
30004bb8:	e1a00008 	mov	r0, r8
30004bbc:	e1a02007 	mov	r2, r7
30004bc0:	e58da000 	str	sl, [sp]
30004bc4:	ebffff3b 	bl	300048b8 <DrawLine>
30004bc8:	e0870004 	add	r0, r7, r4
30004bcc:	e1a01006 	mov	r1, r6
30004bd0:	e2844001 	add	r4, r4, #1	; 0x1
30004bd4:	e1a02000 	mov	r2, r0
30004bd8:	e1a03005 	mov	r3, r5
30004bdc:	e58da000 	str	sl, [sp]
30004be0:	ebffff34 	bl	300048b8 <DrawLine>
30004be4:	e3540002 	cmp	r4, #2	; 0x2
30004be8:	daffffe4 	ble	30004b80 <DrawRectangle+0x20>
30004bec:	e28dd004 	add	sp, sp, #4	; 0x4
30004bf0:	e8bd85f0 	ldmia	sp!, {r4, r5, r6, r7, r8, sl, pc}

30004bf4 <InitFont>:
30004bf4:	e59f000c 	ldr	r0, [pc, #12]	; 30004c08 <.text+0x4c08>
30004bf8:	e59f100c 	ldr	r1, [pc, #12]	; 30004c0c <.text+0x4c0c>
30004bfc:	e59f200c 	ldr	r2, [pc, #12]	; 30004c10 <.text+0x4c10>
30004c00:	e59f300c 	ldr	r3, [pc, #12]	; 30004c14 <.text+0x4c14>
30004c04:	eafffcd7 	b	30003f68 <GetLcdParams>
30004c08:	3000f52c 	andcc	pc, r0, ip, lsr #10
30004c0c:	3000f530 	andcc	pc, r0, r0, lsr r5
30004c10:	3000f534 	andcc	pc, r0, r4, lsr r5
30004c14:	3000f538 	andcc	pc, r0, r8, lsr r5

30004c18 <PrintFbChar8x16>:
30004c18:	e92d4ff0 	stmdb	sp!, {r4, r5, r6, r7, r8, r9, sl, fp, lr}
30004c1c:	e1a02202 	mov	r2, r2, lsl #4
30004c20:	e1a06001 	mov	r6, r1
30004c24:	e24dd004 	sub	sp, sp, #4	; 0x4
30004c28:	e59f1070 	ldr	r1, [pc, #112]	; 30004ca0 <.text+0x4ca0>
30004c2c:	e2022eff 	and	r2, r2, #4080	; 0xff0
30004c30:	e58d0000 	str	r0, [sp]
30004c34:	e0829001 	add	r9, r2, r1
30004c38:	e1a0a003 	mov	sl, r3
30004c3c:	e286b010 	add	fp, r6, #16	; 0x10
30004c40:	e2808008 	add	r8, r0, #8	; 0x8
30004c44:	e59d4000 	ldr	r4, [sp]
30004c48:	e1580004 	cmp	r8, r4
30004c4c:	e4d97001 	ldrb	r7, [r9], #1
30004c50:	e3a05007 	mov	r5, #7	; 0x7
30004c54:	da000009 	ble	30004c80 <PrintFbChar8x16+0x68>
30004c58:	e1a03557 	mov	r3, r7, asr r5
30004c5c:	e3130001 	tst	r3, #1	; 0x1
30004c60:	e1a00004 	mov	r0, r4
30004c64:	e2455001 	sub	r5, r5, #1	; 0x1
30004c68:	e2844001 	add	r4, r4, #1	; 0x1
30004c6c:	e1a01006 	mov	r1, r6
30004c70:	e1a0200a 	mov	r2, sl
30004c74:	1a000006 	bne	30004c94 <PrintFbChar8x16+0x7c>
30004c78:	e1580004 	cmp	r8, r4
30004c7c:	cafffff5 	bgt	30004c58 <PrintFbChar8x16+0x40>
30004c80:	e2866001 	add	r6, r6, #1	; 0x1
30004c84:	e15b0006 	cmp	fp, r6
30004c88:	caffffed 	bgt	30004c44 <PrintFbChar8x16+0x2c>
30004c8c:	e28dd004 	add	sp, sp, #4	; 0x4
30004c90:	e8bd8ff0 	ldmia	sp!, {r4, r5, r6, r7, r8, r9, sl, fp, pc}
30004c94:	ebfffe46 	bl	300045b4 <PutFbPixel>
30004c98:	e1580004 	cmp	r8, r4
30004c9c:	eafffff6 	b	30004c7c <PrintFbChar8x16+0x64>
30004ca0:	30009a40 	andcc	r9, r0, r0, asr #20

30004ca4 <PrintFbChar16x32>:
30004ca4:	e92d4ff0 	stmdb	sp!, {r4, r5, r6, r7, r8, r9, sl, fp, lr}
30004ca8:	e2422020 	sub	r2, r2, #32	; 0x20
30004cac:	e20220ff 	and	r2, r2, #255	; 0xff
30004cb0:	e24dd004 	sub	sp, sp, #4	; 0x4
30004cb4:	e1a02382 	mov	r2, r2, lsl #7
30004cb8:	e59fb0b8 	ldr	fp, [pc, #184]	; 30004d78 <.text+0x4d78>
30004cbc:	e58d2000 	str	r2, [sp]
30004cc0:	e1a04001 	mov	r4, r1
30004cc4:	e1a07000 	mov	r7, r0
30004cc8:	e1a0a003 	mov	sl, r3
30004ccc:	e1a08001 	mov	r8, r1
30004cd0:	e3a09000 	mov	r9, #0	; 0x0
30004cd4:	e59d1000 	ldr	r1, [sp]
30004cd8:	e59f209c 	ldr	r2, [pc, #156]	; 30004d7c <.text+0x4d7c>
30004cdc:	e0813002 	add	r3, r1, r2
30004ce0:	e7d35009 	ldrb	r5, [r3, r9]
30004ce4:	e3a06000 	mov	r6, #0	; 0x0
30004ce8:	e3150080 	tst	r5, #128	; 0x80
30004cec:	e1a01004 	mov	r1, r4
30004cf0:	e2866001 	add	r6, r6, #1	; 0x1
30004cf4:	e2844001 	add	r4, r4, #1	; 0x1
30004cf8:	e1a00007 	mov	r0, r7
30004cfc:	e1a0200a 	mov	r2, sl
30004d00:	1a00000f 	bne	30004d44 <PrintFbChar16x32+0xa0>
30004d04:	e59b2000 	ldr	r2, [fp]
30004d08:	e1a03085 	mov	r3, r5, lsl #1
30004d0c:	e1540002 	cmp	r4, r2
30004d10:	e0681004 	rsb	r1, r8, r4
30004d14:	e20350ff 	and	r5, r3, #255	; 0xff
30004d18:	aa000007 	bge	30004d3c <PrintFbChar16x32+0x98>
30004d1c:	e3510020 	cmp	r1, #32	; 0x20
30004d20:	0a000009 	beq	30004d4c <PrintFbChar16x32+0xa8>
30004d24:	e3560007 	cmp	r6, #7	; 0x7
30004d28:	daffffee 	ble	30004ce8 <PrintFbChar16x32+0x44>
30004d2c:	e2899001 	add	r9, r9, #1	; 0x1
30004d30:	e3a03040 	mov	r3, #64	; 0x40
30004d34:	e1530009 	cmp	r3, r9
30004d38:	caffffe5 	bgt	30004cd4 <PrintFbChar16x32+0x30>
30004d3c:	e28dd004 	add	sp, sp, #4	; 0x4
30004d40:	e8bd8ff0 	ldmia	sp!, {r4, r5, r6, r7, r8, r9, sl, fp, pc}
30004d44:	ebfffe1a 	bl	300045b4 <PutFbPixel>
30004d48:	eaffffed 	b	30004d04 <PrintFbChar16x32+0x60>
30004d4c:	e59f302c 	ldr	r3, [pc, #44]	; 30004d80 <.text+0x4d80>
30004d50:	e5932000 	ldr	r2, [r3]
30004d54:	e2877001 	add	r7, r7, #1	; 0x1
30004d58:	e1570002 	cmp	r7, r2
30004d5c:	e1a04008 	mov	r4, r8
30004d60:	aafffff5 	bge	30004d3c <PrintFbChar16x32+0x98>
30004d64:	e2899001 	add	r9, r9, #1	; 0x1
30004d68:	e3a03040 	mov	r3, #64	; 0x40
30004d6c:	e1530009 	cmp	r3, r9
30004d70:	caffffd7 	bgt	30004cd4 <PrintFbChar16x32+0x30>
30004d74:	eafffff0 	b	30004d3c <PrintFbChar16x32+0x98>
30004d78:	3000f534 	andcc	pc, r0, r4, lsr r5
30004d7c:	3000aa40 	andcc	sl, r0, r0, asr #20
30004d80:	3000f530 	andcc	pc, r0, r0, lsr r5

30004d84 <PrintFbString8x16>:
30004d84:	e92d45f0 	stmdb	sp!, {r4, r5, r6, r7, r8, sl, lr}
30004d88:	e1a07002 	mov	r7, r2
30004d8c:	e5d22000 	ldrb	r2, [r2]
30004d90:	e3520000 	cmp	r2, #0	; 0x0
30004d94:	e1a04000 	mov	r4, r0
30004d98:	e1a05001 	mov	r5, r1
30004d9c:	e1a08003 	mov	r8, r3
30004da0:	e59da01c 	ldr	sl, [sp, #28]
30004da4:	e3a06000 	mov	r6, #0	; 0x0
30004da8:	08bd85f0 	ldmeqia	sp!, {r4, r5, r6, r7, r8, sl, pc}
30004dac:	e1a0c002 	mov	ip, r2
30004db0:	e35c000a 	cmp	ip, #10	; 0xa
30004db4:	02855010 	addeq	r5, r5, #16	; 0x10
30004db8:	0a000010 	beq	30004e00 <PrintFbString8x16+0x7c>
30004dbc:	e35c000d 	cmp	ip, #13	; 0xd
30004dc0:	e1a00004 	mov	r0, r4
30004dc4:	e1a0200c 	mov	r2, ip
30004dc8:	e2844008 	add	r4, r4, #8	; 0x8
30004dcc:	e1a01005 	mov	r1, r5
30004dd0:	e1a03008 	mov	r3, r8
30004dd4:	0a000008 	beq	30004dfc <PrintFbString8x16+0x78>
30004dd8:	ebffff8e 	bl	30004c18 <PrintFbChar8x16>
30004ddc:	e35a0000 	cmp	sl, #0	; 0x0
30004de0:	e3a00d7d 	mov	r0, #8000	; 0x1f40
30004de4:	1a00000a 	bne	30004e14 <PrintFbString8x16+0x90>
30004de8:	e59f302c 	ldr	r3, [pc, #44]	; 30004e1c <.text+0x4e1c>
30004dec:	e5932000 	ldr	r2, [r3]
30004df0:	e1540002 	cmp	r4, r2
30004df4:	ba000001 	blt	30004e00 <PrintFbString8x16+0x7c>
30004df8:	e2855010 	add	r5, r5, #16	; 0x10
30004dfc:	e3a04000 	mov	r4, #0	; 0x0
30004e00:	e2866001 	add	r6, r6, #1	; 0x1
30004e04:	e7d7c006 	ldrb	ip, [r7, r6]
30004e08:	e35c0000 	cmp	ip, #0	; 0x0
30004e0c:	1affffe7 	bne	30004db0 <PrintFbString8x16+0x2c>
30004e10:	e8bd85f0 	ldmia	sp!, {r4, r5, r6, r7, r8, sl, pc}
30004e14:	ebfff3f8 	bl	30001dfc <Delay>
30004e18:	eafffff2 	b	30004de8 <PrintFbString8x16+0x64>
30004e1c:	3000f530 	andcc	pc, r0, r0, lsr r5

30004e20 <PrintFbString16x32>:
30004e20:	e92d45f0 	stmdb	sp!, {r4, r5, r6, r7, r8, sl, lr}
30004e24:	e1a07002 	mov	r7, r2
30004e28:	e5d22000 	ldrb	r2, [r2]
30004e2c:	e3520000 	cmp	r2, #0	; 0x0
30004e30:	e1a04000 	mov	r4, r0
30004e34:	e1a05001 	mov	r5, r1
30004e38:	e1a08003 	mov	r8, r3
30004e3c:	e59da01c 	ldr	sl, [sp, #28]
30004e40:	e3a06000 	mov	r6, #0	; 0x0
30004e44:	08bd85f0 	ldmeqia	sp!, {r4, r5, r6, r7, r8, sl, pc}
30004e48:	e1a0c002 	mov	ip, r2
30004e4c:	e35c000a 	cmp	ip, #10	; 0xa
30004e50:	02855010 	addeq	r5, r5, #16	; 0x10
30004e54:	0a000010 	beq	30004e9c <PrintFbString16x32+0x7c>
30004e58:	e35c000d 	cmp	ip, #13	; 0xd
30004e5c:	e1a00004 	mov	r0, r4
30004e60:	e1a0200c 	mov	r2, ip
30004e64:	e2844010 	add	r4, r4, #16	; 0x10
30004e68:	e1a01005 	mov	r1, r5
30004e6c:	e1a03008 	mov	r3, r8
30004e70:	0a000008 	beq	30004e98 <PrintFbString16x32+0x78>
30004e74:	ebffff8a 	bl	30004ca4 <PrintFbChar16x32>
30004e78:	e35a0000 	cmp	sl, #0	; 0x0
30004e7c:	e3a00d7d 	mov	r0, #8000	; 0x1f40
30004e80:	1a00000a 	bne	30004eb0 <PrintFbString16x32+0x90>
30004e84:	e59f302c 	ldr	r3, [pc, #44]	; 30004eb8 <.text+0x4eb8>
30004e88:	e5932000 	ldr	r2, [r3]
30004e8c:	e1540002 	cmp	r4, r2
30004e90:	ba000001 	blt	30004e9c <PrintFbString16x32+0x7c>
30004e94:	e2855020 	add	r5, r5, #32	; 0x20
30004e98:	e3a04000 	mov	r4, #0	; 0x0
30004e9c:	e2866001 	add	r6, r6, #1	; 0x1
30004ea0:	e7d7c006 	ldrb	ip, [r7, r6]
30004ea4:	e35c0000 	cmp	ip, #0	; 0x0
30004ea8:	1affffe7 	bne	30004e4c <PrintFbString16x32+0x2c>
30004eac:	e8bd85f0 	ldmia	sp!, {r4, r5, r6, r7, r8, sl, pc}
30004eb0:	ebfff3d1 	bl	30001dfc <Delay>
30004eb4:	eafffff2 	b	30004e84 <PrintFbString16x32+0x64>
30004eb8:	3000f530 	andcc	pc, r0, r0, lsr r5

30004ebc <InitLed>:
30004ebc:	e3a03456 	mov	r3, #1442840576	; 0x56000000
30004ec0:	e5932050 	ldr	r2, [r3, #80]
30004ec4:	e3c22c3f 	bic	r2, r2, #16128	; 0x3f00
30004ec8:	e5832050 	str	r2, [r3, #80]
30004ecc:	e5931050 	ldr	r1, [r3, #80]
30004ed0:	e3a00000 	mov	r0, #0	; 0x0
30004ed4:	e3811c15 	orr	r1, r1, #5376	; 0x1500
30004ed8:	e5831050 	str	r1, [r3, #80]
30004edc:	e1a0f00e 	mov	pc, lr

30004ee0 <TestLED>:
30004ee0:	e92d4070 	stmdb	sp!, {r4, r5, r6, lr}
30004ee4:	e3e004ff 	mvn	r0, #-16777216	; 0xff000000
30004ee8:	e24dd004 	sub	sp, sp, #4	; 0x4
30004eec:	ebfffdd0 	bl	30004634 <ClearScreen>
30004ef0:	e3a038e3 	mov	r3, #14876672	; 0xe30000
30004ef4:	e2833c17 	add	r3, r3, #5888	; 0x1700
30004ef8:	e3a04000 	mov	r4, #0	; 0x0
30004efc:	e283300d 	add	r3, r3, #13	; 0xd
30004f00:	e3a000b0 	mov	r0, #176	; 0xb0
30004f04:	e3a01005 	mov	r1, #5	; 0x5
30004f08:	e59f2078 	ldr	r2, [pc, #120]	; 30004f88 <.text+0x4f88>
30004f0c:	e58d4000 	str	r4, [sp]
30004f10:	ebffffc2 	bl	30004e20 <PrintFbString16x32>
30004f14:	e3a00064 	mov	r0, #100	; 0x64
30004f18:	e3a0106e 	mov	r1, #110	; 0x6e
30004f1c:	e59f2068 	ldr	r2, [pc, #104]	; 30004f8c <.text+0x4f8c>
30004f20:	e1a03004 	mov	r3, r4
30004f24:	e58d4000 	str	r4, [sp]
30004f28:	ebffff95 	bl	30004d84 <PrintFbString8x16>
30004f2c:	ebfff67d 	bl	30002928 <DisplayReturnButton>
30004f30:	e3a05456 	mov	r5, #1442840576	; 0x56000000
30004f34:	ea000008 	b	30004f5c <TestLED+0x7c>
30004f38:	e5953054 	ldr	r3, [r5, #84]
30004f3c:	e3c33070 	bic	r3, r3, #112	; 0x70
30004f40:	e5853054 	str	r3, [r5, #84]
30004f44:	e5952054 	ldr	r2, [r5, #84]
30004f48:	e1822201 	orr	r2, r2, r1, lsl #4
30004f4c:	e5852054 	str	r2, [r5, #84]
30004f50:	ebfff3a9 	bl	30001dfc <Delay>
30004f54:	e3540008 	cmp	r4, #8	; 0x8
30004f58:	01a04006 	moveq	r4, r6
30004f5c:	ebfff450 	bl	300020a4 <isClickReturn>
30004f60:	e1e01004 	mvn	r1, r4
30004f64:	e2506000 	subs	r6, r0, #0	; 0x0
30004f68:	e3a00b61 	mov	r0, #99328	; 0x18400
30004f6c:	e2011007 	and	r1, r1, #7	; 0x7
30004f70:	e2844001 	add	r4, r4, #1	; 0x1
30004f74:	e2800e2a 	add	r0, r0, #672	; 0x2a0
30004f78:	0affffee 	beq	30004f38 <TestLED+0x58>
30004f7c:	e28dd004 	add	sp, sp, #4	; 0x4
30004f80:	e8bd4070 	ldmia	sp!, {r4, r5, r6, lr}
30004f84:	eafff73a 	b	30002c74 <MainPage>
30004f88:	3000ea68 	andcc	lr, r0, r8, ror #20
30004f8c:	3000ea74 	andcc	lr, r0, r4, ror sl

30004f90 <EnterWaitPenDownMode>:
30004f90:	e3a020d3 	mov	r2, #211	; 0xd3
30004f94:	e3a03316 	mov	r3, #1476395008	; 0x58000000
30004f98:	e5832004 	str	r2, [r3, #4]
30004f9c:	e1a0f00e 	mov	pc, lr

30004fa0 <EnterWaitPenUpMode>:
30004fa0:	e3a03e1d 	mov	r3, #464	; 0x1d0
30004fa4:	e2833003 	add	r3, r3, #3	; 0x3
30004fa8:	e3a02316 	mov	r2, #1476395008	; 0x58000000
30004fac:	e5823004 	str	r3, [r2, #4]
30004fb0:	e1a0f00e 	mov	pc, lr

30004fb4 <EnterAutoMeasureMode>:
30004fb4:	e3a02004 	mov	r2, #4	; 0x4
30004fb8:	e3a03316 	mov	r3, #1476395008	; 0x58000000
30004fbc:	e5832004 	str	r2, [r3, #4]
30004fc0:	e1a0f00e 	mov	pc, lr

30004fc4 <ReportTsXY>:
30004fc4:	e52de004 	str	lr, [sp, #-4]!
30004fc8:	e59fe030 	ldr	lr, [pc, #48]	; 30005000 <.text+0x5000>
30004fcc:	e59e3000 	ldr	r3, [lr]
30004fd0:	e3530000 	cmp	r3, #0	; 0x0
30004fd4:	e1a0c002 	mov	ip, r2
30004fd8:	149df004 	ldrne	pc, [sp], #4
30004fdc:	e59f3020 	ldr	r3, [pc, #32]	; 30005004 <.text+0x5004>
30004fe0:	e59f2020 	ldr	r2, [pc, #32]	; 30005008 <.text+0x5008>
30004fe4:	e5830000 	str	r0, [r3]
30004fe8:	e59f301c 	ldr	r3, [pc, #28]	; 3000500c <.text+0x500c>
30004fec:	e5821000 	str	r1, [r2]
30004ff0:	e3a02001 	mov	r2, #1	; 0x1
30004ff4:	e583c000 	str	ip, [r3]
30004ff8:	e58e2000 	str	r2, [lr]
30004ffc:	e49df004 	ldr	pc, [sp], #4
30005000:	3000f540 	andcc	pc, r0, r0, asr #10
30005004:	3000f550 	andcc	pc, r0, r0, asr r5
30005008:	3000f554 	andcc	pc, r0, r4, asr r5
3000500c:	3000f558 	andcc	pc, r0, r8, asr r5

30005010 <IsrTc>:
30005010:	e92d4010 	stmdb	sp!, {r4, lr}
30005014:	e3a04316 	mov	r4, #1476395008	; 0x58000000
30005018:	e594300c 	ldr	r3, [r4, #12]
3000501c:	e3130902 	tst	r3, #32768	; 0x8000
30005020:	0a000005 	beq	3000503c <IsrTc+0x2c>
30005024:	ebffffd9 	bl	30004f90 <EnterWaitPenDownMode>
30005028:	e3a00000 	mov	r0, #0	; 0x0
3000502c:	e1a01000 	mov	r1, r0
30005030:	e1a02000 	mov	r2, r0
30005034:	e8bd4010 	ldmia	sp!, {r4, lr}
30005038:	eaffffe1 	b	30004fc4 <ReportTsXY>
3000503c:	ebffffdc 	bl	30004fb4 <EnterAutoMeasureMode>
30005040:	e5943000 	ldr	r3, [r4]
30005044:	e3833001 	orr	r3, r3, #1	; 0x1
30005048:	e5843000 	str	r3, [r4]
3000504c:	e8bd8010 	ldmia	sp!, {r4, pc}

30005050 <DisableTsTimer>:
30005050:	e59f3008 	ldr	r3, [pc, #8]	; 30005060 <.text+0x5060>
30005054:	e3a02000 	mov	r2, #0	; 0x0
30005058:	e5832000 	str	r2, [r3]
3000505c:	e1a0f00e 	mov	pc, lr
30005060:	3000f53c 	andcc	pc, r0, ip, lsr r5

30005064 <ReadTsRaw>:
30005064:	e52de004 	str	lr, [sp, #-4]!
30005068:	e59fe048 	ldr	lr, [pc, #72]	; 300050b8 <.text+0x50b8>
3000506c:	e59e3000 	ldr	r3, [lr]
30005070:	e3530000 	cmp	r3, #0	; 0x0
30005074:	05803000 	streq	r3, [r0]
30005078:	e1a0c002 	mov	ip, r2
3000507c:	05813000 	streq	r3, [r1]
30005080:	05823000 	streq	r3, [r2]
30005084:	049df004 	ldreq	pc, [sp], #4
30005088:	e59f302c 	ldr	r3, [pc, #44]	; 300050bc <.text+0x50bc>
3000508c:	e5932000 	ldr	r2, [r3]
30005090:	e59f3028 	ldr	r3, [pc, #40]	; 300050c0 <.text+0x50c0>
30005094:	e5802000 	str	r2, [r0]
30005098:	e5932000 	ldr	r2, [r3]
3000509c:	e59f3020 	ldr	r3, [pc, #32]	; 300050c4 <.text+0x50c4>
300050a0:	e5812000 	str	r2, [r1]
300050a4:	e5932000 	ldr	r2, [r3]
300050a8:	e3a03000 	mov	r3, #0	; 0x0
300050ac:	e58c2000 	str	r2, [ip]
300050b0:	e58e3000 	str	r3, [lr]
300050b4:	e49df004 	ldr	pc, [sp], #4
300050b8:	3000f540 	andcc	pc, r0, r0, asr #10
300050bc:	3000f550 	andcc	pc, r0, r0, asr r5
300050c0:	3000f554 	andcc	pc, r0, r4, asr r5
300050c4:	3000f558 	andcc	pc, r0, r8, asr r5

300050c8 <TouchscreenTimerIrq>:
300050c8:	e92d4030 	stmdb	sp!, {r4, r5, lr}
300050cc:	e59f306c 	ldr	r3, [pc, #108]	; 30005140 <.text+0x5140>
300050d0:	e5932000 	ldr	r2, [r3]
300050d4:	e3520000 	cmp	r2, #0	; 0x0
300050d8:	e3a05316 	mov	r5, #1476395008	; 0x58000000
300050dc:	08bd8030 	ldmeqia	sp!, {r4, r5, pc}
300050e0:	e5953004 	ldr	r3, [r5, #4]
300050e4:	e2134004 	ands	r4, r3, #4	; 0x4
300050e8:	18bd8030 	ldmneia	sp!, {r4, r5, pc}
300050ec:	e595300c 	ldr	r3, [r5, #12]
300050f0:	e3130902 	tst	r3, #32768	; 0x8000
300050f4:	0a00000c 	beq	3000512c <TouchscreenTimerIrq+0x64>
300050f8:	ebffffd4 	bl	30005050 <DisableTsTimer>
300050fc:	ebffffa3 	bl	30004f90 <EnterWaitPenDownMode>
30005100:	e1a01004 	mov	r1, r4
30005104:	e1a02004 	mov	r2, r4
30005108:	e1a00004 	mov	r0, r4
3000510c:	ebffffac 	bl	30004fc4 <ReportTsXY>
30005110:	e3a0000a 	mov	r0, #10	; 0xa
30005114:	ebfff338 	bl	30001dfc <Delay>
30005118:	e1a00004 	mov	r0, r4
3000511c:	e1a01004 	mov	r1, r4
30005120:	e1a02004 	mov	r2, r4
30005124:	e8bd4030 	ldmia	sp!, {r4, r5, lr}
30005128:	eaffffa5 	b	30004fc4 <ReportTsXY>
3000512c:	ebffffa0 	bl	30004fb4 <EnterAutoMeasureMode>
30005130:	e5953000 	ldr	r3, [r5]
30005134:	e3833001 	orr	r3, r3, #1	; 0x1
30005138:	e5853000 	str	r3, [r5]
3000513c:	e8bd8030 	ldmia	sp!, {r4, r5, pc}
30005140:	3000f53c 	andcc	pc, r0, ip, lsr r5

30005144 <IsrAdc>:
30005144:	e92d4ff0 	stmdb	sp!, {r4, r5, r6, r7, r8, r9, sl, fp, lr}
30005148:	e3a08316 	mov	r8, #1476395008	; 0x58000000
3000514c:	e598400c 	ldr	r4, [r8, #12]
30005150:	e5985010 	ldr	r5, [r8, #16]
30005154:	ebffff91 	bl	30004fa0 <EnterWaitPenUpMode>
30005158:	e598300c 	ldr	r3, [r8, #12]
3000515c:	e1a06b04 	mov	r6, r4, lsl #22
30005160:	e1a05b05 	mov	r5, r5, lsl #22
30005164:	e213a902 	ands	sl, r3, #32768	; 0x8000
30005168:	e3a07000 	mov	r7, #0	; 0x0
3000516c:	e59fb0f4 	ldr	fp, [pc, #244]	; 30005268 <.text+0x5268>
30005170:	e59f90f4 	ldr	r9, [pc, #244]	; 3000526c <.text+0x526c>
30005174:	e1a06b26 	mov	r6, r6, lsr #22
30005178:	e1a05b25 	mov	r5, r5, lsr #22
3000517c:	1a00001a 	bne	300051ec <IsrAdc+0xa8>
30005180:	e59f30e8 	ldr	r3, [pc, #232]	; 30005270 <.text+0x5270>
30005184:	e599e000 	ldr	lr, [r9]
30005188:	e5930000 	ldr	r0, [r3]
3000518c:	e59f10e0 	ldr	r1, [pc, #224]	; 30005274 <.text+0x5274>
30005190:	e59bc000 	ldr	ip, [fp]
30005194:	e59f30dc 	ldr	r3, [pc, #220]	; 30005278 <.text+0x5278>
30005198:	e3a02001 	mov	r2, #1	; 0x1
3000519c:	e0804002 	add	r4, r0, r2
300051a0:	e7815100 	str	r5, [r1, r0, lsl #2]
300051a4:	e086c00c 	add	ip, r6, ip
300051a8:	e085500e 	add	r5, r5, lr
300051ac:	e59fe0bc 	ldr	lr, [pc, #188]	; 30005270 <.text+0x5270>
300051b0:	e7836100 	str	r6, [r3, r0, lsl #2]
300051b4:	e3540010 	cmp	r4, #16	; 0x10
300051b8:	e1a0624c 	mov	r6, ip, asr #4
300051bc:	e1a03245 	mov	r3, r5, asr #4
300051c0:	e1a00006 	mov	r0, r6
300051c4:	e1a01003 	mov	r1, r3
300051c8:	e58e4000 	str	r4, [lr]
300051cc:	0a000019 	beq	30005238 <IsrAdc+0xf4>
300051d0:	e58bc000 	str	ip, [fp]
300051d4:	e5895000 	str	r5, [r9]
300051d8:	ebffff75 	bl	30004fb4 <EnterAutoMeasureMode>
300051dc:	e5983000 	ldr	r3, [r8]
300051e0:	e3833001 	orr	r3, r3, #1	; 0x1
300051e4:	e5883000 	str	r3, [r8]
300051e8:	e8bd8ff0 	ldmia	sp!, {r4, r5, r6, r7, r8, r9, sl, fp, pc}
300051ec:	e59f307c 	ldr	r3, [pc, #124]	; 30005270 <.text+0x5270>
300051f0:	e59f2070 	ldr	r2, [pc, #112]	; 30005268 <.text+0x5268>
300051f4:	e5837000 	str	r7, [r3]
300051f8:	e59f306c 	ldr	r3, [pc, #108]	; 3000526c <.text+0x526c>
300051fc:	e5827000 	str	r7, [r2]
30005200:	e5837000 	str	r7, [r3]
30005204:	ebffff91 	bl	30005050 <DisableTsTimer>
30005208:	ebffff60 	bl	30004f90 <EnterWaitPenDownMode>
3000520c:	e1a01007 	mov	r1, r7
30005210:	e1a02007 	mov	r2, r7
30005214:	e1a00007 	mov	r0, r7
30005218:	ebffff69 	bl	30004fc4 <ReportTsXY>
3000521c:	e3a0000a 	mov	r0, #10	; 0xa
30005220:	ebfff2f5 	bl	30001dfc <Delay>
30005224:	e1a00007 	mov	r0, r7
30005228:	e1a01007 	mov	r1, r7
3000522c:	e1a02007 	mov	r2, r7
30005230:	e8bd4ff0 	ldmia	sp!, {r4, r5, r6, r7, r8, r9, sl, fp, lr}
30005234:	eaffff62 	b	30004fc4 <ReportTsXY>
30005238:	e58b6000 	str	r6, [fp]
3000523c:	e5893000 	str	r3, [r9]
30005240:	ebffff5f 	bl	30004fc4 <ReportTsXY>
30005244:	e59f3024 	ldr	r3, [pc, #36]	; 30005270 <.text+0x5270>
30005248:	e58ba000 	str	sl, [fp]
3000524c:	e583a000 	str	sl, [r3]
30005250:	e589a000 	str	sl, [r9]
30005254:	ebffff51 	bl	30004fa0 <EnterWaitPenUpMode>
30005258:	e59f301c 	ldr	r3, [pc, #28]	; 3000527c <.text+0x527c>
3000525c:	e3a02001 	mov	r2, #1	; 0x1
30005260:	e5832000 	str	r2, [r3]
30005264:	e8bd8ff0 	ldmia	sp!, {r4, r5, r6, r7, r8, r9, sl, fp, pc}
30005268:	3000f548 	andcc	pc, r0, r8, asr #10
3000526c:	3000f54c 	andcc	pc, r0, ip, asr #10
30005270:	3000f544 	andcc	pc, r0, r4, asr #10
30005274:	3000f59c 	mulcc	r0, ip, r5
30005278:	3000f55c 	andcc	pc, r0, ip, asr r5
3000527c:	3000f53c 	andcc	pc, r0, ip, lsr r5

30005280 <AdcTsIntHandle>:
30005280:	e92d4010 	stmdb	sp!, {r4, lr}
30005284:	e3a0444a 	mov	r4, #1241513984	; 0x4a000000
30005288:	e5943018 	ldr	r3, [r4, #24]
3000528c:	e3130c02 	tst	r3, #512	; 0x200
30005290:	1a000005 	bne	300052ac <AdcTsIntHandle+0x2c>
30005294:	e5943018 	ldr	r3, [r4, #24]
30005298:	e3130b01 	tst	r3, #1024	; 0x400
3000529c:	1a000006 	bne	300052bc <AdcTsIntHandle+0x3c>
300052a0:	e3a03c06 	mov	r3, #1536	; 0x600
300052a4:	e5843018 	str	r3, [r4, #24]
300052a8:	e8bd8010 	ldmia	sp!, {r4, pc}
300052ac:	ebffff57 	bl	30005010 <IsrTc>
300052b0:	e5943018 	ldr	r3, [r4, #24]
300052b4:	e3130b01 	tst	r3, #1024	; 0x400
300052b8:	0afffff8 	beq	300052a0 <AdcTsIntHandle+0x20>
300052bc:	ebffffa0 	bl	30005144 <IsrAdc>
300052c0:	e3a03c06 	mov	r3, #1536	; 0x600
300052c4:	e5843018 	str	r3, [r4, #24]
300052c8:	e8bd8010 	ldmia	sp!, {r4, pc}

300052cc <InitAdcTsInt>:
300052cc:	e92d4010 	stmdb	sp!, {r4, lr}
300052d0:	e3a03c06 	mov	r3, #1536	; 0x600
300052d4:	e3a0444a 	mov	r4, #1241513984	; 0x4a000000
300052d8:	e5843018 	str	r3, [r4, #24]
300052dc:	e3a0001f 	mov	r0, #31	; 0x1f
300052e0:	e59f1010 	ldr	r1, [pc, #16]	; 300052f8 <.text+0x52f8>
300052e4:	ebfff21e 	bl	30001b64 <RegisterIrq>
300052e8:	e594301c 	ldr	r3, [r4, #28]
300052ec:	e3c33c06 	bic	r3, r3, #1536	; 0x600
300052f0:	e584301c 	str	r3, [r4, #28]
300052f4:	e8bd8010 	ldmia	sp!, {r4, pc}
300052f8:	30005280 	andcc	r5, r0, r0, lsl #5

300052fc <InitAdcTsReg>:
300052fc:	e3a03b13 	mov	r3, #19456	; 0x4c00
30005300:	e3a02cea 	mov	r2, #59904	; 0xea00
30005304:	e3a01316 	mov	r1, #1476395008	; 0x58000000
30005308:	e2833040 	add	r3, r3, #64	; 0x40
3000530c:	e2822060 	add	r2, r2, #96	; 0x60
30005310:	e5813000 	str	r3, [r1]
30005314:	e5812008 	str	r2, [r1, #8]
30005318:	e1a0f00e 	mov	pc, lr

3000531c <InitTouchScreen>:
3000531c:	e52de004 	str	lr, [sp, #-4]!
30005320:	ebfffff5 	bl	300052fc <InitAdcTsReg>
30005324:	ebffffe8 	bl	300052cc <InitAdcTsInt>
30005328:	e59f100c 	ldr	r1, [pc, #12]	; 3000533c <.text+0x533c>
3000532c:	e59f000c 	ldr	r0, [pc, #12]	; 30005340 <.text+0x5340>
30005330:	ebfff215 	bl	30001b8c <RegisterTimer>
30005334:	e49de004 	ldr	lr, [sp], #4
30005338:	eaffff14 	b	30004f90 <EnterWaitPenDownMode>
3000533c:	300050c8 	andcc	r5, r0, r8, asr #1
30005340:	3000ea9c 	mulcc	r0, ip, sl

30005344 <print_test_array>:
30005344:	e92d4030 	stmdb	sp!, {r4, r5, lr}
30005348:	e59f005c 	ldr	r0, [pc, #92]	; 300053ac <.text+0x53ac>
3000534c:	ebfff0e0 	bl	300016d4 <printf>
30005350:	e59f5058 	ldr	r5, [pc, #88]	; 300053b0 <.text+0x53b0>
30005354:	e3a04000 	mov	r4, #0	; 0x0
30005358:	e7951104 	ldr	r1, [r5, r4, lsl #2]
3000535c:	e59f0050 	ldr	r0, [pc, #80]	; 300053b4 <.text+0x53b4>
30005360:	e2844001 	add	r4, r4, #1	; 0x1
30005364:	ebfff0da 	bl	300016d4 <printf>
30005368:	e354000f 	cmp	r4, #15	; 0xf
3000536c:	dafffff9 	ble	30005358 <print_test_array+0x14>
30005370:	e59f0040 	ldr	r0, [pc, #64]	; 300053b8 <.text+0x53b8>
30005374:	ebfff0d6 	bl	300016d4 <printf>
30005378:	e59f003c 	ldr	r0, [pc, #60]	; 300053bc <.text+0x53bc>
3000537c:	ebfff0d4 	bl	300016d4 <printf>
30005380:	e59f5038 	ldr	r5, [pc, #56]	; 300053c0 <.text+0x53c0>
30005384:	e3a04000 	mov	r4, #0	; 0x0
30005388:	e7951104 	ldr	r1, [r5, r4, lsl #2]
3000538c:	e59f0020 	ldr	r0, [pc, #32]	; 300053b4 <.text+0x53b4>
30005390:	e2844001 	add	r4, r4, #1	; 0x1
30005394:	ebfff0ce 	bl	300016d4 <printf>
30005398:	e354000f 	cmp	r4, #15	; 0xf
3000539c:	dafffff9 	ble	30005388 <print_test_array+0x44>
300053a0:	e59f0010 	ldr	r0, [pc, #16]	; 300053b8 <.text+0x53b8>
300053a4:	e8bd4030 	ldmia	sp!, {r4, r5, lr}
300053a8:	eafff0c9 	b	300016d4 <printf>
300053ac:	3000eaa8 	andcc	lr, r0, r8, lsr #21
300053b0:	3000f55c 	andcc	pc, r0, ip, asr r5
300053b4:	3000eab8 	strcch	lr, [r0], -r8
300053b8:	3000efc4 	andcc	lr, r0, r4, asr #31
300053bc:	3000eac0 	andcc	lr, r0, r0, asr #21
300053c0:	3000f59c 	mulcc	r0, ip, r5

300053c4 <TestTouchScreen>:
300053c4:	e92d4010 	stmdb	sp!, {r4, lr}
300053c8:	e24dd020 	sub	sp, sp, #32	; 0x20
300053cc:	e28d1018 	add	r1, sp, #24	; 0x18
300053d0:	e28d2014 	add	r2, sp, #20	; 0x14
300053d4:	e28d3010 	add	r3, sp, #16	; 0x10
300053d8:	e28d001c 	add	r0, sp, #28	; 0x1c
300053dc:	ebfffae1 	bl	30003f68 <GetLcdParams>
300053e0:	e3a00000 	mov	r0, #0	; 0x0
300053e4:	ebfffc92 	bl	30004634 <ClearScreen>
300053e8:	e3a038e3 	mov	r3, #14876672	; 0xe30000
300053ec:	e2833c17 	add	r3, r3, #5888	; 0x1700
300053f0:	e3a04000 	mov	r4, #0	; 0x0
300053f4:	e283300d 	add	r3, r3, #13	; 0xd
300053f8:	e3a000b0 	mov	r0, #176	; 0xb0
300053fc:	e3a01005 	mov	r1, #5	; 0x5
30005400:	e59f20d4 	ldr	r2, [pc, #212]	; 300054dc <.text+0x54dc>
30005404:	e58d4000 	str	r4, [sp]
30005408:	ebfffe84 	bl	30004e20 <PrintFbString16x32>
3000540c:	e3a00046 	mov	r0, #70	; 0x46
30005410:	e1a01000 	mov	r1, r0
30005414:	e59f20c4 	ldr	r2, [pc, #196]	; 300054e0 <.text+0x54e0>
30005418:	e3e034ff 	mvn	r3, #-16777216	; 0xff000000
3000541c:	e58d4000 	str	r4, [sp]
30005420:	ebfffe57 	bl	30004d84 <PrintFbString8x16>
30005424:	ebfff53f 	bl	30002928 <DisplayReturnButton>
30005428:	e28448ff 	add	r4, r4, #16711680	; 0xff0000
3000542c:	ebfff31c 	bl	300020a4 <isClickReturn>
30005430:	e3500000 	cmp	r0, #0	; 0x0
30005434:	e28d1008 	add	r1, sp, #8	; 0x8
30005438:	e28d2004 	add	r2, sp, #4	; 0x4
3000543c:	e28d000c 	add	r0, sp, #12	; 0xc
30005440:	1a000022 	bne	300054d0 <TestTouchScreen+0x10c>
30005444:	eb0002be 	bl	30005f44 <ReadTs>
30005448:	e3500000 	cmp	r0, #0	; 0x0
3000544c:	1afffff6 	bne	3000542c <TestTouchScreen+0x68>
30005450:	e59d3004 	ldr	r3, [sp, #4]
30005454:	e3530000 	cmp	r3, #0	; 0x0
30005458:	0afffff3 	beq	3000542c <TestTouchScreen+0x68>
3000545c:	e59d000c 	ldr	r0, [sp, #12]
30005460:	e59d1008 	ldr	r1, [sp, #8]
30005464:	e2802001 	add	r2, r0, #1	; 0x1
30005468:	e2813001 	add	r3, r1, #1	; 0x1
3000546c:	e2400001 	sub	r0, r0, #1	; 0x1
30005470:	e2411001 	sub	r1, r1, #1	; 0x1
30005474:	e58d4000 	str	r4, [sp]
30005478:	ebfffd0e 	bl	300048b8 <DrawLine>
3000547c:	e59d000c 	ldr	r0, [sp, #12]
30005480:	e59d1008 	ldr	r1, [sp, #8]
30005484:	e2802001 	add	r2, r0, #1	; 0x1
30005488:	e1a03001 	mov	r3, r1
3000548c:	e2400001 	sub	r0, r0, #1	; 0x1
30005490:	e58d4000 	str	r4, [sp]
30005494:	ebfffd07 	bl	300048b8 <DrawLine>
30005498:	e59d1008 	ldr	r1, [sp, #8]
3000549c:	e59d000c 	ldr	r0, [sp, #12]
300054a0:	e2811001 	add	r1, r1, #1	; 0x1
300054a4:	e2802001 	add	r2, r0, #1	; 0x1
300054a8:	e1a03001 	mov	r3, r1
300054ac:	e2400001 	sub	r0, r0, #1	; 0x1
300054b0:	e58d4000 	str	r4, [sp]
300054b4:	ebfffcff 	bl	300048b8 <DrawLine>
300054b8:	ebfff2f9 	bl	300020a4 <isClickReturn>
300054bc:	e3500000 	cmp	r0, #0	; 0x0
300054c0:	e28d1008 	add	r1, sp, #8	; 0x8
300054c4:	e28d2004 	add	r2, sp, #4	; 0x4
300054c8:	e28d000c 	add	r0, sp, #12	; 0xc
300054cc:	0affffdc 	beq	30005444 <TestTouchScreen+0x80>
300054d0:	ebfff5e7 	bl	30002c74 <MainPage>
300054d4:	e28dd020 	add	sp, sp, #32	; 0x20
300054d8:	e8bd8010 	ldmia	sp!, {r4, pc}
300054dc:	3000ead0 	ldrccd	lr, [r0], -r0
300054e0:	3000eadc 	ldrccd	lr, [r0], -ip

300054e4 <GetLcdXFrmTsX>:
300054e4:	e92d4030 	stmdb	sp!, {r4, r5, lr}
300054e8:	e59f3044 	ldr	r3, [pc, #68]	; 30005534 <.text+0x5534>
300054ec:	e5932000 	ldr	r2, [r3]
300054f0:	e0620000 	rsb	r0, r2, r0
300054f4:	eb000fb3 	bl	300093c8 <__floatsidf>
300054f8:	e59fc038 	ldr	ip, [pc, #56]	; 30005538 <.text+0x5538>
300054fc:	e89c000c 	ldmia	ip, {r2, r3}
30005500:	eb000fce 	bl	30009440 <__muldf3>
30005504:	e59f3030 	ldr	r3, [pc, #48]	; 3000553c <.text+0x553c>
30005508:	e1a05001 	mov	r5, r1
3000550c:	e1a04000 	mov	r4, r0
30005510:	e5930000 	ldr	r0, [r3]
30005514:	eb000fab 	bl	300093c8 <__floatsidf>
30005518:	e1a03001 	mov	r3, r1
3000551c:	e1a02000 	mov	r2, r0
30005520:	e1a01005 	mov	r1, r5
30005524:	e1a00004 	mov	r0, r4
30005528:	eb000ee3 	bl	300090bc <__adddf3>
3000552c:	eb001123 	bl	300099c0 <__fixdfsi>
30005530:	e8bd8030 	ldmia	sp!, {r4, r5, pc}
30005534:	3000f5f0 	strccd	pc, [r0], -r0
30005538:	3000f5e0 	andcc	pc, r0, r0, ror #11
3000553c:	3000f5f8 	strccd	pc, [r0], -r8

30005540 <GetLcdYFrmTsY>:
30005540:	e92d4030 	stmdb	sp!, {r4, r5, lr}
30005544:	e59f3044 	ldr	r3, [pc, #68]	; 30005590 <.text+0x5590>
30005548:	e5932000 	ldr	r2, [r3]
3000554c:	e0620000 	rsb	r0, r2, r0
30005550:	eb000f9c 	bl	300093c8 <__floatsidf>
30005554:	e59fc038 	ldr	ip, [pc, #56]	; 30005594 <.text+0x5594>
30005558:	e89c000c 	ldmia	ip, {r2, r3}
3000555c:	eb000fb7 	bl	30009440 <__muldf3>
30005560:	e59f3030 	ldr	r3, [pc, #48]	; 30005598 <.text+0x5598>
30005564:	e1a05001 	mov	r5, r1
30005568:	e1a04000 	mov	r4, r0
3000556c:	e5930000 	ldr	r0, [r3]
30005570:	eb000f94 	bl	300093c8 <__floatsidf>
30005574:	e1a03001 	mov	r3, r1
30005578:	e1a02000 	mov	r2, r0
3000557c:	e1a01005 	mov	r1, r5
30005580:	e1a00004 	mov	r0, r4
30005584:	eb000ecc 	bl	300090bc <__adddf3>
30005588:	eb00110c 	bl	300099c0 <__fixdfsi>
3000558c:	e8bd8030 	ldmia	sp!, {r4, r5, pc}
30005590:	3000f5f4 	strccd	pc, [r0], -r4
30005594:	3000f5e8 	andcc	pc, r0, r8, ror #11
30005598:	3000f5fc 	strccd	pc, [r0], -ip

3000559c <SeekDifference>:
3000559c:	e0611000 	rsb	r1, r1, r0
300055a0:	e0210fc1 	eor	r0, r1, r1, asr #31
300055a4:	e0400fc1 	sub	r0, r0, r1, asr #31
300055a8:	e1a0f00e 	mov	pc, lr

300055ac <SetTsCalibrateParams>:
300055ac:	e92d4ff0 	stmdb	sp!, {r4, r5, r6, r7, r8, r9, sl, fp, lr}
300055b0:	e59f41c0 	ldr	r4, [pc, #448]	; 30005778 <.text+0x5778>
300055b4:	e1a06000 	mov	r6, r0
300055b8:	e1a01004 	mov	r1, r4
300055bc:	e59f21b8 	ldr	r2, [pc, #440]	; 3000577c <.text+0x577c>
300055c0:	e59f31b8 	ldr	r3, [pc, #440]	; 30005780 <.text+0x5780>
300055c4:	e59f01b8 	ldr	r0, [pc, #440]	; 30005784 <.text+0x5784>
300055c8:	ebfffa66 	bl	30003f68 <GetLcdParams>
300055cc:	e5963010 	ldr	r3, [r6, #16]
300055d0:	e5969018 	ldr	r9, [r6, #24]
300055d4:	e594a000 	ldr	sl, [r4]
300055d8:	e596c020 	ldr	ip, [r6, #32]
300055dc:	e5962008 	ldr	r2, [r6, #8]
300055e0:	e596101c 	ldr	r1, [r6, #28]
300055e4:	e596800c 	ldr	r8, [r6, #12]
300055e8:	e5967014 	ldr	r7, [r6, #20]
300055ec:	e0639009 	rsb	r9, r3, r9
300055f0:	e24a0064 	sub	r0, sl, #100	; 0x64
300055f4:	e5963004 	ldr	r3, [r6, #4]
300055f8:	e1a00080 	mov	r0, r0, lsl #1
300055fc:	e062b00c 	rsb	fp, r2, ip
30005600:	e0638008 	rsb	r8, r3, r8
30005604:	e0617007 	rsb	r7, r1, r7
30005608:	eb000f6e 	bl	300093c8 <__floatsidf>
3000560c:	e1a05001 	mov	r5, r1
30005610:	e1a04000 	mov	r4, r0
30005614:	e0880007 	add	r0, r8, r7
30005618:	eb000f6a 	bl	300093c8 <__floatsidf>
3000561c:	e1a03001 	mov	r3, r1
30005620:	e1a02000 	mov	r2, r0
30005624:	e1a01005 	mov	r1, r5
30005628:	e1a00004 	mov	r0, r4
3000562c:	eb001048 	bl	30009754 <__divdf3>
30005630:	e59f3144 	ldr	r3, [pc, #324]	; 3000577c <.text+0x577c>
30005634:	e5937000 	ldr	r7, [r3]
30005638:	e59f3148 	ldr	r3, [pc, #328]	; 30005788 <.text+0x5788>
3000563c:	e2472064 	sub	r2, r7, #100	; 0x64
30005640:	e8830003 	stmia	r3, {r0, r1}
30005644:	e1a00082 	mov	r0, r2, lsl #1
30005648:	eb000f5e 	bl	300093c8 <__floatsidf>
3000564c:	e1a05001 	mov	r5, r1
30005650:	e1a04000 	mov	r4, r0
30005654:	e08b0009 	add	r0, fp, r9
30005658:	eb000f5a 	bl	300093c8 <__floatsidf>
3000565c:	e1a03001 	mov	r3, r1
30005660:	e1a02000 	mov	r2, r0
30005664:	e1a01005 	mov	r1, r5
30005668:	e1a00004 	mov	r0, r4
3000566c:	eb001038 	bl	30009754 <__divdf3>
30005670:	e59f3114 	ldr	r3, [pc, #276]	; 3000578c <.text+0x578c>
30005674:	e596c024 	ldr	ip, [r6, #36]
30005678:	e8830003 	stmia	r3, {r0, r1}
3000567c:	e59f310c 	ldr	r3, [pc, #268]	; 30005790 <.text+0x5790>
30005680:	e596e028 	ldr	lr, [r6, #40]
30005684:	e596402c 	ldr	r4, [r6, #44]
30005688:	e5960004 	ldr	r0, [r6, #4]
3000568c:	e59f2100 	ldr	r2, [pc, #256]	; 30005794 <.text+0x5794>
30005690:	e583c000 	str	ip, [r3]
30005694:	e08aafaa 	add	sl, sl, sl, lsr #31
30005698:	e59f30f8 	ldr	r3, [pc, #248]	; 30005798 <.text+0x5798>
3000569c:	e1a0a0ca 	mov	sl, sl, asr #1
300056a0:	e582e000 	str	lr, [r2]
300056a4:	e0877fa7 	add	r7, r7, r7, lsr #31
300056a8:	e583a000 	str	sl, [r3]
300056ac:	e59f20e8 	ldr	r2, [pc, #232]	; 3000579c <.text+0x579c>
300056b0:	e59f30e8 	ldr	r3, [pc, #232]	; 300057a0 <.text+0x57a0>
300056b4:	e1a070c7 	mov	r7, r7, asr #1
300056b8:	e5827000 	str	r7, [r2]
300056bc:	e5834000 	str	r4, [r3]
300056c0:	ebffff87 	bl	300054e4 <GetLcdXFrmTsX>
300056c4:	e1a04000 	mov	r4, r0
300056c8:	e5960008 	ldr	r0, [r6, #8]
300056cc:	ebffff9b 	bl	30005540 <GetLcdYFrmTsY>
300056d0:	e1a01004 	mov	r1, r4
300056d4:	e1a02000 	mov	r2, r0
300056d8:	e59f00c4 	ldr	r0, [pc, #196]	; 300057a4 <.text+0x57a4>
300056dc:	ebffeffc 	bl	300016d4 <printf>
300056e0:	e596000c 	ldr	r0, [r6, #12]
300056e4:	ebffff7e 	bl	300054e4 <GetLcdXFrmTsX>
300056e8:	e1a04000 	mov	r4, r0
300056ec:	e5960010 	ldr	r0, [r6, #16]
300056f0:	ebffff92 	bl	30005540 <GetLcdYFrmTsY>
300056f4:	e1a01004 	mov	r1, r4
300056f8:	e1a02000 	mov	r2, r0
300056fc:	e59f00a4 	ldr	r0, [pc, #164]	; 300057a8 <.text+0x57a8>
30005700:	ebffeff3 	bl	300016d4 <printf>
30005704:	e5960014 	ldr	r0, [r6, #20]
30005708:	ebffff75 	bl	300054e4 <GetLcdXFrmTsX>
3000570c:	e1a04000 	mov	r4, r0
30005710:	e5960018 	ldr	r0, [r6, #24]
30005714:	ebffff89 	bl	30005540 <GetLcdYFrmTsY>
30005718:	e1a01004 	mov	r1, r4
3000571c:	e1a02000 	mov	r2, r0
30005720:	e59f0084 	ldr	r0, [pc, #132]	; 300057ac <.text+0x57ac>
30005724:	ebffefea 	bl	300016d4 <printf>
30005728:	e596001c 	ldr	r0, [r6, #28]
3000572c:	ebffff6c 	bl	300054e4 <GetLcdXFrmTsX>
30005730:	e1a04000 	mov	r4, r0
30005734:	e5960020 	ldr	r0, [r6, #32]
30005738:	ebffff80 	bl	30005540 <GetLcdYFrmTsY>
3000573c:	e1a01004 	mov	r1, r4
30005740:	e1a02000 	mov	r2, r0
30005744:	e59f0064 	ldr	r0, [pc, #100]	; 300057b0 <.text+0x57b0>
30005748:	ebffefe1 	bl	300016d4 <printf>
3000574c:	e5960024 	ldr	r0, [r6, #36]
30005750:	ebffff63 	bl	300054e4 <GetLcdXFrmTsX>
30005754:	e1a04000 	mov	r4, r0
30005758:	e5960028 	ldr	r0, [r6, #40]
3000575c:	ebffff77 	bl	30005540 <GetLcdYFrmTsY>
30005760:	e1a01004 	mov	r1, r4
30005764:	e1a02000 	mov	r2, r0
30005768:	e59f0044 	ldr	r0, [pc, #68]	; 300057b4 <.text+0x57b4>
3000576c:	ebffefd8 	bl	300016d4 <printf>
30005770:	e3a00000 	mov	r0, #0	; 0x0
30005774:	e8bd8ff0 	ldmia	sp!, {r4, r5, r6, r7, r8, r9, sl, fp, pc}
30005778:	3000f604 	andcc	pc, r0, r4, lsl #12
3000577c:	3000f608 	andcc	pc, r0, r8, lsl #12
30005780:	3000f60c 	andcc	pc, r0, ip, lsl #12
30005784:	3000f600 	andcc	pc, r0, r0, lsl #12
30005788:	3000f5e0 	andcc	pc, r0, r0, ror #11
3000578c:	3000f5e8 	andcc	pc, r0, r8, ror #11
30005790:	3000f5f0 	strccd	pc, [r0], -r0
30005794:	3000f5f4 	strccd	pc, [r0], -r4
30005798:	3000f5f8 	strccd	pc, [r0], -r8
3000579c:	3000f5fc 	strccd	pc, [r0], -ip
300057a0:	3000f5dc 	ldrccd	pc, [r0], -ip
300057a4:	3000eaec 	andcc	lr, r0, ip, ror #21
300057a8:	3000eb0c 	andcc	lr, r0, ip, lsl #22
300057ac:	3000eb2c 	andcc	lr, r0, ip, lsr #22
300057b0:	3000eb4c 	andcc	lr, r0, ip, asr #22
300057b4:	3000eb6c 	andcc	lr, r0, ip, ror #22

300057b8 <GetCalibratePointData>:
300057b8:	e92d4ff0 	stmdb	sp!, {r4, r5, r6, r7, r8, r9, sl, fp, lr}
300057bc:	e24dd024 	sub	sp, sp, #36	; 0x24
300057c0:	e3a0c000 	mov	ip, #0	; 0x0
300057c4:	e58d200c 	str	r2, [sp, #12]
300057c8:	e3e024ff 	mvn	r2, #-16777216	; 0xff000000
300057cc:	e58d3008 	str	r3, [sp, #8]
300057d0:	e58dc000 	str	ip, [sp]
300057d4:	e58dc018 	str	ip, [sp, #24]
300057d8:	e58d0014 	str	r0, [sp, #20]
300057dc:	e58d1010 	str	r1, [sp, #16]
300057e0:	ebfffccc 	bl	30004b18 <FbDispCross>
300057e4:	e59d3000 	ldr	r3, [sp]
300057e8:	e3e07000 	mvn	r7, #0	; 0x0
300057ec:	e58d3004 	str	r3, [sp, #4]
300057f0:	e1a06007 	mov	r6, r7
300057f4:	e1a08003 	mov	r8, r3
300057f8:	e28db020 	add	fp, sp, #32	; 0x20
300057fc:	e28d901c 	add	r9, sp, #28	; 0x1c
30005800:	e28da018 	add	sl, sp, #24	; 0x18
30005804:	e1a0000b 	mov	r0, fp
30005808:	e1a01009 	mov	r1, r9
3000580c:	e1a0200a 	mov	r2, sl
30005810:	ebfffe13 	bl	30005064 <ReadTsRaw>
30005814:	e59d3018 	ldr	r3, [sp, #24]
30005818:	e3530000 	cmp	r3, #0	; 0x0
3000581c:	0afffff8 	beq	30005804 <GetCalibratePointData+0x4c>
30005820:	ea000008 	b	30005848 <GetCalibratePointData+0x90>
30005824:	e59d5020 	ldr	r5, [sp, #32]
30005828:	e1a00005 	mov	r0, r5
3000582c:	ebffff5a 	bl	3000559c <SeekDifference>
30005830:	e3500032 	cmp	r0, #50	; 0x32
30005834:	e1a01007 	mov	r1, r7
30005838:	da00002a 	ble	300058e8 <GetCalibratePointData+0x130>
3000583c:	e59d4018 	ldr	r4, [sp, #24]
30005840:	e3540000 	cmp	r4, #0	; 0x0
30005844:	0a000017 	beq	300058a8 <GetCalibratePointData+0xf0>
30005848:	e1a01009 	mov	r1, r9
3000584c:	e1a0200a 	mov	r2, sl
30005850:	e1a0000b 	mov	r0, fp
30005854:	ebfffe02 	bl	30005064 <ReadTsRaw>
30005858:	e3770001 	cmn	r7, #1	; 0x1
3000585c:	13760001 	cmnne	r6, #1	; 0x1
30005860:	e1a01006 	mov	r1, r6
30005864:	059d5020 	ldreq	r5, [sp, #32]
30005868:	059d401c 	ldreq	r4, [sp, #28]
3000586c:	1affffec 	bne	30005824 <GetCalibratePointData+0x6c>
30005870:	e358007f 	cmp	r8, #127	; 0x7f
30005874:	e1a06005 	mov	r6, r5
30005878:	e1a07004 	mov	r7, r4
3000587c:	caffffee 	bgt	3000583c <GetCalibratePointData+0x84>
30005880:	e59d3004 	ldr	r3, [sp, #4]
30005884:	e0833005 	add	r3, r3, r5
30005888:	e58d3004 	str	r3, [sp, #4]
3000588c:	e59d3000 	ldr	r3, [sp]
30005890:	e0833004 	add	r3, r3, r4
30005894:	e59d4018 	ldr	r4, [sp, #24]
30005898:	e3540000 	cmp	r4, #0	; 0x0
3000589c:	e58d3000 	str	r3, [sp]
300058a0:	e2888001 	add	r8, r8, #1	; 0x1
300058a4:	1affffe7 	bne	30005848 <GetCalibratePointData+0x90>
300058a8:	e1a01008 	mov	r1, r8
300058ac:	e59d0004 	ldr	r0, [sp, #4]
300058b0:	ebffea9e 	bl	30000330 <__divsi3>
300058b4:	e59d300c 	ldr	r3, [sp, #12]
300058b8:	e1a01008 	mov	r1, r8
300058bc:	e5830000 	str	r0, [r3]
300058c0:	e59d0000 	ldr	r0, [sp]
300058c4:	ebffea99 	bl	30000330 <__divsi3>
300058c8:	e59d3008 	ldr	r3, [sp, #8]
300058cc:	e59d1010 	ldr	r1, [sp, #16]
300058d0:	e5830000 	str	r0, [r3]
300058d4:	e1a02004 	mov	r2, r4
300058d8:	e59d0014 	ldr	r0, [sp, #20]
300058dc:	ebfffc8d 	bl	30004b18 <FbDispCross>
300058e0:	e28dd024 	add	sp, sp, #36	; 0x24
300058e4:	e8bd8ff0 	ldmia	sp!, {r4, r5, r6, r7, r8, r9, sl, fp, pc}
300058e8:	e59d401c 	ldr	r4, [sp, #28]
300058ec:	e1a00004 	mov	r0, r4
300058f0:	ebffff29 	bl	3000559c <SeekDifference>
300058f4:	e3500032 	cmp	r0, #50	; 0x32
300058f8:	caffffcf 	bgt	3000583c <GetCalibratePointData+0x84>
300058fc:	eaffffdb 	b	30005870 <GetCalibratePointData+0xb8>

30005900 <isTsXYSwap>:
30005900:	e0602002 	rsb	r2, r0, r2
30005904:	e0613003 	rsb	r3, r1, r3
30005908:	e3520000 	cmp	r2, #0	; 0x0
3000590c:	b2622000 	rsblt	r2, r2, #0	; 0x0
30005910:	e3530000 	cmp	r3, #0	; 0x0
30005914:	b2633000 	rsblt	r3, r3, #0	; 0x0
30005918:	e1520003 	cmp	r2, r3
3000591c:	c3a00000 	movgt	r0, #0	; 0x0
30005920:	d3a00001 	movle	r0, #1	; 0x1
30005924:	e1a0f00e 	mov	pc, lr

30005928 <SwapXY>:
30005928:	e5902000 	ldr	r2, [r0]
3000592c:	e5913000 	ldr	r3, [r1]
30005930:	e5803000 	str	r3, [r0]
30005934:	e5812000 	str	r2, [r1]
30005938:	e1a0f00e 	mov	pc, lr

3000593c <CalibrateTs>:
3000593c:	e92d4ff0 	stmdb	sp!, {r4, r5, r6, r7, r8, r9, sl, fp, lr}
30005940:	e59fb588 	ldr	fp, [pc, #1416]	; 30005ed0 <.text+0x5ed0>
30005944:	e24dd02c 	sub	sp, sp, #44	; 0x2c
30005948:	e58d0000 	str	r0, [sp]
3000594c:	e1a0100b 	mov	r1, fp
30005950:	e59f057c 	ldr	r0, [pc, #1404]	; 30005ed4 <.text+0x5ed4>
30005954:	e59f257c 	ldr	r2, [pc, #1404]	; 30005ed8 <.text+0x5ed8>
30005958:	e59f357c 	ldr	r3, [pc, #1404]	; 30005edc <.text+0x5edc>
3000595c:	ebfff981 	bl	30003f68 <GetLcdParams>
30005960:	e3a00032 	mov	r0, #50	; 0x32
30005964:	e1a01000 	mov	r1, r0
30005968:	e28d3024 	add	r3, sp, #36	; 0x24
3000596c:	e28d2028 	add	r2, sp, #40	; 0x28
30005970:	ebffff90 	bl	300057b8 <GetCalibratePointData>
30005974:	e59d1028 	ldr	r1, [sp, #40]
30005978:	e59d2024 	ldr	r2, [sp, #36]
3000597c:	e59f055c 	ldr	r0, [pc, #1372]	; 30005ee0 <.text+0x5ee0>
30005980:	ebffef53 	bl	300016d4 <printf>
30005984:	e59b0000 	ldr	r0, [fp]
30005988:	e28d5020 	add	r5, sp, #32	; 0x20
3000598c:	e28d301c 	add	r3, sp, #28	; 0x1c
30005990:	e2400032 	sub	r0, r0, #50	; 0x32
30005994:	e3a01032 	mov	r1, #50	; 0x32
30005998:	e1a02005 	mov	r2, r5
3000599c:	ebffff85 	bl	300057b8 <GetCalibratePointData>
300059a0:	e59d1020 	ldr	r1, [sp, #32]
300059a4:	e59d201c 	ldr	r2, [sp, #28]
300059a8:	e59f0534 	ldr	r0, [pc, #1332]	; 30005ee4 <.text+0x5ee4>
300059ac:	ebffef48 	bl	300016d4 <printf>
300059b0:	e59f2520 	ldr	r2, [pc, #1312]	; 30005ed8 <.text+0x5ed8>
300059b4:	e59b0000 	ldr	r0, [fp]
300059b8:	e5921000 	ldr	r1, [r2]
300059bc:	e28da018 	add	sl, sp, #24	; 0x18
300059c0:	e28d9014 	add	r9, sp, #20	; 0x14
300059c4:	e1a03009 	mov	r3, r9
300059c8:	e2400032 	sub	r0, r0, #50	; 0x32
300059cc:	e2411032 	sub	r1, r1, #50	; 0x32
300059d0:	e1a0200a 	mov	r2, sl
300059d4:	ebffff77 	bl	300057b8 <GetCalibratePointData>
300059d8:	e59d1018 	ldr	r1, [sp, #24]
300059dc:	e59d2014 	ldr	r2, [sp, #20]
300059e0:	e59f0500 	ldr	r0, [pc, #1280]	; 30005ee8 <.text+0x5ee8>
300059e4:	ebffef3a 	bl	300016d4 <printf>
300059e8:	e59f34e8 	ldr	r3, [pc, #1256]	; 30005ed8 <.text+0x5ed8>
300059ec:	e5931000 	ldr	r1, [r3]
300059f0:	e28d7010 	add	r7, sp, #16	; 0x10
300059f4:	e28d800c 	add	r8, sp, #12	; 0xc
300059f8:	e1a03008 	mov	r3, r8
300059fc:	e2411032 	sub	r1, r1, #50	; 0x32
30005a00:	e3a00032 	mov	r0, #50	; 0x32
30005a04:	e1a02007 	mov	r2, r7
30005a08:	ebffff6a 	bl	300057b8 <GetCalibratePointData>
30005a0c:	e59d1010 	ldr	r1, [sp, #16]
30005a10:	e59d200c 	ldr	r2, [sp, #12]
30005a14:	e59f04d0 	ldr	r0, [pc, #1232]	; 30005eec <.text+0x5eec>
30005a18:	ebffef2d 	bl	300016d4 <printf>
30005a1c:	e59f24b4 	ldr	r2, [pc, #1204]	; 30005ed8 <.text+0x5ed8>
30005a20:	e59b0000 	ldr	r0, [fp]
30005a24:	e5921000 	ldr	r1, [r2]
30005a28:	e0800fa0 	add	r0, r0, r0, lsr #31
30005a2c:	e0811fa1 	add	r1, r1, r1, lsr #31
30005a30:	e28d4008 	add	r4, sp, #8	; 0x8
30005a34:	e28d6004 	add	r6, sp, #4	; 0x4
30005a38:	e1a03006 	mov	r3, r6
30005a3c:	e1a000c0 	mov	r0, r0, asr #1
30005a40:	e1a010c1 	mov	r1, r1, asr #1
30005a44:	e1a02004 	mov	r2, r4
30005a48:	ebffff5a 	bl	300057b8 <GetCalibratePointData>
30005a4c:	e59d1008 	ldr	r1, [sp, #8]
30005a50:	e59d2004 	ldr	r2, [sp, #4]
30005a54:	e59f0494 	ldr	r0, [pc, #1172]	; 30005ef0 <.text+0x5ef0>
30005a58:	ebffef1d 	bl	300016d4 <printf>
30005a5c:	e59d1024 	ldr	r1, [sp, #36]
30005a60:	e59d2020 	ldr	r2, [sp, #32]
30005a64:	e59d301c 	ldr	r3, [sp, #28]
30005a68:	e59d0028 	ldr	r0, [sp, #40]
30005a6c:	ebffffa3 	bl	30005900 <isTsXYSwap>
30005a70:	e59f347c 	ldr	r3, [pc, #1148]	; 30005ef4 <.text+0x5ef4>
30005a74:	e5830000 	str	r0, [r3]
30005a78:	e59f0478 	ldr	r0, [pc, #1144]	; 30005ef8 <.text+0x5ef8>
30005a7c:	e5931000 	ldr	r1, [r3]
30005a80:	ebffef13 	bl	300016d4 <printf>
30005a84:	e59f2468 	ldr	r2, [pc, #1128]	; 30005ef4 <.text+0x5ef4>
30005a88:	e5923000 	ldr	r3, [r2]
30005a8c:	e3530000 	cmp	r3, #0	; 0x0
30005a90:	1a0000fe 	bne	30005e90 <CalibrateTs+0x554>
30005a94:	e59d1028 	ldr	r1, [sp, #40]
30005a98:	e59d2024 	ldr	r2, [sp, #36]
30005a9c:	e59f0458 	ldr	r0, [pc, #1112]	; 30005efc <.text+0x5efc>
30005aa0:	ebffef0b 	bl	300016d4 <printf>
30005aa4:	e59d1020 	ldr	r1, [sp, #32]
30005aa8:	e59d201c 	ldr	r2, [sp, #28]
30005aac:	e59f044c 	ldr	r0, [pc, #1100]	; 30005f00 <.text+0x5f00>
30005ab0:	ebffef07 	bl	300016d4 <printf>
30005ab4:	e59d1018 	ldr	r1, [sp, #24]
30005ab8:	e59d2014 	ldr	r2, [sp, #20]
30005abc:	e59f0440 	ldr	r0, [pc, #1088]	; 30005f04 <.text+0x5f04>
30005ac0:	ebffef03 	bl	300016d4 <printf>
30005ac4:	e59d1010 	ldr	r1, [sp, #16]
30005ac8:	e59d200c 	ldr	r2, [sp, #12]
30005acc:	e59f0434 	ldr	r0, [pc, #1076]	; 30005f08 <.text+0x5f08>
30005ad0:	ebffeeff 	bl	300016d4 <printf>
30005ad4:	e59d1008 	ldr	r1, [sp, #8]
30005ad8:	e59d2004 	ldr	r2, [sp, #4]
30005adc:	e59f0428 	ldr	r0, [pc, #1064]	; 30005f0c <.text+0x5f0c>
30005ae0:	ebffeefb 	bl	300016d4 <printf>
30005ae4:	e59d3028 	ldr	r3, [sp, #40]
30005ae8:	e59d9020 	ldr	r9, [sp, #32]
30005aec:	e59b4000 	ldr	r4, [fp]
30005af0:	e0639009 	rsb	r9, r3, r9
30005af4:	e59d8018 	ldr	r8, [sp, #24]
30005af8:	e59d3010 	ldr	r3, [sp, #16]
30005afc:	e2444064 	sub	r4, r4, #100	; 0x64
30005b00:	e0638008 	rsb	r8, r3, r8
30005b04:	e1a01009 	mov	r1, r9
30005b08:	e1a03004 	mov	r3, r4
30005b0c:	e1a02008 	mov	r2, r8
30005b10:	e59f03f8 	ldr	r0, [pc, #1016]	; 30005f10 <.text+0x5f10>
30005b14:	ebffeeee 	bl	300016d4 <printf>
30005b18:	e59f33b8 	ldr	r3, [pc, #952]	; 30005ed8 <.text+0x5ed8>
30005b1c:	e59da00c 	ldr	sl, [sp, #12]
30005b20:	e5937000 	ldr	r7, [r3]
30005b24:	e59d3024 	ldr	r3, [sp, #36]
30005b28:	e59d6014 	ldr	r6, [sp, #20]
30005b2c:	e063a00a 	rsb	sl, r3, sl
30005b30:	e59d301c 	ldr	r3, [sp, #28]
30005b34:	e2477064 	sub	r7, r7, #100	; 0x64
30005b38:	e0636006 	rsb	r6, r3, r6
30005b3c:	e1a02006 	mov	r2, r6
30005b40:	e1a03007 	mov	r3, r7
30005b44:	e1a0100a 	mov	r1, sl
30005b48:	e59f03c4 	ldr	r0, [pc, #964]	; 30005f14 <.text+0x5f14>
30005b4c:	ebffeee0 	bl	300016d4 <printf>
30005b50:	e1a00084 	mov	r0, r4, lsl #1
30005b54:	eb000e1b 	bl	300093c8 <__floatsidf>
30005b58:	e1a05001 	mov	r5, r1
30005b5c:	e1a04000 	mov	r4, r0
30005b60:	e0890008 	add	r0, r9, r8
30005b64:	eb000e17 	bl	300093c8 <__floatsidf>
30005b68:	e1a03001 	mov	r3, r1
30005b6c:	e1a02000 	mov	r2, r0
30005b70:	e1a01005 	mov	r1, r5
30005b74:	e1a00004 	mov	r0, r4
30005b78:	eb000ef5 	bl	30009754 <__divdf3>
30005b7c:	e59f3394 	ldr	r3, [pc, #916]	; 30005f18 <.text+0x5f18>
30005b80:	e8830003 	stmia	r3, {r0, r1}
30005b84:	e1a00087 	mov	r0, r7, lsl #1
30005b88:	eb000e0e 	bl	300093c8 <__floatsidf>
30005b8c:	e1a05001 	mov	r5, r1
30005b90:	e1a04000 	mov	r4, r0
30005b94:	e08a0006 	add	r0, sl, r6
30005b98:	eb000e0a 	bl	300093c8 <__floatsidf>
30005b9c:	e1a03001 	mov	r3, r1
30005ba0:	e1a02000 	mov	r2, r0
30005ba4:	e1a01005 	mov	r1, r5
30005ba8:	e1a00004 	mov	r0, r4
30005bac:	eb000ee8 	bl	30009754 <__divdf3>
30005bb0:	e59f2320 	ldr	r2, [pc, #800]	; 30005ed8 <.text+0x5ed8>
30005bb4:	e59f3360 	ldr	r3, [pc, #864]	; 30005f1c <.text+0x5f1c>
30005bb8:	e5924000 	ldr	r4, [r2]
30005bbc:	e8830003 	stmia	r3, {r0, r1}
30005bc0:	e59d2008 	ldr	r2, [sp, #8]
30005bc4:	e59f3354 	ldr	r3, [pc, #852]	; 30005f20 <.text+0x5f20>
30005bc8:	e59d0028 	ldr	r0, [sp, #40]
30005bcc:	e5832000 	str	r2, [r3]
30005bd0:	e59d1004 	ldr	r1, [sp, #4]
30005bd4:	e59bc000 	ldr	ip, [fp]
30005bd8:	e59f3344 	ldr	r3, [pc, #836]	; 30005f24 <.text+0x5f24>
30005bdc:	e59f2344 	ldr	r2, [pc, #836]	; 30005f28 <.text+0x5f28>
30005be0:	e5831000 	str	r1, [r3]
30005be4:	e08ccfac 	add	ip, ip, ip, lsr #31
30005be8:	e59f333c 	ldr	r3, [pc, #828]	; 30005f2c <.text+0x5f2c>
30005bec:	e0844fa4 	add	r4, r4, r4, lsr #31
30005bf0:	e1a0c0cc 	mov	ip, ip, asr #1
30005bf4:	e1a040c4 	mov	r4, r4, asr #1
30005bf8:	e582c000 	str	ip, [r2]
30005bfc:	e5834000 	str	r4, [r3]
30005c00:	ebfffe37 	bl	300054e4 <GetLcdXFrmTsX>
30005c04:	e1a04000 	mov	r4, r0
30005c08:	e59d0024 	ldr	r0, [sp, #36]
30005c0c:	ebfffe4b 	bl	30005540 <GetLcdYFrmTsY>
30005c10:	e1a01004 	mov	r1, r4
30005c14:	e1a02000 	mov	r2, r0
30005c18:	e59f0310 	ldr	r0, [pc, #784]	; 30005f30 <.text+0x5f30>
30005c1c:	ebffeeac 	bl	300016d4 <printf>
30005c20:	e59d0020 	ldr	r0, [sp, #32]
30005c24:	ebfffe2e 	bl	300054e4 <GetLcdXFrmTsX>
30005c28:	e1a04000 	mov	r4, r0
30005c2c:	e59d001c 	ldr	r0, [sp, #28]
30005c30:	ebfffe42 	bl	30005540 <GetLcdYFrmTsY>
30005c34:	e1a01004 	mov	r1, r4
30005c38:	e1a02000 	mov	r2, r0
30005c3c:	e59f02f0 	ldr	r0, [pc, #752]	; 30005f34 <.text+0x5f34>
30005c40:	ebffeea3 	bl	300016d4 <printf>
30005c44:	e59d0018 	ldr	r0, [sp, #24]
30005c48:	ebfffe25 	bl	300054e4 <GetLcdXFrmTsX>
30005c4c:	e1a04000 	mov	r4, r0
30005c50:	e59d0014 	ldr	r0, [sp, #20]
30005c54:	ebfffe39 	bl	30005540 <GetLcdYFrmTsY>
30005c58:	e1a01004 	mov	r1, r4
30005c5c:	e1a02000 	mov	r2, r0
30005c60:	e59f02d0 	ldr	r0, [pc, #720]	; 30005f38 <.text+0x5f38>
30005c64:	ebffee9a 	bl	300016d4 <printf>
30005c68:	e59d0010 	ldr	r0, [sp, #16]
30005c6c:	ebfffe1c 	bl	300054e4 <GetLcdXFrmTsX>
30005c70:	e1a04000 	mov	r4, r0
30005c74:	e59d000c 	ldr	r0, [sp, #12]
30005c78:	ebfffe30 	bl	30005540 <GetLcdYFrmTsY>
30005c7c:	e1a01004 	mov	r1, r4
30005c80:	e1a02000 	mov	r2, r0
30005c84:	e59f02b0 	ldr	r0, [pc, #688]	; 30005f3c <.text+0x5f3c>
30005c88:	ebffee91 	bl	300016d4 <printf>
30005c8c:	e59d0008 	ldr	r0, [sp, #8]
30005c90:	ebfffe13 	bl	300054e4 <GetLcdXFrmTsX>
30005c94:	e1a04000 	mov	r4, r0
30005c98:	e59d0004 	ldr	r0, [sp, #4]
30005c9c:	ebfffe27 	bl	30005540 <GetLcdYFrmTsY>
30005ca0:	e1a01004 	mov	r1, r4
30005ca4:	e1a02000 	mov	r2, r0
30005ca8:	e59f0290 	ldr	r0, [pc, #656]	; 30005f40 <.text+0x5f40>
30005cac:	ebffee88 	bl	300016d4 <printf>
30005cb0:	e59d0028 	ldr	r0, [sp, #40]
30005cb4:	ebfffe0a 	bl	300054e4 <GetLcdXFrmTsX>
30005cb8:	e3500027 	cmp	r0, #39	; 0x27
30005cbc:	ca000002 	bgt	30005ccc <CalibrateTs+0x390>
30005cc0:	e3a00000 	mov	r0, #0	; 0x0
30005cc4:	e28dd02c 	add	sp, sp, #44	; 0x2c
30005cc8:	e8bd8ff0 	ldmia	sp!, {r4, r5, r6, r7, r8, r9, sl, fp, pc}
30005ccc:	e59d0028 	ldr	r0, [sp, #40]
30005cd0:	ebfffe03 	bl	300054e4 <GetLcdXFrmTsX>
30005cd4:	e350003c 	cmp	r0, #60	; 0x3c
30005cd8:	cafffff8 	bgt	30005cc0 <CalibrateTs+0x384>
30005cdc:	e59d0024 	ldr	r0, [sp, #36]
30005ce0:	ebfffe16 	bl	30005540 <GetLcdYFrmTsY>
30005ce4:	e3500027 	cmp	r0, #39	; 0x27
30005ce8:	dafffff4 	ble	30005cc0 <CalibrateTs+0x384>
30005cec:	e59d0024 	ldr	r0, [sp, #36]
30005cf0:	ebfffe12 	bl	30005540 <GetLcdYFrmTsY>
30005cf4:	e350003c 	cmp	r0, #60	; 0x3c
30005cf8:	cafffff0 	bgt	30005cc0 <CalibrateTs+0x384>
30005cfc:	e59d0020 	ldr	r0, [sp, #32]
30005d00:	ebfffdf7 	bl	300054e4 <GetLcdXFrmTsX>
30005d04:	e3a04e1a 	mov	r4, #416	; 0x1a0
30005d08:	e2844003 	add	r4, r4, #3	; 0x3
30005d0c:	e1500004 	cmp	r0, r4
30005d10:	daffffea 	ble	30005cc0 <CalibrateTs+0x384>
30005d14:	e59d0020 	ldr	r0, [sp, #32]
30005d18:	ebfffdf1 	bl	300054e4 <GetLcdXFrmTsX>
30005d1c:	e3500f6e 	cmp	r0, #440	; 0x1b8
30005d20:	caffffe6 	bgt	30005cc0 <CalibrateTs+0x384>
30005d24:	e59d001c 	ldr	r0, [sp, #28]
30005d28:	ebfffe04 	bl	30005540 <GetLcdYFrmTsY>
30005d2c:	e3500027 	cmp	r0, #39	; 0x27
30005d30:	daffffe2 	ble	30005cc0 <CalibrateTs+0x384>
30005d34:	e59d001c 	ldr	r0, [sp, #28]
30005d38:	ebfffe00 	bl	30005540 <GetLcdYFrmTsY>
30005d3c:	e350003c 	cmp	r0, #60	; 0x3c
30005d40:	caffffde 	bgt	30005cc0 <CalibrateTs+0x384>
30005d44:	e59d0018 	ldr	r0, [sp, #24]
30005d48:	ebfffde5 	bl	300054e4 <GetLcdXFrmTsX>
30005d4c:	e1500004 	cmp	r0, r4
30005d50:	daffffda 	ble	30005cc0 <CalibrateTs+0x384>
30005d54:	e59d0018 	ldr	r0, [sp, #24]
30005d58:	ebfffde1 	bl	300054e4 <GetLcdXFrmTsX>
30005d5c:	e3500f6e 	cmp	r0, #440	; 0x1b8
30005d60:	caffffd6 	bgt	30005cc0 <CalibrateTs+0x384>
30005d64:	e59d0014 	ldr	r0, [sp, #20]
30005d68:	ebfffdf4 	bl	30005540 <GetLcdYFrmTsY>
30005d6c:	e35000d3 	cmp	r0, #211	; 0xd3
30005d70:	daffffd2 	ble	30005cc0 <CalibrateTs+0x384>
30005d74:	e59d0014 	ldr	r0, [sp, #20]
30005d78:	ebfffdf0 	bl	30005540 <GetLcdYFrmTsY>
30005d7c:	e35000e8 	cmp	r0, #232	; 0xe8
30005d80:	caffffce 	bgt	30005cc0 <CalibrateTs+0x384>
30005d84:	e59d0010 	ldr	r0, [sp, #16]
30005d88:	ebfffdd5 	bl	300054e4 <GetLcdXFrmTsX>
30005d8c:	e3500027 	cmp	r0, #39	; 0x27
30005d90:	daffffca 	ble	30005cc0 <CalibrateTs+0x384>
30005d94:	e59d0010 	ldr	r0, [sp, #16]
30005d98:	ebfffdd1 	bl	300054e4 <GetLcdXFrmTsX>
30005d9c:	e350003c 	cmp	r0, #60	; 0x3c
30005da0:	caffffc6 	bgt	30005cc0 <CalibrateTs+0x384>
30005da4:	e59d000c 	ldr	r0, [sp, #12]
30005da8:	ebfffde4 	bl	30005540 <GetLcdYFrmTsY>
30005dac:	e35000d3 	cmp	r0, #211	; 0xd3
30005db0:	daffffc2 	ble	30005cc0 <CalibrateTs+0x384>
30005db4:	e59d000c 	ldr	r0, [sp, #12]
30005db8:	ebfffde0 	bl	30005540 <GetLcdYFrmTsY>
30005dbc:	e35000e8 	cmp	r0, #232	; 0xe8
30005dc0:	caffffbe 	bgt	30005cc0 <CalibrateTs+0x384>
30005dc4:	e59d0008 	ldr	r0, [sp, #8]
30005dc8:	ebfffdc5 	bl	300054e4 <GetLcdXFrmTsX>
30005dcc:	e35000e5 	cmp	r0, #229	; 0xe5
30005dd0:	daffffba 	ble	30005cc0 <CalibrateTs+0x384>
30005dd4:	e59d0008 	ldr	r0, [sp, #8]
30005dd8:	ebfffdc1 	bl	300054e4 <GetLcdXFrmTsX>
30005ddc:	e35000fa 	cmp	r0, #250	; 0xfa
30005de0:	caffffb6 	bgt	30005cc0 <CalibrateTs+0x384>
30005de4:	e59d0004 	ldr	r0, [sp, #4]
30005de8:	ebfffdd4 	bl	30005540 <GetLcdYFrmTsY>
30005dec:	e350007d 	cmp	r0, #125	; 0x7d
30005df0:	daffffb2 	ble	30005cc0 <CalibrateTs+0x384>
30005df4:	e59d0004 	ldr	r0, [sp, #4]
30005df8:	ebfffdd0 	bl	30005540 <GetLcdYFrmTsY>
30005dfc:	e3500092 	cmp	r0, #146	; 0x92
30005e00:	caffffae 	bgt	30005cc0 <CalibrateTs+0x384>
30005e04:	e59f20e8 	ldr	r2, [pc, #232]	; 30005ef4 <.text+0x5ef4>
30005e08:	e5923000 	ldr	r3, [r2]
30005e0c:	e59d2000 	ldr	r2, [sp]
30005e10:	e582302c 	str	r3, [r2, #44]
30005e14:	e59d2028 	ldr	r2, [sp, #40]
30005e18:	e59d3000 	ldr	r3, [sp]
30005e1c:	e5832004 	str	r2, [r3, #4]
30005e20:	e59d3024 	ldr	r3, [sp, #36]
30005e24:	e59d2000 	ldr	r2, [sp]
30005e28:	e5823008 	str	r3, [r2, #8]
30005e2c:	e59d2020 	ldr	r2, [sp, #32]
30005e30:	e59d3000 	ldr	r3, [sp]
30005e34:	e583200c 	str	r2, [r3, #12]
30005e38:	e59d301c 	ldr	r3, [sp, #28]
30005e3c:	e59d2000 	ldr	r2, [sp]
30005e40:	e5823010 	str	r3, [r2, #16]
30005e44:	e59d2018 	ldr	r2, [sp, #24]
30005e48:	e59d3000 	ldr	r3, [sp]
30005e4c:	e5832014 	str	r2, [r3, #20]
30005e50:	e59d3014 	ldr	r3, [sp, #20]
30005e54:	e59d2000 	ldr	r2, [sp]
30005e58:	e5823018 	str	r3, [r2, #24]
30005e5c:	e59d2010 	ldr	r2, [sp, #16]
30005e60:	e59d3000 	ldr	r3, [sp]
30005e64:	e583201c 	str	r2, [r3, #28]
30005e68:	e59d300c 	ldr	r3, [sp, #12]
30005e6c:	e59d2000 	ldr	r2, [sp]
30005e70:	e5823020 	str	r3, [r2, #32]
30005e74:	e59d2008 	ldr	r2, [sp, #8]
30005e78:	e59d3000 	ldr	r3, [sp]
30005e7c:	e5832024 	str	r2, [r3, #36]
30005e80:	e89d000c 	ldmia	sp, {r2, r3}
30005e84:	e3a00001 	mov	r0, #1	; 0x1
30005e88:	e5823028 	str	r3, [r2, #40]
30005e8c:	eaffff8c 	b	30005cc4 <CalibrateTs+0x388>
30005e90:	e28d0028 	add	r0, sp, #40	; 0x28
30005e94:	e28d1024 	add	r1, sp, #36	; 0x24
30005e98:	ebfffea2 	bl	30005928 <SwapXY>
30005e9c:	e1a00005 	mov	r0, r5
30005ea0:	e28d101c 	add	r1, sp, #28	; 0x1c
30005ea4:	ebfffe9f 	bl	30005928 <SwapXY>
30005ea8:	e1a0000a 	mov	r0, sl
30005eac:	e1a01009 	mov	r1, r9
30005eb0:	ebfffe9c 	bl	30005928 <SwapXY>
30005eb4:	e1a00007 	mov	r0, r7
30005eb8:	e1a01008 	mov	r1, r8
30005ebc:	ebfffe99 	bl	30005928 <SwapXY>
30005ec0:	e1a00004 	mov	r0, r4
30005ec4:	e1a01006 	mov	r1, r6
30005ec8:	ebfffe96 	bl	30005928 <SwapXY>
30005ecc:	eafffef0 	b	30005a94 <CalibrateTs+0x158>
30005ed0:	3000f604 	andcc	pc, r0, r4, lsl #12
30005ed4:	3000f600 	andcc	pc, r0, r0, lsl #12
30005ed8:	3000f608 	andcc	pc, r0, r8, lsl #12
30005edc:	3000f60c 	andcc	pc, r0, ip, lsl #12
30005ee0:	3000eba8 	andcc	lr, r0, r8, lsr #23
30005ee4:	3000ebcc 	andcc	lr, r0, ip, asr #23
30005ee8:	3000ebf0 	strccd	lr, [r0], -r0
30005eec:	3000ec14 	andcc	lr, r0, r4, lsl ip
30005ef0:	3000ec38 	andcc	lr, r0, r8, lsr ip
30005ef4:	3000f5dc 	ldrccd	pc, [r0], -ip
30005ef8:	3000eb8c 	andcc	lr, r0, ip, lsl #23
30005efc:	3000eba4 	andcc	lr, r0, r4, lsr #23
30005f00:	3000ebc8 	andcc	lr, r0, r8, asr #23
30005f04:	3000ebec 	andcc	lr, r0, ip, ror #23
30005f08:	3000ec10 	andcc	lr, r0, r0, lsl ip
30005f0c:	3000ec34 	andcc	lr, r0, r4, lsr ip
30005f10:	3000ec58 	andcc	lr, r0, r8, asr ip
30005f14:	3000ec84 	andcc	lr, r0, r4, lsl #25
30005f18:	3000f5e0 	andcc	pc, r0, r0, ror #11
30005f1c:	3000f5e8 	andcc	pc, r0, r8, ror #11
30005f20:	3000f5f0 	strccd	pc, [r0], -r0
30005f24:	3000f5f4 	strccd	pc, [r0], -r4
30005f28:	3000f5f8 	strccd	pc, [r0], -r8
30005f2c:	3000f5fc 	strccd	pc, [r0], -ip
30005f30:	3000eaec 	andcc	lr, r0, ip, ror #21
30005f34:	3000eb0c 	andcc	lr, r0, ip, lsl #22
30005f38:	3000eb2c 	andcc	lr, r0, ip, lsr #22
30005f3c:	3000eb4c 	andcc	lr, r0, ip, asr #22
30005f40:	3000eb6c 	andcc	lr, r0, ip, ror #22

30005f44 <ReadTs>:
30005f44:	e92d45f0 	stmdb	sp!, {r4, r5, r6, r7, r8, sl, lr}
30005f48:	e24dd00c 	sub	sp, sp, #12	; 0xc
30005f4c:	e28d5008 	add	r5, sp, #8	; 0x8
30005f50:	e28d4004 	add	r4, sp, #4	; 0x4
30005f54:	e3a0c000 	mov	ip, #0	; 0x0
30005f58:	e1a07000 	mov	r7, r0
30005f5c:	e1a08001 	mov	r8, r1
30005f60:	e1a0a002 	mov	sl, r2
30005f64:	e1a00005 	mov	r0, r5
30005f68:	e1a01004 	mov	r1, r4
30005f6c:	e1a0200d 	mov	r2, sp
30005f70:	e58dc000 	str	ip, [sp]
30005f74:	e58dc008 	str	ip, [sp, #8]
30005f78:	e58dc004 	str	ip, [sp, #4]
30005f7c:	ebfffc38 	bl	30005064 <ReadTsRaw>
30005f80:	e59dc008 	ldr	ip, [sp, #8]
30005f84:	e35c0000 	cmp	ip, #0	; 0x0
30005f88:	1a000002 	bne	30005f98 <ReadTs+0x54>
30005f8c:	e59d3004 	ldr	r3, [sp, #4]
30005f90:	e3530000 	cmp	r3, #0	; 0x0
30005f94:	0a000046 	beq	300060b4 <ReadTs+0x170>
30005f98:	e59f3154 	ldr	r3, [pc, #340]	; 300060f4 <.text+0x60f4>
30005f9c:	e5932000 	ldr	r2, [r3]
30005fa0:	e3520000 	cmp	r2, #0	; 0x0
30005fa4:	1a00004d 	bne	300060e0 <ReadTs+0x19c>
30005fa8:	e59f3148 	ldr	r3, [pc, #328]	; 300060f8 <.text+0x60f8>
30005fac:	e5930000 	ldr	r0, [r3]
30005fb0:	e060000c 	rsb	r0, r0, ip
30005fb4:	eb000d03 	bl	300093c8 <__floatsidf>
30005fb8:	e59fc13c 	ldr	ip, [pc, #316]	; 300060fc <.text+0x60fc>
30005fbc:	e89c000c 	ldmia	ip, {r2, r3}
30005fc0:	eb000d1e 	bl	30009440 <__muldf3>
30005fc4:	e59f3134 	ldr	r3, [pc, #308]	; 30006100 <.text+0x6100>
30005fc8:	e1a05001 	mov	r5, r1
30005fcc:	e1a04000 	mov	r4, r0
30005fd0:	e5930000 	ldr	r0, [r3]
30005fd4:	eb000cfb 	bl	300093c8 <__floatsidf>
30005fd8:	e1a03001 	mov	r3, r1
30005fdc:	e1a02000 	mov	r2, r0
30005fe0:	e1a01005 	mov	r1, r5
30005fe4:	e1a00004 	mov	r0, r4
30005fe8:	eb000c33 	bl	300090bc <__adddf3>
30005fec:	eb000e73 	bl	300099c0 <__fixdfsi>
30005ff0:	e59f310c 	ldr	r3, [pc, #268]	; 30006104 <.text+0x6104>
30005ff4:	e1a06000 	mov	r6, r0
30005ff8:	e5932000 	ldr	r2, [r3]
30005ffc:	e59d0004 	ldr	r0, [sp, #4]
30006000:	e0620000 	rsb	r0, r2, r0
30006004:	eb000cef 	bl	300093c8 <__floatsidf>
30006008:	e59fc0f8 	ldr	ip, [pc, #248]	; 30006108 <.text+0x6108>
3000600c:	e89c000c 	ldmia	ip, {r2, r3}
30006010:	eb000d0a 	bl	30009440 <__muldf3>
30006014:	e59f30f0 	ldr	r3, [pc, #240]	; 3000610c <.text+0x610c>
30006018:	e1a05001 	mov	r5, r1
3000601c:	e1a04000 	mov	r4, r0
30006020:	e5930000 	ldr	r0, [r3]
30006024:	eb000ce7 	bl	300093c8 <__floatsidf>
30006028:	e1a03001 	mov	r3, r1
3000602c:	e1a02000 	mov	r2, r0
30006030:	e1a01005 	mov	r1, r5
30006034:	e1a00004 	mov	r0, r4
30006038:	eb000c1f 	bl	300090bc <__adddf3>
3000603c:	eb000e5f 	bl	300099c0 <__fixdfsi>
30006040:	e3560000 	cmp	r6, #0	; 0x0
30006044:	e1a04000 	mov	r4, r0
30006048:	ba000007 	blt	3000606c <ReadTs+0x128>
3000604c:	e59f30bc 	ldr	r3, [pc, #188]	; 30006110 <.text+0x6110>
30006050:	e5931000 	ldr	r1, [r3]
30006054:	e1a02fa0 	mov	r2, r0, lsr #31
30006058:	e1560001 	cmp	r6, r1
3000605c:	b1a05002 	movlt	r5, r2
30006060:	a3825001 	orrge	r5, r2, #1	; 0x1
30006064:	e3550000 	cmp	r5, #0	; 0x0
30006068:	0a000002 	beq	30006078 <ReadTs+0x134>
3000606c:	e3e00000 	mvn	r0, #0	; 0x0
30006070:	e28dd00c 	add	sp, sp, #12	; 0xc
30006074:	e8bd85f0 	ldmia	sp!, {r4, r5, r6, r7, r8, sl, pc}
30006078:	e59f3094 	ldr	r3, [pc, #148]	; 30006114 <.text+0x6114>
3000607c:	e5932000 	ldr	r2, [r3]
30006080:	e1500002 	cmp	r0, r2
30006084:	aafffff8 	bge	3000606c <ReadTs+0x128>
30006088:	e59d3000 	ldr	r3, [sp]
3000608c:	e59f0084 	ldr	r0, [pc, #132]	; 30006118 <.text+0x6118>
30006090:	e1a01006 	mov	r1, r6
30006094:	e1a02004 	mov	r2, r4
30006098:	ebffed8d 	bl	300016d4 <printf>
3000609c:	e59d3000 	ldr	r3, [sp]
300060a0:	e1a00005 	mov	r0, r5
300060a4:	e5876000 	str	r6, [r7]
300060a8:	e5884000 	str	r4, [r8]
300060ac:	e58a3000 	str	r3, [sl]
300060b0:	eaffffee 	b	30006070 <ReadTs+0x12c>
300060b4:	e59d3000 	ldr	r3, [sp]
300060b8:	e3530000 	cmp	r3, #0	; 0x0
300060bc:	0587c000 	streq	ip, [r7]
300060c0:	03a00001 	moveq	r0, #1	; 0x1
300060c4:	0588c000 	streq	ip, [r8]
300060c8:	058ac000 	streq	ip, [sl]
300060cc:	0affffe7 	beq	30006070 <ReadTs+0x12c>
300060d0:	e59f301c 	ldr	r3, [pc, #28]	; 300060f4 <.text+0x60f4>
300060d4:	e5932000 	ldr	r2, [r3]
300060d8:	e3520000 	cmp	r2, #0	; 0x0
300060dc:	0affffb1 	beq	30005fa8 <ReadTs+0x64>
300060e0:	e1a00005 	mov	r0, r5
300060e4:	e1a01004 	mov	r1, r4
300060e8:	ebfffe0e 	bl	30005928 <SwapXY>
300060ec:	e59dc008 	ldr	ip, [sp, #8]
300060f0:	eaffffac 	b	30005fa8 <ReadTs+0x64>
300060f4:	3000f5dc 	ldrccd	pc, [r0], -ip
300060f8:	3000f5f0 	strccd	pc, [r0], -r0
300060fc:	3000f5e0 	andcc	pc, r0, r0, ror #11
30006100:	3000f5f8 	strccd	pc, [r0], -r8
30006104:	3000f5f4 	strccd	pc, [r0], -r4
30006108:	3000f5e8 	andcc	pc, r0, r8, ror #11
3000610c:	3000f5fc 	strccd	pc, [r0], -ip
30006110:	3000f604 	andcc	pc, r0, r4, lsl #12
30006114:	3000f608 	andcc	pc, r0, r8, lsl #12
30006118:	3000ecb0 	strcch	lr, [r0], -r0

3000611c <KeyEintIrq>:
3000611c:	e92d40f0 	stmdb	sp!, {r4, r5, r6, r7, lr}
30006120:	e3a05456 	mov	r5, #1442840576	; 0x56000000
30006124:	e2504000 	subs	r4, r0, #0	; 0x0
30006128:	e59560a8 	ldr	r6, [r5, #168]
3000612c:	e24dd004 	sub	sp, sp, #4	; 0x4
30006130:	e5953054 	ldr	r3, [r5, #84]
30006134:	e5952064 	ldr	r2, [r5, #100]
30006138:	1a000009 	bne	30006164 <KeyEintIrq+0x48>
3000613c:	e3130001 	tst	r3, #1	; 0x1
30006140:	0a00000f 	beq	30006184 <KeyEintIrq+0x68>
30006144:	e59f3374 	ldr	r3, [pc, #884]	; 300064c0 <.text+0x64c0>
30006148:	e5932000 	ldr	r2, [r3]
3000614c:	e3520000 	cmp	r2, #0	; 0x0
30006150:	1a00001d 	bne	300061cc <KeyEintIrq+0xb0>
30006154:	e5953054 	ldr	r3, [r5, #84]
30006158:	e3833040 	orr	r3, r3, #64	; 0x40
3000615c:	e5853054 	str	r3, [r5, #84]
30006160:	ea000003 	b	30006174 <KeyEintIrq+0x58>
30006164:	e3540002 	cmp	r4, #2	; 0x2
30006168:	0a00000d 	beq	300061a4 <KeyEintIrq+0x88>
3000616c:	e3540005 	cmp	r4, #5	; 0x5
30006170:	0a000037 	beq	30006254 <KeyEintIrq+0x138>
30006174:	e3a03456 	mov	r3, #1442840576	; 0x56000000
30006178:	e58360a8 	str	r6, [r3, #168]
3000617c:	e28dd004 	add	sp, sp, #4	; 0x4
30006180:	e8bd80f0 	ldmia	sp!, {r4, r5, r6, r7, pc}
30006184:	e59f3334 	ldr	r3, [pc, #820]	; 300064c0 <.text+0x64c0>
30006188:	e5932000 	ldr	r2, [r3]
3000618c:	e3520000 	cmp	r2, #0	; 0x0
30006190:	1a00001e 	bne	30006210 <KeyEintIrq+0xf4>
30006194:	e5953054 	ldr	r3, [r5, #84]
30006198:	e3c33040 	bic	r3, r3, #64	; 0x40
3000619c:	e5853054 	str	r3, [r5, #84]
300061a0:	eafffff3 	b	30006174 <KeyEintIrq+0x58>
300061a4:	e2134004 	ands	r4, r3, #4	; 0x4
300061a8:	0a000035 	beq	30006284 <KeyEintIrq+0x168>
300061ac:	e59f330c 	ldr	r3, [pc, #780]	; 300064c0 <.text+0x64c0>
300061b0:	e5932000 	ldr	r2, [r3]
300061b4:	e3520000 	cmp	r2, #0	; 0x0
300061b8:	1a00005e 	bne	30006338 <KeyEintIrq+0x21c>
300061bc:	e5953054 	ldr	r3, [r5, #84]
300061c0:	e3833020 	orr	r3, r3, #32	; 0x20
300061c4:	e5853054 	str	r3, [r5, #84]
300061c8:	eaffffe9 	b	30006174 <KeyEintIrq+0x58>
300061cc:	e1a03004 	mov	r3, r4
300061d0:	e3a0c001 	mov	ip, #1	; 0x1
300061d4:	e3a0106e 	mov	r1, #110	; 0x6e
300061d8:	e59f22e4 	ldr	r2, [pc, #740]	; 300064c4 <.text+0x64c4>
300061dc:	e2800096 	add	r0, r0, #150	; 0x96
300061e0:	e58dc000 	str	ip, [sp]
300061e4:	ebfffae6 	bl	30004d84 <PrintFbString8x16>
300061e8:	e3a0093d 	mov	r0, #999424	; 0xf4000
300061ec:	e2800d09 	add	r0, r0, #576	; 0x240
300061f0:	ebffef01 	bl	30001dfc <Delay>
300061f4:	e3a00096 	mov	r0, #150	; 0x96
300061f8:	e3a0106e 	mov	r1, #110	; 0x6e
300061fc:	e59f22c0 	ldr	r2, [pc, #704]	; 300064c4 <.text+0x64c4>
30006200:	e3e034ff 	mvn	r3, #-16777216	; 0xff000000
30006204:	e58d4000 	str	r4, [sp]
30006208:	ebfffadd 	bl	30004d84 <PrintFbString8x16>
3000620c:	eaffffd0 	b	30006154 <KeyEintIrq+0x38>
30006210:	e1a03004 	mov	r3, r4
30006214:	e3a0c001 	mov	ip, #1	; 0x1
30006218:	e3a0106e 	mov	r1, #110	; 0x6e
3000621c:	e59f22a4 	ldr	r2, [pc, #676]	; 300064c8 <.text+0x64c8>
30006220:	e3a00096 	mov	r0, #150	; 0x96
30006224:	e58dc000 	str	ip, [sp]
30006228:	ebfffad5 	bl	30004d84 <PrintFbString8x16>
3000622c:	e3a0093d 	mov	r0, #999424	; 0xf4000
30006230:	e2800d09 	add	r0, r0, #576	; 0x240
30006234:	ebffeef0 	bl	30001dfc <Delay>
30006238:	e3a00096 	mov	r0, #150	; 0x96
3000623c:	e3a0106e 	mov	r1, #110	; 0x6e
30006240:	e59f2280 	ldr	r2, [pc, #640]	; 300064c8 <.text+0x64c8>
30006244:	e3e034ff 	mvn	r3, #-16777216	; 0xff000000
30006248:	e58d4000 	str	r4, [sp]
3000624c:	ebfffacc 	bl	30004d84 <PrintFbString8x16>
30006250:	eaffffcf 	b	30006194 <KeyEintIrq+0x78>
30006254:	e2164b02 	ands	r4, r6, #2048	; 0x800
30006258:	0a000011 	beq	300062a4 <KeyEintIrq+0x188>
3000625c:	e2124008 	ands	r4, r2, #8	; 0x8
30006260:	0a00001b 	beq	300062d4 <KeyEintIrq+0x1b8>
30006264:	e59f3254 	ldr	r3, [pc, #596]	; 300064c0 <.text+0x64c0>
30006268:	e5932000 	ldr	r2, [r3]
3000626c:	e3520000 	cmp	r2, #0	; 0x0
30006270:	1a00004d 	bne	300063ac <KeyEintIrq+0x290>
30006274:	e5953054 	ldr	r3, [r5, #84]
30006278:	e3833010 	orr	r3, r3, #16	; 0x10
3000627c:	e5853054 	str	r3, [r5, #84]
30006280:	eaffffbb 	b	30006174 <KeyEintIrq+0x58>
30006284:	e59f3234 	ldr	r3, [pc, #564]	; 300064c0 <.text+0x64c0>
30006288:	e5932000 	ldr	r2, [r3]
3000628c:	e3520000 	cmp	r2, #0	; 0x0
30006290:	1a000017 	bne	300062f4 <KeyEintIrq+0x1d8>
30006294:	e5953054 	ldr	r3, [r5, #84]
30006298:	e3c33020 	bic	r3, r3, #32	; 0x20
3000629c:	e5853054 	str	r3, [r5, #84]
300062a0:	eaffffb3 	b	30006174 <KeyEintIrq+0x58>
300062a4:	e3160702 	tst	r6, #524288	; 0x80000
300062a8:	0affffb1 	beq	30006174 <KeyEintIrq+0x58>
300062ac:	e2127b02 	ands	r7, r2, #2048	; 0x800
300062b0:	0a000032 	beq	30006380 <KeyEintIrq+0x264>
300062b4:	e59f3204 	ldr	r3, [pc, #516]	; 300064c0 <.text+0x64c0>
300062b8:	e5932000 	ldr	r2, [r3]
300062bc:	e3520000 	cmp	r2, #0	; 0x0
300062c0:	1a00005c 	bne	30006438 <KeyEintIrq+0x31c>
300062c4:	e5953054 	ldr	r3, [r5, #84]
300062c8:	e3833070 	orr	r3, r3, #112	; 0x70
300062cc:	e5853054 	str	r3, [r5, #84]
300062d0:	eaffffa7 	b	30006174 <KeyEintIrq+0x58>
300062d4:	e59f31e4 	ldr	r3, [pc, #484]	; 300064c0 <.text+0x64c0>
300062d8:	e5932000 	ldr	r2, [r3]
300062dc:	e3520000 	cmp	r2, #0	; 0x0
300062e0:	1a000043 	bne	300063f4 <KeyEintIrq+0x2d8>
300062e4:	e5953054 	ldr	r3, [r5, #84]
300062e8:	e3c33010 	bic	r3, r3, #16	; 0x10
300062ec:	e5853054 	str	r3, [r5, #84]
300062f0:	eaffff9f 	b	30006174 <KeyEintIrq+0x58>
300062f4:	e1a03004 	mov	r3, r4
300062f8:	e3a0c001 	mov	ip, #1	; 0x1
300062fc:	e3a0106e 	mov	r1, #110	; 0x6e
30006300:	e59f21c4 	ldr	r2, [pc, #452]	; 300064cc <.text+0x64cc>
30006304:	e3a00096 	mov	r0, #150	; 0x96
30006308:	e58dc000 	str	ip, [sp]
3000630c:	ebfffa9c 	bl	30004d84 <PrintFbString8x16>
30006310:	e3a0093d 	mov	r0, #999424	; 0xf4000
30006314:	e2800d09 	add	r0, r0, #576	; 0x240
30006318:	ebffeeb7 	bl	30001dfc <Delay>
3000631c:	e3a00096 	mov	r0, #150	; 0x96
30006320:	e3a0106e 	mov	r1, #110	; 0x6e
30006324:	e59f21a0 	ldr	r2, [pc, #416]	; 300064cc <.text+0x64cc>
30006328:	e3e034ff 	mvn	r3, #-16777216	; 0xff000000
3000632c:	e58d4000 	str	r4, [sp]
30006330:	ebfffa93 	bl	30004d84 <PrintFbString8x16>
30006334:	eaffffd6 	b	30006294 <KeyEintIrq+0x178>
30006338:	e3a0c001 	mov	ip, #1	; 0x1
3000633c:	e3a0106e 	mov	r1, #110	; 0x6e
30006340:	e59f2188 	ldr	r2, [pc, #392]	; 300064d0 <.text+0x64d0>
30006344:	e3a03000 	mov	r3, #0	; 0x0
30006348:	e3a00096 	mov	r0, #150	; 0x96
3000634c:	e58dc000 	str	ip, [sp]
30006350:	ebfffa8b 	bl	30004d84 <PrintFbString8x16>
30006354:	e3a0093d 	mov	r0, #999424	; 0xf4000
30006358:	e2800d09 	add	r0, r0, #576	; 0x240
3000635c:	ebffeea6 	bl	30001dfc <Delay>
30006360:	e3a0c000 	mov	ip, #0	; 0x0
30006364:	e3a00096 	mov	r0, #150	; 0x96
30006368:	e3a0106e 	mov	r1, #110	; 0x6e
3000636c:	e59f215c 	ldr	r2, [pc, #348]	; 300064d0 <.text+0x64d0>
30006370:	e3e034ff 	mvn	r3, #-16777216	; 0xff000000
30006374:	e58dc000 	str	ip, [sp]
30006378:	ebfffa81 	bl	30004d84 <PrintFbString8x16>
3000637c:	eaffff8e 	b	300061bc <KeyEintIrq+0xa0>
30006380:	e59f3138 	ldr	r3, [pc, #312]	; 300064c0 <.text+0x64c0>
30006384:	e5932000 	ldr	r2, [r3]
30006388:	e3520000 	cmp	r2, #0	; 0x0
3000638c:	1a00003a 	bne	3000647c <KeyEintIrq+0x360>
30006390:	e5953054 	ldr	r3, [r5, #84]
30006394:	e59f2138 	ldr	r2, [pc, #312]	; 300064d4 <.text+0x64d4>
30006398:	e3c33070 	bic	r3, r3, #112	; 0x70
3000639c:	e3a01001 	mov	r1, #1	; 0x1
300063a0:	e5821000 	str	r1, [r2]
300063a4:	e5853054 	str	r3, [r5, #84]
300063a8:	eaffff71 	b	30006174 <KeyEintIrq+0x58>
300063ac:	e3a0c001 	mov	ip, #1	; 0x1
300063b0:	e3a0106e 	mov	r1, #110	; 0x6e
300063b4:	e59f211c 	ldr	r2, [pc, #284]	; 300064d8 <.text+0x64d8>
300063b8:	e3a03000 	mov	r3, #0	; 0x0
300063bc:	e3a00096 	mov	r0, #150	; 0x96
300063c0:	e58dc000 	str	ip, [sp]
300063c4:	ebfffa6e 	bl	30004d84 <PrintFbString8x16>
300063c8:	e3a0093d 	mov	r0, #999424	; 0xf4000
300063cc:	e2800d09 	add	r0, r0, #576	; 0x240
300063d0:	ebffee89 	bl	30001dfc <Delay>
300063d4:	e3a0c000 	mov	ip, #0	; 0x0
300063d8:	e3a00096 	mov	r0, #150	; 0x96
300063dc:	e3a0106e 	mov	r1, #110	; 0x6e
300063e0:	e59f20f0 	ldr	r2, [pc, #240]	; 300064d8 <.text+0x64d8>
300063e4:	e3e034ff 	mvn	r3, #-16777216	; 0xff000000
300063e8:	e58dc000 	str	ip, [sp]
300063ec:	ebfffa64 	bl	30004d84 <PrintFbString8x16>
300063f0:	eaffff9f 	b	30006274 <KeyEintIrq+0x158>
300063f4:	e1a03004 	mov	r3, r4
300063f8:	e3a0c001 	mov	ip, #1	; 0x1
300063fc:	e3a0106e 	mov	r1, #110	; 0x6e
30006400:	e59f20d4 	ldr	r2, [pc, #212]	; 300064dc <.text+0x64dc>
30006404:	e3a00096 	mov	r0, #150	; 0x96
30006408:	e58dc000 	str	ip, [sp]
3000640c:	ebfffa5c 	bl	30004d84 <PrintFbString8x16>
30006410:	e3a0093d 	mov	r0, #999424	; 0xf4000
30006414:	e2800d09 	add	r0, r0, #576	; 0x240
30006418:	ebffee77 	bl	30001dfc <Delay>
3000641c:	e3a00096 	mov	r0, #150	; 0x96
30006420:	e3a0106e 	mov	r1, #110	; 0x6e
30006424:	e59f20b0 	ldr	r2, [pc, #176]	; 300064dc <.text+0x64dc>
30006428:	e3e034ff 	mvn	r3, #-16777216	; 0xff000000
3000642c:	e58d4000 	str	r4, [sp]
30006430:	ebfffa53 	bl	30004d84 <PrintFbString8x16>
30006434:	eaffffaa 	b	300062e4 <KeyEintIrq+0x1c8>
30006438:	e1a03004 	mov	r3, r4
3000643c:	e3a0c001 	mov	ip, #1	; 0x1
30006440:	e3a0106e 	mov	r1, #110	; 0x6e
30006444:	e59f2094 	ldr	r2, [pc, #148]	; 300064e0 <.text+0x64e0>
30006448:	e3a00096 	mov	r0, #150	; 0x96
3000644c:	e58dc000 	str	ip, [sp]
30006450:	ebfffa4b 	bl	30004d84 <PrintFbString8x16>
30006454:	e3a0093d 	mov	r0, #999424	; 0xf4000
30006458:	e2800d09 	add	r0, r0, #576	; 0x240
3000645c:	ebffee66 	bl	30001dfc <Delay>
30006460:	e3a00096 	mov	r0, #150	; 0x96
30006464:	e3a0106e 	mov	r1, #110	; 0x6e
30006468:	e59f2070 	ldr	r2, [pc, #112]	; 300064e0 <.text+0x64e0>
3000646c:	e3e034ff 	mvn	r3, #-16777216	; 0xff000000
30006470:	e58d4000 	str	r4, [sp]
30006474:	ebfffa42 	bl	30004d84 <PrintFbString8x16>
30006478:	eaffff91 	b	300062c4 <KeyEintIrq+0x1a8>
3000647c:	e1a03007 	mov	r3, r7
30006480:	e3a0c001 	mov	ip, #1	; 0x1
30006484:	e3a0106e 	mov	r1, #110	; 0x6e
30006488:	e59f2054 	ldr	r2, [pc, #84]	; 300064e4 <.text+0x64e4>
3000648c:	e3a00096 	mov	r0, #150	; 0x96
30006490:	e58dc000 	str	ip, [sp]
30006494:	ebfffa3a 	bl	30004d84 <PrintFbString8x16>
30006498:	e3a0093d 	mov	r0, #999424	; 0xf4000
3000649c:	e2800d09 	add	r0, r0, #576	; 0x240
300064a0:	ebffee55 	bl	30001dfc <Delay>
300064a4:	e3a00096 	mov	r0, #150	; 0x96
300064a8:	e3a0106e 	mov	r1, #110	; 0x6e
300064ac:	e59f2030 	ldr	r2, [pc, #48]	; 300064e4 <.text+0x64e4>
300064b0:	e3e034ff 	mvn	r3, #-16777216	; 0xff000000
300064b4:	e58d7000 	str	r7, [sp]
300064b8:	ebfffa31 	bl	30004d84 <PrintFbString8x16>
300064bc:	eaffffb3 	b	30006390 <KeyEintIrq+0x274>
300064c0:	3000f614 	andcc	pc, r0, r4, lsl r6
300064c4:	3000ecdc 	ldrccd	lr, [r0], -ip
300064c8:	3000ecf4 	strccd	lr, [r0], -r4
300064cc:	3000ed0c 	andcc	lr, r0, ip, lsl #26
300064d0:	3000ed24 	andcc	lr, r0, r4, lsr #26
300064d4:	3000f610 	andcc	pc, r0, r0, lsl r6
300064d8:	3000ed3c 	andcc	lr, r0, ip, lsr sp
300064dc:	3000ed54 	andcc	lr, r0, r4, asr sp
300064e0:	3000ed6c 	andcc	lr, r0, ip, ror #26
300064e4:	3000ed84 	andcc	lr, r0, r4, lsl #27

300064e8 <InitKey>:
300064e8:	e92d4010 	stmdb	sp!, {r4, lr}
300064ec:	e3a0244a 	mov	r2, #1241513984	; 0x4a000000
300064f0:	e5923008 	ldr	r3, [r2, #8]
300064f4:	e3c33025 	bic	r3, r3, #37	; 0x25
300064f8:	e5823008 	str	r3, [r2, #8]
300064fc:	e3a0c456 	mov	ip, #1442840576	; 0x56000000
30006500:	e59c3050 	ldr	r3, [ip, #80]
30006504:	e3c33033 	bic	r3, r3, #51	; 0x33
30006508:	e58c3050 	str	r3, [ip, #80]
3000650c:	e59c2050 	ldr	r2, [ip, #80]
30006510:	e3822022 	orr	r2, r2, #34	; 0x22
30006514:	e58c2050 	str	r2, [ip, #80]
30006518:	e59c3060 	ldr	r3, [ip, #96]
3000651c:	e3c33503 	bic	r3, r3, #12582912	; 0xc00000
30006520:	e3c330c0 	bic	r3, r3, #192	; 0xc0
30006524:	e58c3060 	str	r3, [ip, #96]
30006528:	e59c2060 	ldr	r2, [ip, #96]
3000652c:	e3822502 	orr	r2, r2, #8388608	; 0x800000
30006530:	e3822080 	orr	r2, r2, #128	; 0x80
30006534:	e58c2060 	str	r2, [ip, #96]
30006538:	e59c3088 	ldr	r3, [ip, #136]
3000653c:	e3833c07 	orr	r3, r3, #1792	; 0x700
30006540:	e3833007 	orr	r3, r3, #7	; 0x7
30006544:	e58c3088 	str	r3, [ip, #136]
30006548:	e59c208c 	ldr	r2, [ip, #140]
3000654c:	e3822a07 	orr	r2, r2, #28672	; 0x7000
30006550:	e58c208c 	str	r2, [ip, #140]
30006554:	e59c3090 	ldr	r3, [ip, #144]
30006558:	e3833a07 	orr	r3, r3, #28672	; 0x7000
3000655c:	e58c3090 	str	r3, [ip, #144]
30006560:	e59c20a4 	ldr	r2, [ip, #164]
30006564:	e59f4030 	ldr	r4, [pc, #48]	; 3000659c <.text+0x659c>
30006568:	e3c22702 	bic	r2, r2, #524288	; 0x80000
3000656c:	e3c22b02 	bic	r2, r2, #2048	; 0x800
30006570:	e1a01004 	mov	r1, r4
30006574:	e58c20a4 	str	r2, [ip, #164]
30006578:	e3a00000 	mov	r0, #0	; 0x0
3000657c:	ebffed78 	bl	30001b64 <RegisterIrq>
30006580:	e1a01004 	mov	r1, r4
30006584:	e3a00002 	mov	r0, #2	; 0x2
30006588:	ebffed75 	bl	30001b64 <RegisterIrq>
3000658c:	e1a01004 	mov	r1, r4
30006590:	e3a00005 	mov	r0, #5	; 0x5
30006594:	e8bd4010 	ldmia	sp!, {r4, lr}
30006598:	eaffed71 	b	30001b64 <RegisterIrq>
3000659c:	3000611c 	andcc	r6, r0, ip, lsl r1

300065a0 <TestKey>:
300065a0:	e52de004 	str	lr, [sp, #-4]!
300065a4:	e59f2050 	ldr	r2, [pc, #80]	; 300065fc <.text+0x65fc>
300065a8:	e3a03001 	mov	r3, #1	; 0x1
300065ac:	e24dd004 	sub	sp, sp, #4	; 0x4
300065b0:	e5823000 	str	r3, [r2]
300065b4:	e3e004ff 	mvn	r0, #-16777216	; 0xff000000
300065b8:	ebfff81d 	bl	30004634 <ClearScreen>
300065bc:	e3a038e3 	mov	r3, #14876672	; 0xe30000
300065c0:	e2833c17 	add	r3, r3, #5888	; 0x1700
300065c4:	e3a0c000 	mov	ip, #0	; 0x0
300065c8:	e283300d 	add	r3, r3, #13	; 0xd
300065cc:	e3a000b0 	mov	r0, #176	; 0xb0
300065d0:	e3a01005 	mov	r1, #5	; 0x5
300065d4:	e59f2024 	ldr	r2, [pc, #36]	; 30006600 <.text+0x6600>
300065d8:	e58dc000 	str	ip, [sp]
300065dc:	ebfffa0f 	bl	30004e20 <PrintFbString16x32>
300065e0:	ebfff0d0 	bl	30002928 <DisplayReturnButton>
300065e4:	ebffeeae 	bl	300020a4 <isClickReturn>
300065e8:	e3500000 	cmp	r0, #0	; 0x0
300065ec:	0afffffc 	beq	300065e4 <TestKey+0x44>
300065f0:	e28dd004 	add	sp, sp, #4	; 0x4
300065f4:	e49de004 	ldr	lr, [sp], #4
300065f8:	eafff19d 	b	30002c74 <MainPage>
300065fc:	3000f614 	andcc	pc, r0, r4, lsl r6
30006600:	3000ed9c 	mulcc	r0, ip, sp

30006604 <RegisterI2cController>:
30006604:	e59f1024 	ldr	r1, [pc, #36]	; 30006630 <.text+0x6630>
30006608:	e3a02000 	mov	r2, #0	; 0x0
3000660c:	e7913102 	ldr	r3, [r1, r2, lsl #2]
30006610:	e3530000 	cmp	r3, #0	; 0x0
30006614:	0a000003 	beq	30006628 <RegisterI2cController+0x24>
30006618:	e2822001 	add	r2, r2, #1	; 0x1
3000661c:	e3520009 	cmp	r2, #9	; 0x9
30006620:	dafffff9 	ble	3000660c <RegisterI2cController+0x8>
30006624:	e1a0f00e 	mov	pc, lr
30006628:	e7810102 	str	r0, [r1, r2, lsl #2]
3000662c:	e1a0f00e 	mov	pc, lr
30006630:	3000f618 	andcc	pc, r0, r8, lsl r6

30006634 <SelectI2cController>:
30006634:	e92d40f0 	stmdb	sp!, {r4, r5, r6, r7, lr}
30006638:	e59f7044 	ldr	r7, [pc, #68]	; 30006684 <.text+0x6684>
3000663c:	e1a06000 	mov	r6, r0
30006640:	e3a05000 	mov	r5, #0	; 0x0
30006644:	e7974105 	ldr	r4, [r7, r5, lsl #2]
30006648:	e3540000 	cmp	r4, #0	; 0x0
3000664c:	e1a00006 	mov	r0, r6
30006650:	e2855001 	add	r5, r5, #1	; 0x1
30006654:	0a000003 	beq	30006668 <SelectI2cController+0x34>
30006658:	e5941008 	ldr	r1, [r4, #8]
3000665c:	ebffed00 	bl	30001a64 <strcmp>
30006660:	e3500000 	cmp	r0, #0	; 0x0
30006664:	0a000003 	beq	30006678 <SelectI2cController+0x44>
30006668:	e3550009 	cmp	r5, #9	; 0x9
3000666c:	dafffff4 	ble	30006644 <SelectI2cController+0x10>
30006670:	e3e00000 	mvn	r0, #0	; 0x0
30006674:	e8bd80f0 	ldmia	sp!, {r4, r5, r6, r7, pc}
30006678:	e59f3008 	ldr	r3, [pc, #8]	; 30006688 <.text+0x6688>
3000667c:	e5834000 	str	r4, [r3]
30006680:	e8bd80f0 	ldmia	sp!, {r4, r5, r6, r7, pc}
30006684:	3000f618 	andcc	pc, r0, r8, lsl r6
30006688:	3000f640 	andcc	pc, r0, r0, asr #12

3000668c <TransferI2c>:
3000668c:	e52de004 	str	lr, [sp, #-4]!
30006690:	e59f300c 	ldr	r3, [pc, #12]	; 300066a4 <.text+0x66a4>
30006694:	e5932000 	ldr	r2, [r3]
30006698:	e1a0e00f 	mov	lr, pc
3000669c:	e592f004 	ldr	pc, [r2, #4]
300066a0:	e49df004 	ldr	pc, [sp], #4
300066a4:	3000f640 	andcc	pc, r0, r0, asr #12

300066a8 <InitI2c>:
300066a8:	e52de004 	str	lr, [sp, #-4]!
300066ac:	eb0000ed 	bl	30006a68 <AddS3c2440I2cCon>
300066b0:	e59f0014 	ldr	r0, [pc, #20]	; 300066cc <.text+0x66cc>
300066b4:	ebffffde 	bl	30006634 <SelectI2cController>
300066b8:	e59f3010 	ldr	r3, [pc, #16]	; 300066d0 <.text+0x66d0>
300066bc:	e5932000 	ldr	r2, [r3]
300066c0:	e1a0e00f 	mov	lr, pc
300066c4:	e592f000 	ldr	pc, [r2]
300066c8:	e49df004 	ldr	pc, [sp], #4
300066cc:	3000ea38 	andcc	lr, r0, r8, lsr sl
300066d0:	3000f640 	andcc	pc, r0, r0, asr #12

300066d4 <isLastData>:
300066d4:	e59f301c 	ldr	r3, [pc, #28]	; 300066f8 <.text+0x66f8>
300066d8:	e5932000 	ldr	r2, [r3]
300066dc:	e2820008 	add	r0, r2, #8	; 0x8
300066e0:	e8900009 	ldmia	r0, {r0, r3}
300066e4:	e2400001 	sub	r0, r0, #1	; 0x1
300066e8:	e1530000 	cmp	r3, r0
300066ec:	13a00000 	movne	r0, #0	; 0x0
300066f0:	03a00001 	moveq	r0, #1	; 0x1
300066f4:	e1a0f00e 	mov	pc, lr
300066f8:	3000f644 	andcc	pc, r0, r4, asr #12

300066fc <ResumeIicWithAck>:
300066fc:	e3a02315 	mov	r2, #1409286144	; 0x54000000
30006700:	e5923000 	ldr	r3, [r2]
30006704:	e3833080 	orr	r3, r3, #128	; 0x80
30006708:	e3c33010 	bic	r3, r3, #16	; 0x10
3000670c:	e5823000 	str	r3, [r2]
30006710:	e1a0f00e 	mov	pc, lr

30006714 <ResumeIicWithoutAck>:
30006714:	e3a02315 	mov	r2, #1409286144	; 0x54000000
30006718:	e5923000 	ldr	r3, [r2]
3000671c:	e3c33090 	bic	r3, r3, #144	; 0x90
30006720:	e5823000 	str	r3, [r2]
30006724:	e1a0f00e 	mov	pc, lr

30006728 <I2cInterruptFunc>:
30006728:	e52de004 	str	lr, [sp, #-4]!
3000672c:	e3a00ffa 	mov	r0, #1000	; 0x3e8
30006730:	ebffedb1 	bl	30001dfc <Delay>
30006734:	e59fe140 	ldr	lr, [pc, #320]	; 3000687c <.text+0x687c>
30006738:	e59e1000 	ldr	r1, [lr]
3000673c:	e591000c 	ldr	r0, [r1, #12]
30006740:	e5913004 	ldr	r3, [r1, #4]
30006744:	e3a0c315 	mov	ip, #1409286144	; 0x54000000
30006748:	e3530000 	cmp	r3, #0	; 0x0
3000674c:	e2802001 	add	r2, r0, #1	; 0x1
30006750:	e59c3004 	ldr	r3, [ip, #4]
30006754:	e581200c 	str	r2, [r1, #12]
30006758:	1a00000e 	bne	30006798 <I2cInterruptFunc+0x70>
3000675c:	e3520000 	cmp	r2, #0	; 0x0
30006760:	0a000015 	beq	300067bc <I2cInterruptFunc+0x94>
30006764:	e59e2000 	ldr	r2, [lr]
30006768:	e592100c 	ldr	r1, [r2, #12]
3000676c:	e5923008 	ldr	r3, [r2, #8]
30006770:	e1510003 	cmp	r1, r3
30006774:	aa000038 	bge	3000685c <I2cInterruptFunc+0x134>
30006778:	e5923014 	ldr	r3, [r2, #20]
3000677c:	e7d31001 	ldrb	r1, [r3, r1]
30006780:	e3a02315 	mov	r2, #1409286144	; 0x54000000
30006784:	e582100c 	str	r1, [r2, #12]
30006788:	e5923000 	ldr	r3, [r2]
3000678c:	e3c33010 	bic	r3, r3, #16	; 0x10
30006790:	e5823000 	str	r3, [r2]
30006794:	e49df004 	ldr	pc, [sp], #4
30006798:	e3520000 	cmp	r2, #0	; 0x0
3000679c:	1a000011 	bne	300067e8 <I2cInterruptFunc+0xc0>
300067a0:	e3130001 	tst	r3, #1	; 0x1
300067a4:	1a00001a 	bne	30006814 <I2cInterruptFunc+0xec>
300067a8:	ebffffc9 	bl	300066d4 <isLastData>
300067ac:	e3500000 	cmp	r0, #0	; 0x0
300067b0:	0a000015 	beq	3000680c <I2cInterruptFunc+0xe4>
300067b4:	e49de004 	ldr	lr, [sp], #4
300067b8:	eaffffd5 	b	30006714 <ResumeIicWithoutAck>
300067bc:	e3130001 	tst	r3, #1	; 0x1
300067c0:	0affffe7 	beq	30006764 <I2cInterruptFunc+0x3c>
300067c4:	e3a030d0 	mov	r3, #208	; 0xd0
300067c8:	e58c3004 	str	r3, [ip, #4]
300067cc:	e59c2000 	ldr	r2, [ip]
300067d0:	e59f00a8 	ldr	r0, [pc, #168]	; 30006880 <.text+0x6880>
300067d4:	e3c22010 	bic	r2, r2, #16	; 0x10
300067d8:	e24330d1 	sub	r3, r3, #209	; 0xd1
300067dc:	e58c2000 	str	r2, [ip]
300067e0:	e5813010 	str	r3, [r1, #16]
300067e4:	ea000012 	b	30006834 <I2cInterruptFunc+0x10c>
300067e8:	e5913008 	ldr	r3, [r1, #8]
300067ec:	e1520003 	cmp	r2, r3
300067f0:	aa000011 	bge	3000683c <I2cInterruptFunc+0x114>
300067f4:	e5912014 	ldr	r2, [r1, #20]
300067f8:	e59c300c 	ldr	r3, [ip, #12]
300067fc:	e7c23000 	strb	r3, [r2, r0]
30006800:	ebffffb3 	bl	300066d4 <isLastData>
30006804:	e3500000 	cmp	r0, #0	; 0x0
30006808:	1affffe9 	bne	300067b4 <I2cInterruptFunc+0x8c>
3000680c:	e49de004 	ldr	lr, [sp], #4
30006810:	eaffffb9 	b	300066fc <ResumeIicWithAck>
30006814:	e3a03090 	mov	r3, #144	; 0x90
30006818:	e58c3004 	str	r3, [ip, #4]
3000681c:	e59c2000 	ldr	r2, [ip]
30006820:	e2433091 	sub	r3, r3, #145	; 0x91
30006824:	e3c22010 	bic	r2, r2, #16	; 0x10
30006828:	e58c2000 	str	r2, [ip]
3000682c:	e59f0050 	ldr	r0, [pc, #80]	; 30006884 <.text+0x6884>
30006830:	e5813010 	str	r3, [r1, #16]
30006834:	e49de004 	ldr	lr, [sp], #4
30006838:	eaffeba5 	b	300016d4 <printf>
3000683c:	e3a02090 	mov	r2, #144	; 0x90
30006840:	e58c2004 	str	r2, [ip, #4]
30006844:	e59c3000 	ldr	r3, [ip]
30006848:	e3c33010 	bic	r3, r3, #16	; 0x10
3000684c:	e58c3000 	str	r3, [ip]
30006850:	e3a00ffa 	mov	r0, #1000	; 0x3e8
30006854:	e49de004 	ldr	lr, [sp], #4
30006858:	eaffed67 	b	30001dfc <Delay>
3000685c:	e3a01315 	mov	r1, #1409286144	; 0x54000000
30006860:	e3a020d0 	mov	r2, #208	; 0xd0
30006864:	e5812004 	str	r2, [r1, #4]
30006868:	e5913000 	ldr	r3, [r1]
3000686c:	e3a00ffa 	mov	r0, #1000	; 0x3e8
30006870:	e3c33010 	bic	r3, r3, #16	; 0x10
30006874:	e5813000 	str	r3, [r1]
30006878:	eafffff5 	b	30006854 <I2cInterruptFunc+0x12c>
3000687c:	3000f644 	andcc	pc, r0, r4, asr #12
30006880:	3000eda8 	andcc	lr, r0, r8, lsr #27
30006884:	3000edbc 	strcch	lr, [r0], -ip

30006888 <InitS3c2440I2cCon>:
30006888:	e92d4010 	stmdb	sp!, {r4, lr}
3000688c:	e3a0c456 	mov	ip, #1442840576	; 0x56000000
30006890:	e59c3040 	ldr	r3, [ip, #64]
30006894:	e3c3320f 	bic	r3, r3, #-268435456	; 0xf0000000
30006898:	e58c3040 	str	r3, [ip, #64]
3000689c:	e59c2040 	ldr	r2, [ip, #64]
300068a0:	e3a03315 	mov	r3, #1409286144	; 0x54000000
300068a4:	e382220a 	orr	r2, r2, #-1610612736	; 0xa0000000
300068a8:	e3a040be 	mov	r4, #190	; 0xbe
300068ac:	e58c2040 	str	r2, [ip, #64]
300068b0:	e3a0001b 	mov	r0, #27	; 0x1b
300068b4:	e59f100c 	ldr	r1, [pc, #12]	; 300068c8 <.text+0x68c8>
300068b8:	e5834000 	str	r4, [r3]
300068bc:	ebffeca8 	bl	30001b64 <RegisterIrq>
300068c0:	e3a00000 	mov	r0, #0	; 0x0
300068c4:	e8bd8010 	ldmia	sp!, {r4, pc}
300068c8:	30006728 	andcc	r6, r0, r8, lsr #14

300068cc <DoMasterTx>:
300068cc:	e92d4030 	stmdb	sp!, {r4, r5, lr}
300068d0:	e3e03000 	mvn	r3, #0	; 0x0
300068d4:	e3a04000 	mov	r4, #0	; 0x0
300068d8:	e5804010 	str	r4, [r0, #16]
300068dc:	e580300c 	str	r3, [r0, #12]
300068e0:	e2844315 	add	r4, r4, #1409286144	; 0x54000000
300068e4:	e5943000 	ldr	r3, [r4]
300068e8:	e3a02010 	mov	r2, #16	; 0x10
300068ec:	e3833080 	orr	r3, r3, #128	; 0x80
300068f0:	e5843000 	str	r3, [r4]
300068f4:	e5842004 	str	r2, [r4, #4]
300068f8:	e5903000 	ldr	r3, [r0]
300068fc:	e1a03083 	mov	r3, r3, lsl #1
30006900:	e584300c 	str	r3, [r4, #12]
30006904:	e59f305c 	ldr	r3, [pc, #92]	; 30006968 <.text+0x6968>
30006908:	e1a05000 	mov	r5, r0
3000690c:	e5901000 	ldr	r1, [r0]
30006910:	e5835000 	str	r5, [r3]
30006914:	e59f0050 	ldr	r0, [pc, #80]	; 3000696c <.text+0x696c>
30006918:	ebffeb6d 	bl	300016d4 <printf>
3000691c:	e3a030f0 	mov	r3, #240	; 0xf0
30006920:	e5843004 	str	r3, [r4, #4]
30006924:	e5954010 	ldr	r4, [r5, #16]
30006928:	e3540000 	cmp	r4, #0	; 0x0
3000692c:	1a000008 	bne	30006954 <DoMasterTx+0x88>
30006930:	e595200c 	ldr	r2, [r5, #12]
30006934:	e5953008 	ldr	r3, [r5, #8]
30006938:	e1520003 	cmp	r2, r3
3000693c:	1afffffb 	bne	30006930 <DoMasterTx+0x64>
30006940:	e1a01004 	mov	r1, r4
30006944:	e59f0024 	ldr	r0, [pc, #36]	; 30006970 <.text+0x6970>
30006948:	ebffeb61 	bl	300016d4 <printf>
3000694c:	e1a00004 	mov	r0, r4
30006950:	e8bd8030 	ldmia	sp!, {r4, r5, pc}
30006954:	e1a01004 	mov	r1, r4
30006958:	e59f0010 	ldr	r0, [pc, #16]	; 30006970 <.text+0x6970>
3000695c:	ebffeb5c 	bl	300016d4 <printf>
30006960:	e3e00000 	mvn	r0, #0	; 0x0
30006964:	e8bd8030 	ldmia	sp!, {r4, r5, pc}
30006968:	3000f644 	andcc	pc, r0, r4, asr #12
3000696c:	3000edd0 	ldrccd	lr, [r0], -r0
30006970:	3000ede4 	andcc	lr, r0, r4, ror #27

30006974 <DoMasterRx>:
30006974:	e92d4030 	stmdb	sp!, {r4, r5, lr}
30006978:	e3e03000 	mvn	r3, #0	; 0x0
3000697c:	e1a05000 	mov	r5, r0
30006980:	e3a00000 	mov	r0, #0	; 0x0
30006984:	e5850010 	str	r0, [r5, #16]
30006988:	e585300c 	str	r3, [r5, #12]
3000698c:	e3a04315 	mov	r4, #1409286144	; 0x54000000
30006990:	e5943000 	ldr	r3, [r4]
30006994:	e3a02010 	mov	r2, #16	; 0x10
30006998:	e3833080 	orr	r3, r3, #128	; 0x80
3000699c:	e5843000 	str	r3, [r4]
300069a0:	e5842004 	str	r2, [r4, #4]
300069a4:	e5953000 	ldr	r3, [r5]
300069a8:	e1a03083 	mov	r3, r3, lsl #1
300069ac:	e3833001 	orr	r3, r3, #1	; 0x1
300069b0:	e584300c 	str	r3, [r4, #12]
300069b4:	e59f3038 	ldr	r3, [pc, #56]	; 300069f4 <.text+0x69f4>
300069b8:	e5951000 	ldr	r1, [r5]
300069bc:	e5835000 	str	r5, [r3]
300069c0:	e59f0030 	ldr	r0, [pc, #48]	; 300069f8 <.text+0x69f8>
300069c4:	ebffeb42 	bl	300016d4 <printf>
300069c8:	e3a030b0 	mov	r3, #176	; 0xb0
300069cc:	e5843004 	str	r3, [r4, #4]
300069d0:	e5950010 	ldr	r0, [r5, #16]
300069d4:	e3500000 	cmp	r0, #0	; 0x0
300069d8:	13e00000 	mvnne	r0, #0	; 0x0
300069dc:	18bd8030 	ldmneia	sp!, {r4, r5, pc}
300069e0:	e595200c 	ldr	r2, [r5, #12]
300069e4:	e5953008 	ldr	r3, [r5, #8]
300069e8:	e1520003 	cmp	r2, r3
300069ec:	1afffffb 	bne	300069e0 <DoMasterRx+0x6c>
300069f0:	e8bd8030 	ldmia	sp!, {r4, r5, pc}
300069f4:	3000f644 	andcc	pc, r0, r4, asr #12
300069f8:	3000edd0 	ldrccd	lr, [r0], -r0

300069fc <S3c2440MasterXfer>:
300069fc:	e92d4070 	stmdb	sp!, {r4, r5, r6, lr}
30006a00:	e3a05000 	mov	r5, #0	; 0x0
30006a04:	e1550001 	cmp	r5, r1
30006a08:	e1a06001 	mov	r6, r1
30006a0c:	aa000013 	bge	30006a60 <S3c2440MasterXfer+0x64>
30006a10:	e1a04000 	mov	r4, r0
30006a14:	ea000006 	b	30006a34 <S3c2440MasterXfer+0x38>
30006a18:	ebffffab 	bl	300068cc <DoMasterTx>
30006a1c:	e3500000 	cmp	r0, #0	; 0x0
30006a20:	e2855001 	add	r5, r5, #1	; 0x1
30006a24:	e2844018 	add	r4, r4, #24	; 0x18
30006a28:	18bd8070 	ldmneia	sp!, {r4, r5, r6, pc}
30006a2c:	e1550006 	cmp	r5, r6
30006a30:	aa00000a 	bge	30006a60 <S3c2440MasterXfer+0x64>
30006a34:	e5943004 	ldr	r3, [r4, #4]
30006a38:	e3530000 	cmp	r3, #0	; 0x0
30006a3c:	e1a00004 	mov	r0, r4
30006a40:	0afffff4 	beq	30006a18 <S3c2440MasterXfer+0x1c>
30006a44:	e1a00004 	mov	r0, r4
30006a48:	ebffffc9 	bl	30006974 <DoMasterRx>
30006a4c:	e3500000 	cmp	r0, #0	; 0x0
30006a50:	e2855001 	add	r5, r5, #1	; 0x1
30006a54:	e2844018 	add	r4, r4, #24	; 0x18
30006a58:	0afffff3 	beq	30006a2c <S3c2440MasterXfer+0x30>
30006a5c:	e8bd8070 	ldmia	sp!, {r4, r5, r6, pc}
30006a60:	e3a00000 	mov	r0, #0	; 0x0
30006a64:	e8bd8070 	ldmia	sp!, {r4, r5, r6, pc}

30006a68 <AddS3c2440I2cCon>:
30006a68:	e59f0000 	ldr	r0, [pc, #0]	; 30006a70 <.text+0x6a70>
30006a6c:	eafffee4 	b	30006604 <RegisterI2cController>
30006a70:	3000f4b0 	strcch	pc, [r0], -r0

30006a74 <WriteAt24cxx>:
30006a74:	e92d4ff0 	stmdb	sp!, {r4, r5, r6, r7, r8, r9, sl, fp, lr}
30006a78:	e3a05000 	mov	r5, #0	; 0x0
30006a7c:	e1550002 	cmp	r5, r2
30006a80:	e24dd01c 	sub	sp, sp, #28	; 0x1c
30006a84:	e1a08002 	mov	r8, r2
30006a88:	e1a06000 	mov	r6, r0
30006a8c:	e1a07001 	mov	r7, r1
30006a90:	aa000023 	bge	30006b24 <WriteAt24cxx+0xb0>
30006a94:	e1a0b00d 	mov	fp, sp
30006a98:	e28d9004 	add	r9, sp, #4	; 0x4
30006a9c:	e1a0a005 	mov	sl, r5
30006aa0:	e7d72005 	ldrb	r2, [r7, r5]
30006aa4:	e1a03006 	mov	r3, r6
30006aa8:	e5cd3000 	strb	r3, [sp]
30006aac:	e2866001 	add	r6, r6, #1	; 0x1
30006ab0:	e3a03050 	mov	r3, #80	; 0x50
30006ab4:	e1a01006 	mov	r1, r6
30006ab8:	e5cd2001 	strb	r2, [sp, #1]
30006abc:	e58d3004 	str	r3, [sp, #4]
30006ac0:	e3a02002 	mov	r2, #2	; 0x2
30006ac4:	e2433051 	sub	r3, r3, #81	; 0x51
30006ac8:	e59f0068 	ldr	r0, [pc, #104]	; 30006b38 <.text+0x6b38>
30006acc:	e58d3010 	str	r3, [sp, #16]
30006ad0:	e58d200c 	str	r2, [sp, #12]
30006ad4:	e58da008 	str	sl, [sp, #8]
30006ad8:	e58db018 	str	fp, [sp, #24]
30006adc:	e58da014 	str	sl, [sp, #20]
30006ae0:	ebffeafb 	bl	300016d4 <printf>
30006ae4:	e7d72005 	ldrb	r2, [r7, r5]
30006ae8:	e1a01005 	mov	r1, r5
30006aec:	e59f0048 	ldr	r0, [pc, #72]	; 30006b3c <.text+0x6b3c>
30006af0:	ebffeaf7 	bl	300016d4 <printf>
30006af4:	e3a01001 	mov	r1, #1	; 0x1
30006af8:	e1a00009 	mov	r0, r9
30006afc:	ebfffee2 	bl	3000668c <TransferI2c>
30006b00:	e1a04000 	mov	r4, r0
30006b04:	e1a01004 	mov	r1, r4
30006b08:	e59f0030 	ldr	r0, [pc, #48]	; 30006b40 <.text+0x6b40>
30006b0c:	ebffeaf0 	bl	300016d4 <printf>
30006b10:	e3540000 	cmp	r4, #0	; 0x0
30006b14:	e2855001 	add	r5, r5, #1	; 0x1
30006b18:	1a000004 	bne	30006b30 <WriteAt24cxx+0xbc>
30006b1c:	e1550008 	cmp	r5, r8
30006b20:	baffffde 	blt	30006aa0 <WriteAt24cxx+0x2c>
30006b24:	e3a00000 	mov	r0, #0	; 0x0
30006b28:	e28dd01c 	add	sp, sp, #28	; 0x1c
30006b2c:	e8bd8ff0 	ldmia	sp!, {r4, r5, r6, r7, r8, r9, sl, fp, pc}
30006b30:	e1a00004 	mov	r0, r4
30006b34:	eafffffb 	b	30006b28 <WriteAt24cxx+0xb4>
30006b38:	3000edf8 	strccd	lr, [r0], -r8
30006b3c:	3000ee14 	andcc	lr, r0, r4, lsl lr
30006b40:	3000ee34 	andcc	lr, r0, r4, lsr lr

30006b44 <ReadAt24cxx>:
30006b44:	e92d4030 	stmdb	sp!, {r4, r5, lr}
30006b48:	e24dd034 	sub	sp, sp, #52	; 0x34
30006b4c:	e3a0c000 	mov	ip, #0	; 0x0
30006b50:	e3a0e050 	mov	lr, #80	; 0x50
30006b54:	e3a04001 	mov	r4, #1	; 0x1
30006b58:	e3e05000 	mvn	r5, #0	; 0x0
30006b5c:	e58d0000 	str	r0, [sp]
30006b60:	e58d1030 	str	r1, [sp, #48]
30006b64:	e28d0004 	add	r0, sp, #4	; 0x4
30006b68:	e3a01002 	mov	r1, #2	; 0x2
30006b6c:	e58dd018 	str	sp, [sp, #24]
30006b70:	e58de01c 	str	lr, [sp, #28]
30006b74:	e58d4020 	str	r4, [sp, #32]
30006b78:	e58d2024 	str	r2, [sp, #36]
30006b7c:	e58dc02c 	str	ip, [sp, #44]
30006b80:	e58d5028 	str	r5, [sp, #40]
30006b84:	e58de004 	str	lr, [sp, #4]
30006b88:	e58dc008 	str	ip, [sp, #8]
30006b8c:	e58d400c 	str	r4, [sp, #12]
30006b90:	e58dc014 	str	ip, [sp, #20]
30006b94:	e58d5010 	str	r5, [sp, #16]
30006b98:	ebfffebb 	bl	3000668c <TransferI2c>
30006b9c:	e28dd034 	add	sp, sp, #52	; 0x34
30006ba0:	e8bd8030 	ldmia	sp!, {r4, r5, pc}

30006ba4 <DoWriteAt24cxx>:
30006ba4:	e92d4030 	stmdb	sp!, {r4, r5, lr}
30006ba8:	e59f0084 	ldr	r0, [pc, #132]	; 30006c34 <.text+0x6c34>
30006bac:	e24dd064 	sub	sp, sp, #100	; 0x64
30006bb0:	ebffeac7 	bl	300016d4 <printf>
30006bb4:	ebffeb96 	bl	30001a14 <get_uint>
30006bb8:	e1a04000 	mov	r4, r0
30006bbc:	e3540c01 	cmp	r4, #256	; 0x100
30006bc0:	e1a0500d 	mov	r5, sp
30006bc4:	e59f006c 	ldr	r0, [pc, #108]	; 30006c38 <.text+0x6c38>
30006bc8:	9a000003 	bls	30006bdc <DoWriteAt24cxx+0x38>
30006bcc:	e59f0068 	ldr	r0, [pc, #104]	; 30006c3c <.text+0x6c3c>
30006bd0:	ebffeabf 	bl	300016d4 <printf>
30006bd4:	e28dd064 	add	sp, sp, #100	; 0x64
30006bd8:	e8bd8030 	ldmia	sp!, {r4, r5, pc}
30006bdc:	ebffeabc 	bl	300016d4 <printf>
30006be0:	e1a0000d 	mov	r0, sp
30006be4:	ebffeb64 	bl	3000197c <gets>
30006be8:	e59f0050 	ldr	r0, [pc, #80]	; 30006c40 <.text+0x6c40>
30006bec:	ebffeab8 	bl	300016d4 <printf>
30006bf0:	e1a0000d 	mov	r0, sp
30006bf4:	ebffeb91 	bl	30001a40 <strlen>
30006bf8:	e1a01004 	mov	r1, r4
30006bfc:	e2803001 	add	r3, r0, #1	; 0x1
30006c00:	e1a0200d 	mov	r2, sp
30006c04:	e59f0038 	ldr	r0, [pc, #56]	; 30006c44 <.text+0x6c44>
30006c08:	ebffeab1 	bl	300016d4 <printf>
30006c0c:	e1a0000d 	mov	r0, sp
30006c10:	ebffeb8a 	bl	30001a40 <strlen>
30006c14:	e1a0100d 	mov	r1, sp
30006c18:	e2802001 	add	r2, r0, #1	; 0x1
30006c1c:	e1a00004 	mov	r0, r4
30006c20:	ebffff93 	bl	30006a74 <WriteAt24cxx>
30006c24:	e1a01000 	mov	r1, r0
30006c28:	e59f0018 	ldr	r0, [pc, #24]	; 30006c48 <.text+0x6c48>
30006c2c:	ebffeaa8 	bl	300016d4 <printf>
30006c30:	eaffffe7 	b	30006bd4 <DoWriteAt24cxx+0x30>
30006c34:	3000e184 	andcc	lr, r0, r4, lsl #3
30006c38:	3000e1ac 	andcc	lr, r0, ip, lsr #3
30006c3c:	3000ee4c 	andcc	lr, r0, ip, asr #28
30006c40:	3000e1c8 	andcc	lr, r0, r8, asr #3
30006c44:	3000ee64 	andcc	lr, r0, r4, ror #28
30006c48:	3000ee84 	andcc	lr, r0, r4, lsl #29

30006c4c <DoReadAt24cxx>:
30006c4c:	e92d40f0 	stmdb	sp!, {r4, r5, r6, r7, lr}
30006c50:	e59f00d4 	ldr	r0, [pc, #212]	; 30006d2c <.text+0x6d2c>
30006c54:	e24dd074 	sub	sp, sp, #116	; 0x74
30006c58:	ebffea9d 	bl	300016d4 <printf>
30006c5c:	ebffeb6c 	bl	30001a14 <get_uint>
30006c60:	e3500c01 	cmp	r0, #256	; 0x100
30006c64:	e1a04000 	mov	r4, r0
30006c68:	e3a06000 	mov	r6, #0	; 0x0
30006c6c:	9a000003 	bls	30006c80 <DoReadAt24cxx+0x34>
30006c70:	e59f00b8 	ldr	r0, [pc, #184]	; 30006d30 <.text+0x6d30>
30006c74:	ebffea96 	bl	300016d4 <printf>
30006c78:	e28dd074 	add	sp, sp, #116	; 0x74
30006c7c:	e8bd80f0 	ldmia	sp!, {r4, r5, r6, r7, pc}
30006c80:	e59f00ac 	ldr	r0, [pc, #172]	; 30006d34 <.text+0x6d34>
30006c84:	ebffea92 	bl	300016d4 <printf>
30006c88:	ebffeb56 	bl	300019e8 <get_int>
30006c8c:	e28d1010 	add	r1, sp, #16	; 0x10
30006c90:	e1a02000 	mov	r2, r0
30006c94:	e1a00004 	mov	r0, r4
30006c98:	ebffffa9 	bl	30006b44 <ReadAt24cxx>
30006c9c:	e1a01000 	mov	r1, r0
30006ca0:	e59f0090 	ldr	r0, [pc, #144]	; 30006d38 <.text+0x6d38>
30006ca4:	ebffea8a 	bl	300016d4 <printf>
30006ca8:	e59f008c 	ldr	r0, [pc, #140]	; 30006d3c <.text+0x6d3c>
30006cac:	ebffea88 	bl	300016d4 <printf>
30006cb0:	e1a07006 	mov	r7, r6
30006cb4:	e1a0500d 	mov	r5, sp
30006cb8:	e3a0400f 	mov	r4, #15	; 0xf
30006cbc:	e28d2074 	add	r2, sp, #116	; 0x74
30006cc0:	e0863002 	add	r3, r6, r2
30006cc4:	e5532064 	ldrb	r2, [r3, #-100]
30006cc8:	e59f0070 	ldr	r0, [pc, #112]	; 30006d40 <.text+0x6d40>
30006ccc:	e1a01002 	mov	r1, r2
30006cd0:	e4c52001 	strb	r2, [r5], #1
30006cd4:	ebffea7e 	bl	300016d4 <printf>
30006cd8:	e2544001 	subs	r4, r4, #1	; 0x1
30006cdc:	e2866001 	add	r6, r6, #1	; 0x1
30006ce0:	5afffff5 	bpl	30006cbc <DoReadAt24cxx+0x70>
30006ce4:	e59f0058 	ldr	r0, [pc, #88]	; 30006d44 <.text+0x6d44>
30006ce8:	ebffea79 	bl	300016d4 <printf>
30006cec:	e1a0500d 	mov	r5, sp
30006cf0:	e3a0400f 	mov	r4, #15	; 0xf
30006cf4:	e4d52001 	ldrb	r2, [r5], #1
30006cf8:	e2423020 	sub	r3, r2, #32	; 0x20
30006cfc:	e353005e 	cmp	r3, #94	; 0x5e
30006d00:	e3a0002e 	mov	r0, #46	; 0x2e
30006d04:	91a00002 	movls	r0, r2
30006d08:	ebffe659 	bl	30000674 <PutChar>
30006d0c:	e2544001 	subs	r4, r4, #1	; 0x1
30006d10:	5afffff7 	bpl	30006cf4 <DoReadAt24cxx+0xa8>
30006d14:	e2877001 	add	r7, r7, #1	; 0x1
30006d18:	e59f0028 	ldr	r0, [pc, #40]	; 30006d48 <.text+0x6d48>
30006d1c:	ebffea6c 	bl	300016d4 <printf>
30006d20:	e3570003 	cmp	r7, #3	; 0x3
30006d24:	daffffe2 	ble	30006cb4 <DoReadAt24cxx+0x68>
30006d28:	eaffffd2 	b	30006c78 <DoReadAt24cxx+0x2c>
30006d2c:	3000e114 	andcc	lr, r0, r4, lsl r1
30006d30:	3000ee4c 	andcc	lr, r0, ip, asr #28
30006d34:	3000eea0 	andcc	lr, r0, r0, lsr #29
30006d38:	3000eebc 	strcch	lr, [r0], -ip
30006d3c:	3000e130 	andcc	lr, r0, r0, lsr r1
30006d40:	3000e13c 	andcc	lr, r0, ip, lsr r1
30006d44:	3000e144 	andcc	lr, r0, r4, asr #2
30006d48:	3000efc4 	andcc	lr, r0, r4, asr #31

30006d4c <TestAt24cxx>:
30006d4c:	e92d4010 	stmdb	sp!, {r4, lr}
30006d50:	e3e004ff 	mvn	r0, #-16777216	; 0xff000000
30006d54:	e24dd00c 	sub	sp, sp, #12	; 0xc
30006d58:	e3a04000 	mov	r4, #0	; 0x0
30006d5c:	e58d4008 	str	r4, [sp, #8]
30006d60:	e58d4004 	str	r4, [sp, #4]
30006d64:	ebfff632 	bl	30004634 <ClearScreen>
30006d68:	e3a038e3 	mov	r3, #14876672	; 0xe30000
30006d6c:	e2833c17 	add	r3, r3, #5888	; 0x1700
30006d70:	e283300d 	add	r3, r3, #13	; 0xd
30006d74:	e3a00082 	mov	r0, #130	; 0x82
30006d78:	e3a01005 	mov	r1, #5	; 0x5
30006d7c:	e59f222c 	ldr	r2, [pc, #556]	; 30006fb0 <.text+0x6fb0>
30006d80:	e58d4000 	str	r4, [sp]
30006d84:	ebfff825 	bl	30004e20 <PrintFbString16x32>
30006d88:	eb000095 	bl	30006fe4 <InitSPIGPIO>
30006d8c:	e28d0008 	add	r0, sp, #8	; 0x8
30006d90:	e28d1004 	add	r1, sp, #4	; 0x4
30006d94:	eb000119 	bl	30007200 <ReadSPIFlashID>
30006d98:	e59d3008 	ldr	r3, [sp, #8]
30006d9c:	e35300ff 	cmp	r3, #255	; 0xff
30006da0:	0a00006f 	beq	30006f64 <.text+0x6f64>
30006da4:	e59d3004 	ldr	r3, [sp, #4]
30006da8:	e35300ff 	cmp	r3, #255	; 0xff
30006dac:	0a00006c 	beq	30006f64 <.text+0x6f64>
30006db0:	ebfffe3c 	bl	300066a8 <InitI2c>
30006db4:	ebffeedb 	bl	30002928 <DisplayReturnButton>
30006db8:	e3a03ab1 	mov	r3, #724992	; 0xb1000
30006dbc:	e2833d1d 	add	r3, r3, #1856	; 0x740
30006dc0:	e2833006 	add	r3, r3, #6	; 0x6
30006dc4:	e3a0005a 	mov	r0, #90	; 0x5a
30006dc8:	e3a01028 	mov	r1, #40	; 0x28
30006dcc:	e59f21e0 	ldr	r2, [pc, #480]	; 30006fb4 <.text+0x6fb4>
30006dd0:	e58d4000 	str	r4, [sp]
30006dd4:	ebfff811 	bl	30004e20 <PrintFbString16x32>
30006dd8:	e3a03841 	mov	r3, #4259840	; 0x410000
30006ddc:	e2833c69 	add	r3, r3, #26880	; 0x6900
30006de0:	e28330e1 	add	r3, r3, #225	; 0xe1
30006de4:	e3a0007a 	mov	r0, #122	; 0x7a
30006de8:	e3a01055 	mov	r1, #85	; 0x55
30006dec:	e59f21c4 	ldr	r2, [pc, #452]	; 30006fb8 <.text+0x6fb8>
30006df0:	e58d4000 	str	r4, [sp]
30006df4:	ebfff7e2 	bl	30004d84 <PrintFbString8x16>
30006df8:	e3a03841 	mov	r3, #4259840	; 0x410000
30006dfc:	e2833c69 	add	r3, r3, #26880	; 0x6900
30006e00:	e28330e1 	add	r3, r3, #225	; 0xe1
30006e04:	e3a0005a 	mov	r0, #90	; 0x5a
30006e08:	e3a0106e 	mov	r1, #110	; 0x6e
30006e0c:	e59f21a8 	ldr	r2, [pc, #424]	; 30006fbc <.text+0x6fbc>
30006e10:	e58d4000 	str	r4, [sp]
30006e14:	ebfff7da 	bl	30004d84 <PrintFbString8x16>
30006e18:	e3a03841 	mov	r3, #4259840	; 0x410000
30006e1c:	e2833c69 	add	r3, r3, #26880	; 0x6900
30006e20:	e28330e1 	add	r3, r3, #225	; 0xe1
30006e24:	e3a0005a 	mov	r0, #90	; 0x5a
30006e28:	e3a01082 	mov	r1, #130	; 0x82
30006e2c:	e59f218c 	ldr	r2, [pc, #396]	; 30006fc0 <.text+0x6fc0>
30006e30:	e58d4000 	str	r4, [sp]
30006e34:	ebfff7d2 	bl	30004d84 <PrintFbString8x16>
30006e38:	e3a03841 	mov	r3, #4259840	; 0x410000
30006e3c:	e2833c69 	add	r3, r3, #26880	; 0x6900
30006e40:	e28330e1 	add	r3, r3, #225	; 0xe1
30006e44:	e3a0005a 	mov	r0, #90	; 0x5a
30006e48:	e3a0109b 	mov	r1, #155	; 0x9b
30006e4c:	e59f2170 	ldr	r2, [pc, #368]	; 30006fc4 <.text+0x6fc4>
30006e50:	e58d4000 	str	r4, [sp]
30006e54:	ebfff7ca 	bl	30004d84 <PrintFbString8x16>
30006e58:	e3a010f0 	mov	r1, #240	; 0xf0
30006e5c:	e59f2164 	ldr	r2, [pc, #356]	; 30006fc8 <.text+0x6fc8>
30006e60:	e3a038ff 	mov	r3, #16711680	; 0xff0000
30006e64:	e3a00028 	mov	r0, #40	; 0x28
30006e68:	e58d4000 	str	r4, [sp]
30006e6c:	ebfff7c4 	bl	30004d84 <PrintFbString8x16>
30006e70:	e59f0154 	ldr	r0, [pc, #340]	; 30006fcc <.text+0x6fcc>
30006e74:	ebffea16 	bl	300016d4 <printf>
30006e78:	e59f0150 	ldr	r0, [pc, #336]	; 30006fd0 <.text+0x6fd0>
30006e7c:	ebffea14 	bl	300016d4 <printf>
30006e80:	e59f014c 	ldr	r0, [pc, #332]	; 30006fd4 <.text+0x6fd4>
30006e84:	ebffea12 	bl	300016d4 <printf>
30006e88:	e59f0148 	ldr	r0, [pc, #328]	; 30006fd8 <.text+0x6fd8>
30006e8c:	ebffea10 	bl	300016d4 <printf>
30006e90:	ebffec83 	bl	300020a4 <isClickReturn>
30006e94:	e3500000 	cmp	r0, #0	; 0x0
30006e98:	1a00003d 	bne	30006f94 <.text+0x6f94>
30006e9c:	ebffe5fb 	bl	30000690 <GetChar>
30006ea0:	e20040ff 	and	r4, r0, #255	; 0xff
30006ea4:	e1a01004 	mov	r1, r4
30006ea8:	e59f012c 	ldr	r0, [pc, #300]	; 30006fdc <.text+0x6fdc>
30006eac:	ebffea08 	bl	300016d4 <printf>
30006eb0:	e3540000 	cmp	r4, #0	; 0x0
30006eb4:	e2444051 	sub	r4, r4, #81	; 0x51
30006eb8:	0a000036 	beq	30006f98 <.text+0x6f98>
30006ebc:	e3540026 	cmp	r4, #38	; 0x26
30006ec0:	979ff104 	ldrls	pc, [pc, r4, lsl #2]
30006ec4:	eafffff1 	b	30006e90 <TestAt24cxx+0x144>
30006ec8:	30006f94 	mulcc	r0, r4, pc
30006ecc:	30006fa0 	andcc	r6, r0, r0, lsr #31
30006ed0:	30006e90 	mulcc	r0, r0, lr
30006ed4:	30006e90 	mulcc	r0, r0, lr
30006ed8:	30006e90 	mulcc	r0, r0, lr
30006edc:	30006e90 	mulcc	r0, r0, lr
30006ee0:	30006fa8 	andcc	r6, r0, r8, lsr #31
30006ee4:	30006e90 	mulcc	r0, r0, lr
30006ee8:	30006e90 	mulcc	r0, r0, lr
30006eec:	30006e90 	mulcc	r0, r0, lr
30006ef0:	30006e90 	mulcc	r0, r0, lr
30006ef4:	30006e90 	mulcc	r0, r0, lr
30006ef8:	30006e90 	mulcc	r0, r0, lr
30006efc:	30006e90 	mulcc	r0, r0, lr
30006f00:	30006e90 	mulcc	r0, r0, lr
30006f04:	30006e90 	mulcc	r0, r0, lr
30006f08:	30006e90 	mulcc	r0, r0, lr
30006f0c:	30006e90 	mulcc	r0, r0, lr
30006f10:	30006e90 	mulcc	r0, r0, lr
30006f14:	30006e90 	mulcc	r0, r0, lr
30006f18:	30006e90 	mulcc	r0, r0, lr
30006f1c:	30006e90 	mulcc	r0, r0, lr
30006f20:	30006e90 	mulcc	r0, r0, lr
30006f24:	30006e90 	mulcc	r0, r0, lr
30006f28:	30006e90 	mulcc	r0, r0, lr
30006f2c:	30006e90 	mulcc	r0, r0, lr
30006f30:	30006e90 	mulcc	r0, r0, lr
30006f34:	30006e90 	mulcc	r0, r0, lr
30006f38:	30006e90 	mulcc	r0, r0, lr
30006f3c:	30006e90 	mulcc	r0, r0, lr
30006f40:	30006e90 	mulcc	r0, r0, lr
30006f44:	30006e90 	mulcc	r0, r0, lr
30006f48:	30006f94 	mulcc	r0, r4, pc
30006f4c:	30006fa0 	andcc	r6, r0, r0, lsr #31
30006f50:	30006e90 	mulcc	r0, r0, lr
30006f54:	30006e90 	mulcc	r0, r0, lr
30006f58:	30006e90 	mulcc	r0, r0, lr
30006f5c:	30006e90 	mulcc	r0, r0, lr
30006f60:	30006fa8 	andcc	r6, r0, r8, lsr #31
30006f64:	e3a03841 	mov	r3, #4259840	; 0x410000
30006f68:	e2833c69 	add	r3, r3, #26880	; 0x6900
30006f6c:	e3a00028 	mov	r0, #40	; 0x28
30006f70:	e3a0c001 	mov	ip, #1	; 0x1
30006f74:	e28330e1 	add	r3, r3, #225	; 0xe1
30006f78:	e3a01078 	mov	r1, #120	; 0x78
30006f7c:	e59f205c 	ldr	r2, [pc, #92]	; 30006fe0 <.text+0x6fe0>
30006f80:	e58dc000 	str	ip, [sp]
30006f84:	ebfff77e 	bl	30004d84 <PrintFbString8x16>
30006f88:	e3a00d4e 	mov	r0, #4992	; 0x1380
30006f8c:	e2800008 	add	r0, r0, #8	; 0x8
30006f90:	ebffeb72 	bl	30001d60 <mDelay>
30006f94:	ebffef36 	bl	30002c74 <MainPage>
30006f98:	e28dd00c 	add	sp, sp, #12	; 0xc
30006f9c:	e8bd8010 	ldmia	sp!, {r4, pc}
30006fa0:	ebffff29 	bl	30006c4c <DoReadAt24cxx>
30006fa4:	eaffffb1 	b	30006e70 <TestAt24cxx+0x124>
30006fa8:	ebfffefd 	bl	30006ba4 <DoWriteAt24cxx>
30006fac:	eaffffaf 	b	30006e70 <TestAt24cxx+0x124>
30006fb0:	3000eed4 	ldrccd	lr, [r0], -r4
30006fb4:	3000e2e0 	andcc	lr, r0, r0, ror #5
30006fb8:	3000e6f4 	strccd	lr, [r0], -r4
30006fbc:	3000e70c 	andcc	lr, r0, ip, lsl #14
30006fc0:	3000e728 	andcc	lr, r0, r8, lsr #14
30006fc4:	3000e744 	andcc	lr, r0, r4, asr #14
30006fc8:	3000eee8 	andcc	lr, r0, r8, ror #29
30006fcc:	3000ef5c 	andcc	lr, r0, ip, asr pc
30006fd0:	3000ef74 	andcc	lr, r0, r4, ror pc
30006fd4:	3000e3cc 	andcc	lr, r0, ip, asr #7
30006fd8:	3000e3d8 	ldrccd	lr, [r0], -r8
30006fdc:	3000ee2c 	andcc	lr, r0, ip, lsr #28
30006fe0:	3000e814 	andcc	lr, r0, r4, lsl r8

30006fe4 <InitSPIGPIO>:
30006fe4:	e3a01456 	mov	r1, #1442840576	; 0x56000000
30006fe8:	e5913050 	ldr	r3, [r1, #80]
30006fec:	e3c3300c 	bic	r3, r3, #12	; 0xc
30006ff0:	e5813050 	str	r3, [r1, #80]
30006ff4:	e5912050 	ldr	r2, [r1, #80]
30006ff8:	e3822004 	orr	r2, r2, #4	; 0x4
30006ffc:	e5812050 	str	r2, [r1, #80]
30007000:	e5913054 	ldr	r3, [r1, #84]
30007004:	e3833002 	orr	r3, r3, #2	; 0x2
30007008:	e5813054 	str	r3, [r1, #84]
3000700c:	e5912060 	ldr	r2, [r1, #96]
30007010:	e3c22cff 	bic	r2, r2, #65280	; 0xff00
30007014:	e3c22030 	bic	r2, r2, #48	; 0x30
30007018:	e5812060 	str	r2, [r1, #96]
3000701c:	e5913060 	ldr	r3, [r1, #96]
30007020:	e3833c51 	orr	r3, r3, #20736	; 0x5100
30007024:	e3833010 	orr	r3, r3, #16	; 0x10
30007028:	e5813060 	str	r3, [r1, #96]
3000702c:	e5912064 	ldr	r2, [r1, #100]
30007030:	e3822004 	orr	r2, r2, #4	; 0x4
30007034:	e5812064 	str	r2, [r1, #100]
30007038:	e1a0f00e 	mov	pc, lr

3000703c <SPISetCLK>:
3000703c:	e31000ff 	tst	r0, #255	; 0xff
30007040:	e3a01456 	mov	r1, #1442840576	; 0x56000000
30007044:	15913064 	ldrne	r3, [r1, #100]
30007048:	05913064 	ldreq	r3, [r1, #100]
3000704c:	13833080 	orrne	r3, r3, #128	; 0x80
30007050:	03c33080 	biceq	r3, r3, #128	; 0x80
30007054:	15813064 	strne	r3, [r1, #100]
30007058:	05813064 	streq	r3, [r1, #100]
3000705c:	e1a0f00e 	mov	pc, lr

30007060 <SendByteSPIGPIO>:
30007060:	e92d4070 	stmdb	sp!, {r4, r5, r6, lr}
30007064:	e20040ff 	and	r4, r0, #255	; 0xff
30007068:	e3a06456 	mov	r6, #1442840576	; 0x56000000
3000706c:	e3a05007 	mov	r5, #7	; 0x7
30007070:	e3a00000 	mov	r0, #0	; 0x0
30007074:	ebfffff0 	bl	3000703c <SPISetCLK>
30007078:	e3140080 	tst	r4, #128	; 0x80
3000707c:	15963064 	ldrne	r3, [r6, #100]
30007080:	05963064 	ldreq	r3, [r6, #100]
30007084:	13833040 	orrne	r3, r3, #64	; 0x40
30007088:	03c33040 	biceq	r3, r3, #64	; 0x40
3000708c:	e5863064 	str	r3, [r6, #100]
30007090:	e3a00001 	mov	r0, #1	; 0x1
30007094:	ebffffe8 	bl	3000703c <SPISetCLK>
30007098:	e1a03084 	mov	r3, r4, lsl #1
3000709c:	e2555001 	subs	r5, r5, #1	; 0x1
300070a0:	e20340ff 	and	r4, r3, #255	; 0xff
300070a4:	5afffff1 	bpl	30007070 <SendByteSPIGPIO+0x10>
300070a8:	e8bd8070 	ldmia	sp!, {r4, r5, r6, pc}

300070ac <RecvByteSPIGPIO>:
300070ac:	e92d4030 	stmdb	sp!, {r4, r5, lr}
300070b0:	e3a05000 	mov	r5, #0	; 0x0
300070b4:	e3a04007 	mov	r4, #7	; 0x7
300070b8:	e1a03085 	mov	r3, r5, lsl #1
300070bc:	e3a00000 	mov	r0, #0	; 0x0
300070c0:	e20350ff 	and	r5, r3, #255	; 0xff
300070c4:	ebffffdc 	bl	3000703c <SPISetCLK>
300070c8:	e3a02456 	mov	r2, #1442840576	; 0x56000000
300070cc:	e5923064 	ldr	r3, [r2, #100]
300070d0:	e3a00001 	mov	r0, #1	; 0x1
300070d4:	e2133020 	ands	r3, r3, #32	; 0x20
300070d8:	11a03000 	movne	r3, r0
300070dc:	e3530000 	cmp	r3, #0	; 0x0
300070e0:	11855000 	orrne	r5, r5, r0
300070e4:	ebffffd4 	bl	3000703c <SPISetCLK>
300070e8:	e2544001 	subs	r4, r4, #1	; 0x1
300070ec:	5afffff1 	bpl	300070b8 <RecvByteSPIGPIO+0xc>
300070f0:	e1a00005 	mov	r0, r5
300070f4:	e8bd8030 	ldmia	sp!, {r4, r5, pc}

300070f8 <SendByteSPIS3c2440Controller>:
300070f8:	e20000ff 	and	r0, r0, #255	; 0xff
300070fc:	e3a02459 	mov	r2, #1493172224	; 0x59000000
30007100:	e5923024 	ldr	r3, [r2, #36]
30007104:	e3130001 	tst	r3, #1	; 0x1
30007108:	0afffffc 	beq	30007100 <SendByteSPIS3c2440Controller+0x8>
3000710c:	e5820030 	str	r0, [r2, #48]
30007110:	e1a0f00e 	mov	pc, lr

30007114 <RecvByteSPIS3c2440Controller>:
30007114:	e3a02459 	mov	r2, #1493172224	; 0x59000000
30007118:	e3a030ff 	mov	r3, #255	; 0xff
3000711c:	e5823030 	str	r3, [r2, #48]
30007120:	e5923024 	ldr	r3, [r2, #36]
30007124:	e3130001 	tst	r3, #1	; 0x1
30007128:	0afffffc 	beq	30007120 <RecvByteSPIS3c2440Controller+0xc>
3000712c:	e5920034 	ldr	r0, [r2, #52]
30007130:	e20000ff 	and	r0, r0, #255	; 0xff
30007134:	e1a0f00e 	mov	pc, lr

30007138 <InitSPIS3c2440Controller>:
30007138:	e3a01456 	mov	r1, #1442840576	; 0x56000000
3000713c:	e5913050 	ldr	r3, [r1, #80]
30007140:	e3c3300c 	bic	r3, r3, #12	; 0xc
30007144:	e5813050 	str	r3, [r1, #80]
30007148:	e5912050 	ldr	r2, [r1, #80]
3000714c:	e3822004 	orr	r2, r2, #4	; 0x4
30007150:	e5812050 	str	r2, [r1, #80]
30007154:	e5913054 	ldr	r3, [r1, #84]
30007158:	e3833002 	orr	r3, r3, #2	; 0x2
3000715c:	e5813054 	str	r3, [r1, #84]
30007160:	e5912060 	ldr	r2, [r1, #96]
30007164:	e3c22cff 	bic	r2, r2, #65280	; 0xff00
30007168:	e3c22030 	bic	r2, r2, #48	; 0x30
3000716c:	e5812060 	str	r2, [r1, #96]
30007170:	e5913060 	ldr	r3, [r1, #96]
30007174:	e3833cfd 	orr	r3, r3, #64768	; 0xfd00
30007178:	e3833010 	orr	r3, r3, #16	; 0x10
3000717c:	e5813060 	str	r3, [r1, #96]
30007180:	e5912064 	ldr	r2, [r1, #100]
30007184:	e3a03459 	mov	r3, #1493172224	; 0x59000000
30007188:	e3a00002 	mov	r0, #2	; 0x2
3000718c:	e3a0c018 	mov	ip, #24	; 0x18
30007190:	e3822004 	orr	r2, r2, #4	; 0x4
30007194:	e5812064 	str	r2, [r1, #100]
30007198:	e583000c 	str	r0, [r3, #12]
3000719c:	e583002c 	str	r0, [r3, #44]
300071a0:	e583c000 	str	ip, [r3]
300071a4:	e583c020 	str	ip, [r3, #32]
300071a8:	e1a0f00e 	mov	pc, lr

300071ac <SetSPIFlashCS>:
300071ac:	e31000ff 	tst	r0, #255	; 0xff
300071b0:	e3a01456 	mov	r1, #1442840576	; 0x56000000
300071b4:	15913064 	ldrne	r3, [r1, #100]
300071b8:	05913064 	ldreq	r3, [r1, #100]
300071bc:	13833004 	orrne	r3, r3, #4	; 0x4
300071c0:	03c33004 	biceq	r3, r3, #4	; 0x4
300071c4:	15813064 	strne	r3, [r1, #100]
300071c8:	05813064 	streq	r3, [r1, #100]
300071cc:	e1a0f00e 	mov	pc, lr

300071d0 <SendSPIFlashAddr>:
300071d0:	e92d4010 	stmdb	sp!, {r4, lr}
300071d4:	e1a04000 	mov	r4, r0
300071d8:	e1a00820 	mov	r0, r0, lsr #16
300071dc:	e20000ff 	and	r0, r0, #255	; 0xff
300071e0:	ebffff9e 	bl	30007060 <SendByteSPIGPIO>
300071e4:	e1a00424 	mov	r0, r4, lsr #8
300071e8:	e20000ff 	and	r0, r0, #255	; 0xff
300071ec:	ebffff9b 	bl	30007060 <SendByteSPIGPIO>
300071f0:	e20440ff 	and	r4, r4, #255	; 0xff
300071f4:	e1a00004 	mov	r0, r4
300071f8:	e8bd4010 	ldmia	sp!, {r4, lr}
300071fc:	eaffff97 	b	30007060 <SendByteSPIGPIO>

30007200 <ReadSPIFlashID>:
30007200:	e92d4030 	stmdb	sp!, {r4, r5, lr}
30007204:	e1a04000 	mov	r4, r0
30007208:	e3a00000 	mov	r0, #0	; 0x0
3000720c:	e1a05001 	mov	r5, r1
30007210:	ebffffe5 	bl	300071ac <SetSPIFlashCS>
30007214:	e3a00090 	mov	r0, #144	; 0x90
30007218:	ebffff90 	bl	30007060 <SendByteSPIGPIO>
3000721c:	e3a00000 	mov	r0, #0	; 0x0
30007220:	ebffffea 	bl	300071d0 <SendSPIFlashAddr>
30007224:	ebffffa0 	bl	300070ac <RecvByteSPIGPIO>
30007228:	e20000ff 	and	r0, r0, #255	; 0xff
3000722c:	e5840000 	str	r0, [r4]
30007230:	ebffff9d 	bl	300070ac <RecvByteSPIGPIO>
30007234:	e20000ff 	and	r0, r0, #255	; 0xff
30007238:	e5850000 	str	r0, [r5]
3000723c:	e3a00001 	mov	r0, #1	; 0x1
30007240:	e8bd4030 	ldmia	sp!, {r4, r5, lr}
30007244:	eaffffd8 	b	300071ac <SetSPIFlashCS>

30007248 <SPIFlashWriteEnable>:
30007248:	e3500000 	cmp	r0, #0	; 0x0
3000724c:	e52de004 	str	lr, [sp, #-4]!
30007250:	0a000006 	beq	30007270 <SPIFlashWriteEnable+0x28>
30007254:	e3a00000 	mov	r0, #0	; 0x0
30007258:	ebffffd3 	bl	300071ac <SetSPIFlashCS>
3000725c:	e3a00006 	mov	r0, #6	; 0x6
30007260:	ebffff7e 	bl	30007060 <SendByteSPIGPIO>
30007264:	e3a00001 	mov	r0, #1	; 0x1
30007268:	e49de004 	ldr	lr, [sp], #4
3000726c:	eaffffce 	b	300071ac <SetSPIFlashCS>
30007270:	ebffffcd 	bl	300071ac <SetSPIFlashCS>
30007274:	e3a00004 	mov	r0, #4	; 0x4
30007278:	eafffff8 	b	30007260 <SPIFlashWriteEnable+0x18>

3000727c <SPIFlashReadStatusReg1>:
3000727c:	e92d4010 	stmdb	sp!, {r4, lr}
30007280:	e3a00000 	mov	r0, #0	; 0x0
30007284:	ebffffc8 	bl	300071ac <SetSPIFlashCS>
30007288:	e3a00005 	mov	r0, #5	; 0x5
3000728c:	ebffff73 	bl	30007060 <SendByteSPIGPIO>
30007290:	ebffff85 	bl	300070ac <RecvByteSPIGPIO>
30007294:	e1a04000 	mov	r4, r0
30007298:	e3a00001 	mov	r0, #1	; 0x1
3000729c:	ebffffc2 	bl	300071ac <SetSPIFlashCS>
300072a0:	e20440ff 	and	r4, r4, #255	; 0xff
300072a4:	e1a00004 	mov	r0, r4
300072a8:	e8bd8010 	ldmia	sp!, {r4, pc}

300072ac <SPIFlashReadStatusReg2>:
300072ac:	e92d4010 	stmdb	sp!, {r4, lr}
300072b0:	e3a00000 	mov	r0, #0	; 0x0
300072b4:	ebffffbc 	bl	300071ac <SetSPIFlashCS>
300072b8:	e3a00035 	mov	r0, #53	; 0x35
300072bc:	ebffff67 	bl	30007060 <SendByteSPIGPIO>
300072c0:	ebffff79 	bl	300070ac <RecvByteSPIGPIO>
300072c4:	e1a04000 	mov	r4, r0
300072c8:	e3a00001 	mov	r0, #1	; 0x1
300072cc:	ebffffb6 	bl	300071ac <SetSPIFlashCS>
300072d0:	e20440ff 	and	r4, r4, #255	; 0xff
300072d4:	e1a00004 	mov	r0, r4
300072d8:	e8bd8010 	ldmia	sp!, {r4, pc}

300072dc <SPIFlashWaitWhenBusy>:
300072dc:	e52de004 	str	lr, [sp, #-4]!
300072e0:	ebffffe5 	bl	3000727c <SPIFlashReadStatusReg1>
300072e4:	e3100001 	tst	r0, #1	; 0x1
300072e8:	1afffffc 	bne	300072e0 <SPIFlashWaitWhenBusy+0x4>
300072ec:	e49df004 	ldr	pc, [sp], #4

300072f0 <SPIFlashWriteStatusReg>:
300072f0:	e92d4030 	stmdb	sp!, {r4, r5, lr}
300072f4:	e1a04000 	mov	r4, r0
300072f8:	e3a00001 	mov	r0, #1	; 0x1
300072fc:	e20150ff 	and	r5, r1, #255	; 0xff
30007300:	ebffffd0 	bl	30007248 <SPIFlashWriteEnable>
30007304:	e3a00000 	mov	r0, #0	; 0x0
30007308:	ebffffa7 	bl	300071ac <SetSPIFlashCS>
3000730c:	e20440ff 	and	r4, r4, #255	; 0xff
30007310:	e3a00001 	mov	r0, #1	; 0x1
30007314:	ebffff51 	bl	30007060 <SendByteSPIGPIO>
30007318:	e1a00004 	mov	r0, r4
3000731c:	ebffff4f 	bl	30007060 <SendByteSPIGPIO>
30007320:	e1a00005 	mov	r0, r5
30007324:	ebffff4d 	bl	30007060 <SendByteSPIGPIO>
30007328:	e3a00001 	mov	r0, #1	; 0x1
3000732c:	ebffff9e 	bl	300071ac <SetSPIFlashCS>
30007330:	e8bd4030 	ldmia	sp!, {r4, r5, lr}
30007334:	eaffffe8 	b	300072dc <SPIFlashWaitWhenBusy>

30007338 <EraseSPIFlashSector>:
30007338:	e92d4010 	stmdb	sp!, {r4, lr}
3000733c:	e1a04000 	mov	r4, r0
30007340:	e3a00001 	mov	r0, #1	; 0x1
30007344:	ebffffbf 	bl	30007248 <SPIFlashWriteEnable>
30007348:	e3a00000 	mov	r0, #0	; 0x0
3000734c:	ebffff96 	bl	300071ac <SetSPIFlashCS>
30007350:	e3a00020 	mov	r0, #32	; 0x20
30007354:	ebffff41 	bl	30007060 <SendByteSPIGPIO>
30007358:	e1a00004 	mov	r0, r4
3000735c:	ebffff9b 	bl	300071d0 <SendSPIFlashAddr>
30007360:	e3a00001 	mov	r0, #1	; 0x1
30007364:	ebffff90 	bl	300071ac <SetSPIFlashCS>
30007368:	e8bd4010 	ldmia	sp!, {r4, lr}
3000736c:	eaffffda 	b	300072dc <SPIFlashWaitWhenBusy>

30007370 <ProgramSPIFlash>:
30007370:	e92d4070 	stmdb	sp!, {r4, r5, r6, lr}
30007374:	e1a04000 	mov	r4, r0
30007378:	e3a00001 	mov	r0, #1	; 0x1
3000737c:	e1a05002 	mov	r5, r2
30007380:	e1a06001 	mov	r6, r1
30007384:	ebffffaf 	bl	30007248 <SPIFlashWriteEnable>
30007388:	e3a00000 	mov	r0, #0	; 0x0
3000738c:	ebffff86 	bl	300071ac <SetSPIFlashCS>
30007390:	e3a00002 	mov	r0, #2	; 0x2
30007394:	ebffff31 	bl	30007060 <SendByteSPIGPIO>
30007398:	e1a00004 	mov	r0, r4
3000739c:	e3a04000 	mov	r4, #0	; 0x0
300073a0:	ebffff8a 	bl	300071d0 <SendSPIFlashAddr>
300073a4:	e1540005 	cmp	r4, r5
300073a8:	aa000004 	bge	300073c0 <ProgramSPIFlash+0x50>
300073ac:	e7d60004 	ldrb	r0, [r6, r4]
300073b0:	ebffff2a 	bl	30007060 <SendByteSPIGPIO>
300073b4:	e2844001 	add	r4, r4, #1	; 0x1
300073b8:	e1540005 	cmp	r4, r5
300073bc:	bafffffa 	blt	300073ac <ProgramSPIFlash+0x3c>
300073c0:	e3a00001 	mov	r0, #1	; 0x1
300073c4:	ebffff78 	bl	300071ac <SetSPIFlashCS>
300073c8:	e8bd4070 	ldmia	sp!, {r4, r5, r6, lr}
300073cc:	eaffffc2 	b	300072dc <SPIFlashWaitWhenBusy>

300073d0 <ReadSPIFlash>:
300073d0:	e92d4070 	stmdb	sp!, {r4, r5, r6, lr}
300073d4:	e1a04000 	mov	r4, r0
300073d8:	e3a00000 	mov	r0, #0	; 0x0
300073dc:	e1a05002 	mov	r5, r2
300073e0:	e1a06001 	mov	r6, r1
300073e4:	ebffff70 	bl	300071ac <SetSPIFlashCS>
300073e8:	e3a00003 	mov	r0, #3	; 0x3
300073ec:	ebffff1b 	bl	30007060 <SendByteSPIGPIO>
300073f0:	e1a00004 	mov	r0, r4
300073f4:	e3a04000 	mov	r4, #0	; 0x0
300073f8:	ebffff74 	bl	300071d0 <SendSPIFlashAddr>
300073fc:	e1540005 	cmp	r4, r5
30007400:	aa000004 	bge	30007418 <ReadSPIFlash+0x48>
30007404:	ebffff28 	bl	300070ac <RecvByteSPIGPIO>
30007408:	e7c60004 	strb	r0, [r6, r4]
3000740c:	e2844001 	add	r4, r4, #1	; 0x1
30007410:	e1540005 	cmp	r4, r5
30007414:	bafffffa 	blt	30007404 <ReadSPIFlash+0x34>
30007418:	e3a00001 	mov	r0, #1	; 0x1
3000741c:	e8bd4070 	ldmia	sp!, {r4, r5, r6, lr}
30007420:	eaffff61 	b	300071ac <SetSPIFlashCS>

30007424 <InitSPIFlash>:
30007424:	e92d4010 	stmdb	sp!, {r4, lr}
30007428:	ebffff93 	bl	3000727c <SPIFlashReadStatusReg1>
3000742c:	e1a04000 	mov	r4, r0
30007430:	ebffff9d 	bl	300072ac <SPIFlashReadStatusReg2>
30007434:	e20010fe 	and	r1, r0, #254	; 0xfe
30007438:	e204007f 	and	r0, r4, #127	; 0x7f
3000743c:	ebffffab 	bl	300072f0 <SPIFlashWriteStatusReg>
30007440:	ebffff8d 	bl	3000727c <SPIFlashReadStatusReg1>
30007444:	e1a04000 	mov	r4, r0
30007448:	ebffff97 	bl	300072ac <SPIFlashReadStatusReg2>
3000744c:	e20010bf 	and	r1, r0, #191	; 0xbf
30007450:	e20400e3 	and	r0, r4, #227	; 0xe3
30007454:	e8bd4010 	ldmia	sp!, {r4, lr}
30007458:	eaffffa4 	b	300072f0 <SPIFlashWriteStatusReg>

3000745c <DoWriteSPIFLASH>:
3000745c:	e92d4030 	stmdb	sp!, {r4, r5, lr}
30007460:	e59f0048 	ldr	r0, [pc, #72]	; 300074b0 <.text+0x74b0>
30007464:	e24dd064 	sub	sp, sp, #100	; 0x64
30007468:	ebffe899 	bl	300016d4 <printf>
3000746c:	ebffe968 	bl	30001a14 <get_uint>
30007470:	e1a04000 	mov	r4, r0
30007474:	e59f0038 	ldr	r0, [pc, #56]	; 300074b4 <.text+0x74b4>
30007478:	ebffe895 	bl	300016d4 <printf>
3000747c:	e1a0000d 	mov	r0, sp
30007480:	ebffe93d 	bl	3000197c <gets>
30007484:	e59f002c 	ldr	r0, [pc, #44]	; 300074b8 <.text+0x74b8>
30007488:	ebffe891 	bl	300016d4 <printf>
3000748c:	e1a0000d 	mov	r0, sp
30007490:	ebffe96a 	bl	30001a40 <strlen>
30007494:	e1a0100d 	mov	r1, sp
30007498:	e2802001 	add	r2, r0, #1	; 0x1
3000749c:	e1a00004 	mov	r0, r4
300074a0:	e1a0500d 	mov	r5, sp
300074a4:	ebffffb1 	bl	30007370 <ProgramSPIFlash>
300074a8:	e28dd064 	add	sp, sp, #100	; 0x64
300074ac:	e8bd8030 	ldmia	sp!, {r4, r5, pc}
300074b0:	3000e184 	andcc	lr, r0, r4, lsl #3
300074b4:	3000e1ac 	andcc	lr, r0, ip, lsr #3
300074b8:	3000e1c8 	andcc	lr, r0, r8, asr #3

300074bc <DoReadSPIFLASH>:
300074bc:	e92d40f0 	stmdb	sp!, {r4, r5, r6, r7, lr}
300074c0:	e59f0098 	ldr	r0, [pc, #152]	; 30007560 <.text+0x7560>
300074c4:	e24dd050 	sub	sp, sp, #80	; 0x50
300074c8:	ebffe881 	bl	300016d4 <printf>
300074cc:	ebffe950 	bl	30001a14 <get_uint>
300074d0:	e1a0100d 	mov	r1, sp
300074d4:	e3a02040 	mov	r2, #64	; 0x40
300074d8:	ebffffbc 	bl	300073d0 <ReadSPIFlash>
300074dc:	e59f0080 	ldr	r0, [pc, #128]	; 30007564 <.text+0x7564>
300074e0:	ebffe87b 	bl	300016d4 <printf>
300074e4:	e1a0600d 	mov	r6, sp
300074e8:	e3a07000 	mov	r7, #0	; 0x0
300074ec:	e28d5040 	add	r5, sp, #64	; 0x40
300074f0:	e3a0400f 	mov	r4, #15	; 0xf
300074f4:	e4d63001 	ldrb	r3, [r6], #1
300074f8:	e20330ff 	and	r3, r3, #255	; 0xff
300074fc:	e1a01003 	mov	r1, r3
30007500:	e59f0060 	ldr	r0, [pc, #96]	; 30007568 <.text+0x7568>
30007504:	e4c53001 	strb	r3, [r5], #1
30007508:	ebffe871 	bl	300016d4 <printf>
3000750c:	e2544001 	subs	r4, r4, #1	; 0x1
30007510:	5afffff7 	bpl	300074f4 <DoReadSPIFLASH+0x38>
30007514:	e59f0050 	ldr	r0, [pc, #80]	; 3000756c <.text+0x756c>
30007518:	ebffe86d 	bl	300016d4 <printf>
3000751c:	e28d5040 	add	r5, sp, #64	; 0x40
30007520:	e3a0400f 	mov	r4, #15	; 0xf
30007524:	e4d52001 	ldrb	r2, [r5], #1
30007528:	e2423020 	sub	r3, r2, #32	; 0x20
3000752c:	e353005e 	cmp	r3, #94	; 0x5e
30007530:	e3a0002e 	mov	r0, #46	; 0x2e
30007534:	91a00002 	movls	r0, r2
30007538:	ebffe44d 	bl	30000674 <PutChar>
3000753c:	e2544001 	subs	r4, r4, #1	; 0x1
30007540:	5afffff7 	bpl	30007524 <DoReadSPIFLASH+0x68>
30007544:	e2877001 	add	r7, r7, #1	; 0x1
30007548:	e59f0020 	ldr	r0, [pc, #32]	; 30007570 <.text+0x7570>
3000754c:	ebffe860 	bl	300016d4 <printf>
30007550:	e3570003 	cmp	r7, #3	; 0x3
30007554:	daffffe4 	ble	300074ec <DoReadSPIFLASH+0x30>
30007558:	e28dd050 	add	sp, sp, #80	; 0x50
3000755c:	e8bd80f0 	ldmia	sp!, {r4, r5, r6, r7, pc}
30007560:	3000e114 	andcc	lr, r0, r4, lsl r1
30007564:	3000e130 	andcc	lr, r0, r0, lsr r1
30007568:	3000e13c 	andcc	lr, r0, ip, lsr r1
3000756c:	3000e144 	andcc	lr, r0, r4, asr #2
30007570:	3000efc4 	andcc	lr, r0, r4, asr #31

30007574 <DoEraseSPIFLASH>:
30007574:	e92d4010 	stmdb	sp!, {r4, lr}
30007578:	e59f001c 	ldr	r0, [pc, #28]	; 3000759c <.text+0x759c>
3000757c:	ebffe854 	bl	300016d4 <printf>
30007580:	ebffe923 	bl	30001a14 <get_uint>
30007584:	e1a04000 	mov	r4, r0
30007588:	e59f0010 	ldr	r0, [pc, #16]	; 300075a0 <.text+0x75a0>
3000758c:	ebffe850 	bl	300016d4 <printf>
30007590:	e1a00004 	mov	r0, r4
30007594:	e8bd4010 	ldmia	sp!, {r4, lr}
30007598:	eaffff66 	b	30007338 <EraseSPIFlashSector>
3000759c:	3000e14c 	andcc	lr, r0, ip, asr #2
300075a0:	3000e174 	andcc	lr, r0, r4, ror r1

300075a4 <SetOLEDDC>:
300075a4:	e31000ff 	tst	r0, #255	; 0xff
300075a8:	e3a01456 	mov	r1, #1442840576	; 0x56000000
300075ac:	15913064 	ldrne	r3, [r1, #100]
300075b0:	05913064 	ldreq	r3, [r1, #100]
300075b4:	13833010 	orrne	r3, r3, #16	; 0x10
300075b8:	03c33010 	biceq	r3, r3, #16	; 0x10
300075bc:	15813064 	strne	r3, [r1, #100]
300075c0:	05813064 	streq	r3, [r1, #100]
300075c4:	e1a0f00e 	mov	pc, lr

300075c8 <SetOLEDCS>:
300075c8:	e31000ff 	tst	r0, #255	; 0xff
300075cc:	e3a01456 	mov	r1, #1442840576	; 0x56000000
300075d0:	15913054 	ldrne	r3, [r1, #84]
300075d4:	05913054 	ldreq	r3, [r1, #84]
300075d8:	13833002 	orrne	r3, r3, #2	; 0x2
300075dc:	03c33002 	biceq	r3, r3, #2	; 0x2
300075e0:	15813054 	strne	r3, [r1, #84]
300075e4:	05813054 	streq	r3, [r1, #84]
300075e8:	e1a0f00e 	mov	pc, lr

300075ec <WriteOLEDCmd>:
300075ec:	e92d4010 	stmdb	sp!, {r4, lr}
300075f0:	e1a04000 	mov	r4, r0
300075f4:	e3a00000 	mov	r0, #0	; 0x0
300075f8:	ebffffe9 	bl	300075a4 <SetOLEDDC>
300075fc:	e20440ff 	and	r4, r4, #255	; 0xff
30007600:	e3a00000 	mov	r0, #0	; 0x0
30007604:	ebffffef 	bl	300075c8 <SetOLEDCS>
30007608:	e1a00004 	mov	r0, r4
3000760c:	ebfffe93 	bl	30007060 <SendByteSPIGPIO>
30007610:	e3a00001 	mov	r0, #1	; 0x1
30007614:	ebffffeb 	bl	300075c8 <SetOLEDCS>
30007618:	e3a00001 	mov	r0, #1	; 0x1
3000761c:	e8bd4010 	ldmia	sp!, {r4, lr}
30007620:	eaffffdf 	b	300075a4 <SetOLEDDC>

30007624 <WriteOLEDDat>:
30007624:	e92d4010 	stmdb	sp!, {r4, lr}
30007628:	e1a04000 	mov	r4, r0
3000762c:	e3a00001 	mov	r0, #1	; 0x1
30007630:	ebffffdb 	bl	300075a4 <SetOLEDDC>
30007634:	e20440ff 	and	r4, r4, #255	; 0xff
30007638:	e3a00000 	mov	r0, #0	; 0x0
3000763c:	ebffffe1 	bl	300075c8 <SetOLEDCS>
30007640:	e1a00004 	mov	r0, r4
30007644:	ebfffe85 	bl	30007060 <SendByteSPIGPIO>
30007648:	e3a00001 	mov	r0, #1	; 0x1
3000764c:	ebffffdd 	bl	300075c8 <SetOLEDCS>
30007650:	e3a00001 	mov	r0, #1	; 0x1
30007654:	e8bd4010 	ldmia	sp!, {r4, lr}
30007658:	eaffffd1 	b	300075a4 <SetOLEDDC>

3000765c <SetOLEDPos>:
3000765c:	e2400050 	sub	r0, r0, #80	; 0x50
30007660:	e92d4010 	stmdb	sp!, {r4, lr}
30007664:	e20000ff 	and	r0, r0, #255	; 0xff
30007668:	e1a04001 	mov	r4, r1
3000766c:	ebffffde 	bl	300075ec <WriteOLEDCmd>
30007670:	e204000f 	and	r0, r4, #15	; 0xf
30007674:	ebffffdc 	bl	300075ec <WriteOLEDCmd>
30007678:	e1a04244 	mov	r4, r4, asr #4
3000767c:	e2844010 	add	r4, r4, #16	; 0x10
30007680:	e20400ff 	and	r0, r4, #255	; 0xff
30007684:	e8bd4010 	ldmia	sp!, {r4, lr}
30007688:	eaffffd7 	b	300075ec <WriteOLEDCmd>

3000768c <InitOLED>:
3000768c:	e92d4030 	stmdb	sp!, {r4, r5, lr}
30007690:	e3a000ae 	mov	r0, #174	; 0xae
30007694:	ebffffd4 	bl	300075ec <WriteOLEDCmd>
30007698:	e3a00000 	mov	r0, #0	; 0x0
3000769c:	ebffffd2 	bl	300075ec <WriteOLEDCmd>
300076a0:	e3a00010 	mov	r0, #16	; 0x10
300076a4:	ebffffd0 	bl	300075ec <WriteOLEDCmd>
300076a8:	e3a00040 	mov	r0, #64	; 0x40
300076ac:	ebffffce 	bl	300075ec <WriteOLEDCmd>
300076b0:	e3a000b0 	mov	r0, #176	; 0xb0
300076b4:	ebffffcc 	bl	300075ec <WriteOLEDCmd>
300076b8:	e3a00081 	mov	r0, #129	; 0x81
300076bc:	ebffffca 	bl	300075ec <WriteOLEDCmd>
300076c0:	e3a00066 	mov	r0, #102	; 0x66
300076c4:	ebffffc8 	bl	300075ec <WriteOLEDCmd>
300076c8:	e3a000a1 	mov	r0, #161	; 0xa1
300076cc:	ebffffc6 	bl	300075ec <WriteOLEDCmd>
300076d0:	e3a000a6 	mov	r0, #166	; 0xa6
300076d4:	ebffffc4 	bl	300075ec <WriteOLEDCmd>
300076d8:	e3a000a8 	mov	r0, #168	; 0xa8
300076dc:	ebffffc2 	bl	300075ec <WriteOLEDCmd>
300076e0:	e3a0003f 	mov	r0, #63	; 0x3f
300076e4:	ebffffc0 	bl	300075ec <WriteOLEDCmd>
300076e8:	e3a000c8 	mov	r0, #200	; 0xc8
300076ec:	ebffffbe 	bl	300075ec <WriteOLEDCmd>
300076f0:	e3a000d3 	mov	r0, #211	; 0xd3
300076f4:	ebffffbc 	bl	300075ec <WriteOLEDCmd>
300076f8:	e3a00000 	mov	r0, #0	; 0x0
300076fc:	ebffffba 	bl	300075ec <WriteOLEDCmd>
30007700:	e3a000d5 	mov	r0, #213	; 0xd5
30007704:	ebffffb8 	bl	300075ec <WriteOLEDCmd>
30007708:	e3a00080 	mov	r0, #128	; 0x80
3000770c:	ebffffb6 	bl	300075ec <WriteOLEDCmd>
30007710:	e3a000d9 	mov	r0, #217	; 0xd9
30007714:	ebffffb4 	bl	300075ec <WriteOLEDCmd>
30007718:	e3a0001f 	mov	r0, #31	; 0x1f
3000771c:	ebffffb2 	bl	300075ec <WriteOLEDCmd>
30007720:	e3a000da 	mov	r0, #218	; 0xda
30007724:	ebffffb0 	bl	300075ec <WriteOLEDCmd>
30007728:	e3a00012 	mov	r0, #18	; 0x12
3000772c:	ebffffae 	bl	300075ec <WriteOLEDCmd>
30007730:	e3a000db 	mov	r0, #219	; 0xdb
30007734:	ebffffac 	bl	300075ec <WriteOLEDCmd>
30007738:	e3a00030 	mov	r0, #48	; 0x30
3000773c:	ebffffaa 	bl	300075ec <WriteOLEDCmd>
30007740:	e3a0008d 	mov	r0, #141	; 0x8d
30007744:	ebffffa8 	bl	300075ec <WriteOLEDCmd>
30007748:	e3a00014 	mov	r0, #20	; 0x14
3000774c:	ebffffa6 	bl	300075ec <WriteOLEDCmd>
30007750:	e3a00020 	mov	r0, #32	; 0x20
30007754:	ebffffa4 	bl	300075ec <WriteOLEDCmd>
30007758:	e3a00002 	mov	r0, #2	; 0x2
3000775c:	ebffffa2 	bl	300075ec <WriteOLEDCmd>
30007760:	e3a05000 	mov	r5, #0	; 0x0
30007764:	e1a00005 	mov	r0, r5
30007768:	e3a01000 	mov	r1, #0	; 0x0
3000776c:	ebffffba 	bl	3000765c <SetOLEDPos>
30007770:	e3a0407f 	mov	r4, #127	; 0x7f
30007774:	e3a00000 	mov	r0, #0	; 0x0
30007778:	ebffffa9 	bl	30007624 <WriteOLEDDat>
3000777c:	e2544001 	subs	r4, r4, #1	; 0x1
30007780:	5afffffb 	bpl	30007774 <InitOLED+0xe8>
30007784:	e2855001 	add	r5, r5, #1	; 0x1
30007788:	e3550007 	cmp	r5, #7	; 0x7
3000778c:	dafffff4 	ble	30007764 <InitOLED+0xd8>
30007790:	e3a000af 	mov	r0, #175	; 0xaf
30007794:	e8bd4030 	ldmia	sp!, {r4, r5, lr}
30007798:	eaffff93 	b	300075ec <WriteOLEDCmd>

3000779c <PutOLEDChar>:
3000779c:	e1a02202 	mov	r2, r2, lsl #4
300077a0:	e59f3058 	ldr	r3, [pc, #88]	; 30007800 <.text+0x7800>
300077a4:	e92d40f0 	stmdb	sp!, {r4, r5, r6, r7, lr}
300077a8:	e2022eff 	and	r2, r2, #4080	; 0xff0
300077ac:	e0825003 	add	r5, r2, r3
300077b0:	e1a06000 	mov	r6, r0
300077b4:	e1a07001 	mov	r7, r1
300077b8:	e3a04000 	mov	r4, #0	; 0x0
300077bc:	ebffffa6 	bl	3000765c <SetOLEDPos>
300077c0:	e7d50004 	ldrb	r0, [r5, r4]
300077c4:	e2844001 	add	r4, r4, #1	; 0x1
300077c8:	ebffff95 	bl	30007624 <WriteOLEDDat>
300077cc:	e3540007 	cmp	r4, #7	; 0x7
300077d0:	dafffffa 	ble	300077c0 <PutOLEDChar+0x24>
300077d4:	e2860001 	add	r0, r6, #1	; 0x1
300077d8:	e1a01007 	mov	r1, r7
300077dc:	ebffff9e 	bl	3000765c <SetOLEDPos>
300077e0:	e3a04000 	mov	r4, #0	; 0x0
300077e4:	e0853004 	add	r3, r5, r4
300077e8:	e5d30008 	ldrb	r0, [r3, #8]
300077ec:	e2844001 	add	r4, r4, #1	; 0x1
300077f0:	ebffff8b 	bl	30007624 <WriteOLEDDat>
300077f4:	e3540007 	cmp	r4, #7	; 0x7
300077f8:	dafffff9 	ble	300077e4 <PutOLEDChar+0x48>
300077fc:	e8bd80f0 	ldmia	sp!, {r4, r5, r6, r7, pc}
30007800:	3000d7c0 	andcc	sp, r0, r0, asr #15

30007804 <PrintOLED>:
30007804:	e92d40f0 	stmdb	sp!, {r4, r5, r6, r7, lr}
30007808:	e1a07002 	mov	r7, r2
3000780c:	e5d22000 	ldrb	r2, [r2]
30007810:	e3520000 	cmp	r2, #0	; 0x0
30007814:	e1a05000 	mov	r5, r0
30007818:	e1a04001 	mov	r4, r1
3000781c:	e3a06000 	mov	r6, #0	; 0x0
30007820:	08bd80f0 	ldmeqia	sp!, {r4, r5, r6, r7, pc}
30007824:	e1a00005 	mov	r0, r5
30007828:	e1a01004 	mov	r1, r4
3000782c:	e2866001 	add	r6, r6, #1	; 0x1
30007830:	e2844008 	add	r4, r4, #8	; 0x8
30007834:	ebffffd8 	bl	3000779c <PutOLEDChar>
30007838:	e7d72006 	ldrb	r2, [r7, r6]
3000783c:	e354007f 	cmp	r4, #127	; 0x7f
30007840:	c2855002 	addgt	r5, r5, #2	; 0x2
30007844:	c3a04000 	movgt	r4, #0	; 0x0
30007848:	e3520000 	cmp	r2, #0	; 0x0
3000784c:	1afffff4 	bne	30007824 <PrintOLED+0x20>
30007850:	e8bd80f0 	ldmia	sp!, {r4, r5, r6, r7, pc}

30007854 <InitADC>:
30007854:	e3a03b13 	mov	r3, #19456	; 0x4c00
30007858:	e2833040 	add	r3, r3, #64	; 0x40
3000785c:	e3a01316 	mov	r1, #1476395008	; 0x58000000
30007860:	e1833180 	orr	r3, r3, r0, lsl #3
30007864:	e3a020ff 	mov	r2, #255	; 0xff
30007868:	e5813000 	str	r3, [r1]
3000786c:	e5812008 	str	r2, [r1, #8]
30007870:	e1a0f00e 	mov	pc, lr

30007874 <ReadADC>:
30007874:	e52de004 	str	lr, [sp, #-4]!
30007878:	ebfffff5 	bl	30007854 <InitADC>
3000787c:	e3a02316 	mov	r2, #1476395008	; 0x58000000
30007880:	e5923000 	ldr	r3, [r2]
30007884:	e3833001 	orr	r3, r3, #1	; 0x1
30007888:	e5823000 	str	r3, [r2]
3000788c:	e5923000 	ldr	r3, [r2]
30007890:	e3130902 	tst	r3, #32768	; 0x8000
30007894:	0afffffc 	beq	3000788c <ReadADC+0x18>
30007898:	e592000c 	ldr	r0, [r2, #12]
3000789c:	e1a00b00 	mov	r0, r0, lsl #22
300078a0:	e1a00b20 	mov	r0, r0, lsr #22
300078a4:	e49df004 	ldr	pc, [sp], #4

300078a8 <IsIrEventBufEmpty>:
300078a8:	e59f3018 	ldr	r3, [pc, #24]	; 300078c8 <.text+0x78c8>
300078ac:	e59f2018 	ldr	r2, [pc, #24]	; 300078cc <.text+0x78cc>
300078b0:	e5931000 	ldr	r1, [r3]
300078b4:	e5920000 	ldr	r0, [r2]
300078b8:	e1510000 	cmp	r1, r0
300078bc:	13a00000 	movne	r0, #0	; 0x0
300078c0:	03a00001 	moveq	r0, #1	; 0x1
300078c4:	e1a0f00e 	mov	pc, lr
300078c8:	3000f648 	andcc	pc, r0, r8, asr #12
300078cc:	3000f64c 	andcc	pc, r0, ip, asr #12

300078d0 <PutIrEvent>:
300078d0:	e92d4070 	stmdb	sp!, {r4, r5, r6, lr}
300078d4:	e59f4048 	ldr	r4, [pc, #72]	; 30007924 <.text+0x7924>
300078d8:	e5941000 	ldr	r1, [r4]
300078dc:	e59f2044 	ldr	r2, [pc, #68]	; 30007928 <.text+0x7928>
300078e0:	e2813001 	add	r3, r1, #1	; 0x1
300078e4:	e1a0eb03 	mov	lr, r3, lsl #22
300078e8:	e592c000 	ldr	ip, [r2]
300078ec:	e59f3038 	ldr	r3, [pc, #56]	; 3000792c <.text+0x792c>
300078f0:	e1a0eb2e 	mov	lr, lr, lsr #22
300078f4:	e0831181 	add	r1, r3, r1, lsl #3
300078f8:	e15e000c 	cmp	lr, ip
300078fc:	13a03000 	movne	r3, #0	; 0x0
30007900:	03a03001 	moveq	r3, #1	; 0x1
30007904:	e3530000 	cmp	r3, #0	; 0x0
30007908:	e3e02000 	mvn	r2, #0	; 0x0
3000790c:	08900060 	ldmeqia	r0, {r5, r6}
30007910:	08810060 	stmeqia	r1, {r5, r6}
30007914:	0584e000 	streq	lr, [r4]
30007918:	01a02003 	moveq	r2, r3
3000791c:	e1a00002 	mov	r0, r2
30007920:	e8bd8070 	ldmia	sp!, {r4, r5, r6, pc}
30007924:	3000f64c 	andcc	pc, r0, ip, asr #12
30007928:	3000f648 	andcc	pc, r0, r8, asr #12
3000792c:	3000f650 	andcc	pc, r0, r0, asr r6

30007930 <GetIrEvent>:
30007930:	e92d4010 	stmdb	sp!, {r4, lr}
30007934:	e1a04000 	mov	r4, r0
30007938:	ebffffda 	bl	300078a8 <IsIrEventBufEmpty>
3000793c:	e250c000 	subs	ip, r0, #0	; 0x0
30007940:	e59fe030 	ldr	lr, [pc, #48]	; 30007978 <.text+0x7978>
30007944:	e3e00000 	mvn	r0, #0	; 0x0
30007948:	18bd8010 	ldmneia	sp!, {r4, pc}
3000794c:	e59e1000 	ldr	r1, [lr]
30007950:	e59f3024 	ldr	r3, [pc, #36]	; 3000797c <.text+0x797c>
30007954:	e0833181 	add	r3, r3, r1, lsl #3
30007958:	e2812001 	add	r2, r1, #1	; 0x1
3000795c:	e8930003 	ldmia	r3, {r0, r1}
30007960:	e1a02b02 	mov	r2, r2, lsl #22
30007964:	e8840003 	stmia	r4, {r0, r1}
30007968:	e1a02b22 	mov	r2, r2, lsr #22
3000796c:	e1a0000c 	mov	r0, ip
30007970:	e58e2000 	str	r2, [lr]
30007974:	e8bd8010 	ldmia	sp!, {r4, pc}
30007978:	3000f648 	andcc	pc, r0, r8, asr #12
3000797c:	3000f650 	andcc	pc, r0, r0, asr r6

30007980 <GetIrEventTimeout>:
30007980:	e92d41f0 	stmdb	sp!, {r4, r5, r6, r7, r8, lr}
30007984:	e2414001 	sub	r4, r1, #1	; 0x1
30007988:	e3740001 	cmn	r4, #1	; 0x1
3000798c:	e1a05000 	mov	r5, r0
30007990:	0a000008 	beq	300079b8 <GetIrEventTimeout+0x38>
30007994:	e59f6050 	ldr	r6, [pc, #80]	; 300079ec <.text+0x79ec>
30007998:	ebffffc2 	bl	300078a8 <IsIrEventBufEmpty>
3000799c:	e250c000 	subs	ip, r0, #0	; 0x0
300079a0:	e2444001 	sub	r4, r4, #1	; 0x1
300079a4:	e3a00001 	mov	r0, #1	; 0x1
300079a8:	0a000004 	beq	300079c0 <GetIrEventTimeout+0x40>
300079ac:	ebffe8da 	bl	30001d1c <uDelay>
300079b0:	e3740001 	cmn	r4, #1	; 0x1
300079b4:	1afffff7 	bne	30007998 <GetIrEventTimeout+0x18>
300079b8:	e3e00000 	mvn	r0, #0	; 0x0
300079bc:	e8bd81f0 	ldmia	sp!, {r4, r5, r6, r7, r8, pc}
300079c0:	e5961000 	ldr	r1, [r6]
300079c4:	e59f3024 	ldr	r3, [pc, #36]	; 300079f0 <.text+0x79f0>
300079c8:	e0812000 	add	r2, r1, r0
300079cc:	e0833181 	add	r3, r3, r1, lsl #3
300079d0:	e1a02b02 	mov	r2, r2, lsl #22
300079d4:	e8930180 	ldmia	r3, {r7, r8}
300079d8:	e1a02b22 	mov	r2, r2, lsr #22
300079dc:	e1a0000c 	mov	r0, ip
300079e0:	e8850180 	stmia	r5, {r7, r8}
300079e4:	e5862000 	str	r2, [r6]
300079e8:	e8bd81f0 	ldmia	sp!, {r4, r5, r6, r7, r8, pc}
300079ec:	3000f648 	andcc	pc, r0, r8, asr #12
300079f0:	3000f650 	andcc	pc, r0, r0, asr r6

300079f4 <CfgDht11DataAsOutput>:
300079f4:	e3a03456 	mov	r3, #1442840576	; 0x56000000
300079f8:	e5932060 	ldr	r2, [r3, #96]
300079fc:	e3c22b03 	bic	r2, r2, #3072	; 0xc00
30007a00:	e5832060 	str	r2, [r3, #96]
30007a04:	e5931060 	ldr	r1, [r3, #96]
30007a08:	e3811b01 	orr	r1, r1, #1024	; 0x400
30007a0c:	e5831060 	str	r1, [r3, #96]
30007a10:	e1a0f00e 	mov	pc, lr

30007a14 <SetDht11Data>:
30007a14:	e3500000 	cmp	r0, #0	; 0x0
30007a18:	e3a01456 	mov	r1, #1442840576	; 0x56000000
30007a1c:	15913064 	ldrne	r3, [r1, #100]
30007a20:	05913064 	ldreq	r3, [r1, #100]
30007a24:	13833020 	orrne	r3, r3, #32	; 0x20
30007a28:	03c33020 	biceq	r3, r3, #32	; 0x20
30007a2c:	15813064 	strne	r3, [r1, #100]
30007a30:	05813064 	streq	r3, [r1, #100]
30007a34:	e1a0f00e 	mov	pc, lr

30007a38 <GetDht11Data>:
30007a38:	e3a03456 	mov	r3, #1442840576	; 0x56000000
30007a3c:	e5930064 	ldr	r0, [r3, #100]
30007a40:	e2100020 	ands	r0, r0, #32	; 0x20
30007a44:	13a00001 	movne	r0, #1	; 0x1
30007a48:	e1a0f00e 	mov	pc, lr

30007a4c <InitDht11>:
30007a4c:	e52de004 	str	lr, [sp, #-4]!
30007a50:	ebffffe7 	bl	300079f4 <CfgDht11DataAsOutput>
30007a54:	e3a00001 	mov	r0, #1	; 0x1
30007a58:	ebffffed 	bl	30007a14 <SetDht11Data>
30007a5c:	e3a00e7d 	mov	r0, #2000	; 0x7d0
30007a60:	e49de004 	ldr	lr, [sp], #4
30007a64:	eaffe8bd 	b	30001d60 <mDelay>

30007a68 <WaitDht11ForVal>:
30007a68:	e92d4030 	stmdb	sp!, {r4, r5, lr}
30007a6c:	e2414001 	sub	r4, r1, #1	; 0x1
30007a70:	e3740001 	cmn	r4, #1	; 0x1
30007a74:	e1a05000 	mov	r5, r0
30007a78:	0a000007 	beq	30007a9c <WaitDht11ForVal+0x34>
30007a7c:	ebffffed 	bl	30007a38 <GetDht11Data>
30007a80:	e1500005 	cmp	r0, r5
30007a84:	e2444001 	sub	r4, r4, #1	; 0x1
30007a88:	e3a00001 	mov	r0, #1	; 0x1
30007a8c:	0a000004 	beq	30007aa4 <WaitDht11ForVal+0x3c>
30007a90:	ebffe8a1 	bl	30001d1c <uDelay>
30007a94:	e3740001 	cmn	r4, #1	; 0x1
30007a98:	1afffff7 	bne	30007a7c <WaitDht11ForVal+0x14>
30007a9c:	e3e00000 	mvn	r0, #0	; 0x0
30007aa0:	e8bd8030 	ldmia	sp!, {r4, r5, pc}
30007aa4:	e2400001 	sub	r0, r0, #1	; 0x1
30007aa8:	e8bd8030 	ldmia	sp!, {r4, r5, pc}

30007aac <RecvDht11Byte>:
30007aac:	e92d4070 	stmdb	sp!, {r4, r5, r6, lr}
30007ab0:	e3a06000 	mov	r6, #0	; 0x0
30007ab4:	e1a05006 	mov	r5, r6
30007ab8:	e3a01ffa 	mov	r1, #1000	; 0x3e8
30007abc:	e3a00001 	mov	r0, #1	; 0x1
30007ac0:	ebffffe8 	bl	30007a68 <WaitDht11ForVal>
30007ac4:	e2504000 	subs	r4, r0, #0	; 0x0
30007ac8:	e2855001 	add	r5, r5, #1	; 0x1
30007acc:	e3a00028 	mov	r0, #40	; 0x28
30007ad0:	1a00000d 	bne	30007b0c <RecvDht11Byte+0x60>
30007ad4:	ebffe890 	bl	30001d1c <uDelay>
30007ad8:	ebffffd6 	bl	30007a38 <GetDht11Data>
30007adc:	e1a06086 	mov	r6, r6, lsl #1
30007ae0:	e3500001 	cmp	r0, #1	; 0x1
30007ae4:	e3a01ffa 	mov	r1, #1000	; 0x3e8
30007ae8:	e1a00004 	mov	r0, r4
30007aec:	03866001 	orreq	r6, r6, #1	; 0x1
30007af0:	ebffffdc 	bl	30007a68 <WaitDht11ForVal>
30007af4:	e3500000 	cmp	r0, #0	; 0x0
30007af8:	1a000007 	bne	30007b1c <RecvDht11Byte+0x70>
30007afc:	e3550007 	cmp	r5, #7	; 0x7
30007b00:	daffffec 	ble	30007ab8 <RecvDht11Byte+0xc>
30007b04:	e1a00006 	mov	r0, r6
30007b08:	e8bd8070 	ldmia	sp!, {r4, r5, r6, pc}
30007b0c:	e59f0018 	ldr	r0, [pc, #24]	; 30007b2c <.text+0x7b2c>
30007b10:	ebffe6ef 	bl	300016d4 <printf>
30007b14:	e3e00000 	mvn	r0, #0	; 0x0
30007b18:	e8bd8070 	ldmia	sp!, {r4, r5, r6, pc}
30007b1c:	e59f000c 	ldr	r0, [pc, #12]	; 30007b30 <.text+0x7b30>
30007b20:	ebffe6eb 	bl	300016d4 <printf>
30007b24:	e3e00000 	mvn	r0, #0	; 0x0
30007b28:	e8bd8070 	ldmia	sp!, {r4, r5, r6, pc}
30007b2c:	3000ef88 	andcc	lr, r0, r8, lsl #31
30007b30:	3000efa8 	andcc	lr, r0, r8, lsr #31

30007b34 <ReadDht11>:
30007b34:	e92d4ff0 	stmdb	sp!, {r4, r5, r6, r7, r8, r9, sl, fp, lr}
30007b38:	e1a0b000 	mov	fp, r0
30007b3c:	e3a00000 	mov	r0, #0	; 0x0
30007b40:	e1a09001 	mov	r9, r1
30007b44:	ebffffb2 	bl	30007a14 <SetDht11Data>
30007b48:	e3a00014 	mov	r0, #20	; 0x14
30007b4c:	ebffe883 	bl	30001d60 <mDelay>
30007b50:	e3a02456 	mov	r2, #1442840576	; 0x56000000
30007b54:	e5923060 	ldr	r3, [r2, #96]
30007b58:	e3c33b03 	bic	r3, r3, #3072	; 0xc00
30007b5c:	e3a0003c 	mov	r0, #60	; 0x3c
30007b60:	e5823060 	str	r3, [r2, #96]
30007b64:	ebffe86c 	bl	30001d1c <uDelay>
30007b68:	ebffffb2 	bl	30007a38 <GetDht11Data>
30007b6c:	e3500000 	cmp	r0, #0	; 0x0
30007b70:	e3a01ffa 	mov	r1, #1000	; 0x3e8
30007b74:	e3a00001 	mov	r0, #1	; 0x1
30007b78:	159f00a0 	ldrne	r0, [pc, #160]	; 30007c20 <.text+0x7c20>
30007b7c:	1a000020 	bne	30007c04 <ReadDht11+0xd0>
30007b80:	ebffffb8 	bl	30007a68 <WaitDht11ForVal>
30007b84:	e3500000 	cmp	r0, #0	; 0x0
30007b88:	e3a01ffa 	mov	r1, #1000	; 0x3e8
30007b8c:	1a00001b 	bne	30007c00 <ReadDht11+0xcc>
30007b90:	ebffffb4 	bl	30007a68 <WaitDht11ForVal>
30007b94:	e250a000 	subs	sl, r0, #0	; 0x0
30007b98:	e59f0084 	ldr	r0, [pc, #132]	; 30007c24 <.text+0x7c24>
30007b9c:	1a000018 	bne	30007c04 <ReadDht11+0xd0>
30007ba0:	ebffffc1 	bl	30007aac <RecvDht11Byte>
30007ba4:	e20080ff 	and	r8, r0, #255	; 0xff
30007ba8:	ebffffbf 	bl	30007aac <RecvDht11Byte>
30007bac:	e20040ff 	and	r4, r0, #255	; 0xff
30007bb0:	ebffffbd 	bl	30007aac <RecvDht11Byte>
30007bb4:	e20070ff 	and	r7, r0, #255	; 0xff
30007bb8:	ebffffbb 	bl	30007aac <RecvDht11Byte>
30007bbc:	e20060ff 	and	r6, r0, #255	; 0xff
30007bc0:	ebffffb9 	bl	30007aac <RecvDht11Byte>
30007bc4:	e0884004 	add	r4, r8, r4
30007bc8:	e0844007 	add	r4, r4, r7
30007bcc:	e20050ff 	and	r5, r0, #255	; 0xff
30007bd0:	e0844006 	add	r4, r4, r6
30007bd4:	ebffff86 	bl	300079f4 <CfgDht11DataAsOutput>
30007bd8:	e3a00001 	mov	r0, #1	; 0x1
30007bdc:	ebffff8c 	bl	30007a14 <SetDht11Data>
30007be0:	e1540005 	cmp	r4, r5
30007be4:	e3a00e7d 	mov	r0, #2000	; 0x7d0
30007be8:	1a000008 	bne	30007c10 <ReadDht11+0xdc>
30007bec:	e58b8000 	str	r8, [fp]
30007bf0:	e5897000 	str	r7, [r9]
30007bf4:	ebffe859 	bl	30001d60 <mDelay>
30007bf8:	e1a0000a 	mov	r0, sl
30007bfc:	e8bd8ff0 	ldmia	sp!, {r4, r5, r6, r7, r8, r9, sl, fp, pc}
30007c00:	e59f0020 	ldr	r0, [pc, #32]	; 30007c28 <.text+0x7c28>
30007c04:	ebffe6b2 	bl	300016d4 <printf>
30007c08:	e3e00000 	mvn	r0, #0	; 0x0
30007c0c:	e8bd8ff0 	ldmia	sp!, {r4, r5, r6, r7, r8, r9, sl, fp, pc}
30007c10:	e59f0014 	ldr	r0, [pc, #20]	; 30007c2c <.text+0x7c2c>
30007c14:	ebffe6ae 	bl	300016d4 <printf>
30007c18:	e3e00000 	mvn	r0, #0	; 0x0
30007c1c:	e8bd8ff0 	ldmia	sp!, {r4, r5, r6, r7, r8, r9, sl, fp, pc}
30007c20:	3000efc8 	andcc	lr, r0, r8, asr #31
30007c24:	3000efe0 	andcc	lr, r0, r0, ror #31
30007c28:	3000f000 	andcc	pc, r0, r0
30007c2c:	3000f020 	andcc	pc, r0, r0, lsr #32

30007c30 <TestDht11>:
30007c30:	e92d4070 	stmdb	sp!, {r4, r5, r6, lr}
30007c34:	e24dd018 	sub	sp, sp, #24	; 0x18
30007c38:	ebffff83 	bl	30007a4c <InitDht11>
30007c3c:	e3e004ff 	mvn	r0, #-16777216	; 0xff000000
30007c40:	ebfff27b 	bl	30004634 <ClearScreen>
30007c44:	e3a038e3 	mov	r3, #14876672	; 0xe30000
30007c48:	e2833c17 	add	r3, r3, #5888	; 0x1700
30007c4c:	e3a0c000 	mov	ip, #0	; 0x0
30007c50:	e283300d 	add	r3, r3, #13	; 0xd
30007c54:	e3a000a0 	mov	r0, #160	; 0xa0
30007c58:	e3a01005 	mov	r1, #5	; 0x5
30007c5c:	e59f224c 	ldr	r2, [pc, #588]	; 30007eb0 <.text+0x7eb0>
30007c60:	e58dc000 	str	ip, [sp]
30007c64:	ebfff46d 	bl	30004e20 <PrintFbString16x32>
30007c68:	e3a03841 	mov	r3, #4259840	; 0x410000
30007c6c:	e2833c69 	add	r3, r3, #26880	; 0x6900
30007c70:	e28330e1 	add	r3, r3, #225	; 0xe1
30007c74:	e3a01078 	mov	r1, #120	; 0x78
30007c78:	e59f2234 	ldr	r2, [pc, #564]	; 30007eb4 <.text+0x7eb4>
30007c7c:	e3a04001 	mov	r4, #1	; 0x1
30007c80:	e3a00028 	mov	r0, #40	; 0x28
30007c84:	e58d4000 	str	r4, [sp]
30007c88:	ebfff43d 	bl	30004d84 <PrintFbString8x16>
30007c8c:	e3a00d4e 	mov	r0, #4992	; 0x1380
30007c90:	e2800008 	add	r0, r0, #8	; 0x8
30007c94:	ebffe831 	bl	30001d60 <mDelay>
30007c98:	e3a00028 	mov	r0, #40	; 0x28
30007c9c:	e3a01078 	mov	r1, #120	; 0x78
30007ca0:	e59f220c 	ldr	r2, [pc, #524]	; 30007eb4 <.text+0x7eb4>
30007ca4:	e3e034ff 	mvn	r3, #-16777216	; 0xff000000
30007ca8:	e58d4000 	str	r4, [sp]
30007cac:	e28d600c 	add	r6, sp, #12	; 0xc
30007cb0:	ebfff433 	bl	30004d84 <PrintFbString8x16>
30007cb4:	ebffeb1b 	bl	30002928 <DisplayReturnButton>
30007cb8:	ebffe8f9 	bl	300020a4 <isClickReturn>
30007cbc:	e2505000 	subs	r5, r0, #0	; 0x0
30007cc0:	1a00001a 	bne	30007d30 <TestDht11+0x100>
30007cc4:	e28d0008 	add	r0, sp, #8	; 0x8
30007cc8:	e28d1004 	add	r1, sp, #4	; 0x4
30007ccc:	ebffff98 	bl	30007b34 <ReadDht11>
30007cd0:	e2504000 	subs	r4, r0, #0	; 0x0
30007cd4:	0a000018 	beq	30007d3c <TestDht11+0x10c>
30007cd8:	e59f01d8 	ldr	r0, [pc, #472]	; 30007eb8 <.text+0x7eb8>
30007cdc:	ebffe67c 	bl	300016d4 <printf>
30007ce0:	ebffff59 	bl	30007a4c <InitDht11>
30007ce4:	e3a03841 	mov	r3, #4259840	; 0x410000
30007ce8:	e2833c69 	add	r3, r3, #26880	; 0x6900
30007cec:	e28330e1 	add	r3, r3, #225	; 0xe1
30007cf0:	e3a01078 	mov	r1, #120	; 0x78
30007cf4:	e59f21c0 	ldr	r2, [pc, #448]	; 30007ebc <.text+0x7ebc>
30007cf8:	e3a00069 	mov	r0, #105	; 0x69
30007cfc:	e58d5000 	str	r5, [sp]
30007d00:	ebfff41f 	bl	30004d84 <PrintFbString8x16>
30007d04:	e3a00ffa 	mov	r0, #1000	; 0x3e8
30007d08:	ebffe814 	bl	30001d60 <mDelay>
30007d0c:	e3a00069 	mov	r0, #105	; 0x69
30007d10:	e3a01078 	mov	r1, #120	; 0x78
30007d14:	e59f21a0 	ldr	r2, [pc, #416]	; 30007ebc <.text+0x7ebc>
30007d18:	e3e034ff 	mvn	r3, #-16777216	; 0xff000000
30007d1c:	e58d5000 	str	r5, [sp]
30007d20:	ebfff417 	bl	30004d84 <PrintFbString8x16>
30007d24:	ebffe8de 	bl	300020a4 <isClickReturn>
30007d28:	e2505000 	subs	r5, r0, #0	; 0x0
30007d2c:	0affffe4 	beq	30007cc4 <TestDht11+0x94>
30007d30:	ebffebcf 	bl	30002c74 <MainPage>
30007d34:	e28dd018 	add	sp, sp, #24	; 0x18
30007d38:	e8bd8070 	ldmia	sp!, {r4, r5, r6, pc}
30007d3c:	e59d1008 	ldr	r1, [sp, #8]
30007d40:	e59d2004 	ldr	r2, [sp, #4]
30007d44:	e59f0174 	ldr	r0, [pc, #372]	; 30007ec0 <.text+0x7ec0>
30007d48:	ebffe661 	bl	300016d4 <printf>
30007d4c:	e3a03841 	mov	r3, #4259840	; 0x410000
30007d50:	e2833c69 	add	r3, r3, #26880	; 0x6900
30007d54:	e28330e1 	add	r3, r3, #225	; 0xe1
30007d58:	e3a00078 	mov	r0, #120	; 0x78
30007d5c:	e3a0104b 	mov	r1, #75	; 0x4b
30007d60:	e59f215c 	ldr	r2, [pc, #348]	; 30007ec4 <.text+0x7ec4>
30007d64:	e58d4000 	str	r4, [sp]
30007d68:	ebfff42c 	bl	30004e20 <PrintFbString16x32>
30007d6c:	e1a00006 	mov	r0, r6
30007d70:	e59d1008 	ldr	r1, [sp, #8]
30007d74:	e3a0200a 	mov	r2, #10	; 0xa
30007d78:	ebffe465 	bl	30000f14 <Convert>
30007d7c:	e3a03841 	mov	r3, #4259840	; 0x410000
30007d80:	e2833c69 	add	r3, r3, #26880	; 0x6900
30007d84:	e1a02006 	mov	r2, r6
30007d88:	e28330e1 	add	r3, r3, #225	; 0xe1
30007d8c:	e3a000b0 	mov	r0, #176	; 0xb0
30007d90:	e3a01073 	mov	r1, #115	; 0x73
30007d94:	e58d4000 	str	r4, [sp]
30007d98:	ebfff3f9 	bl	30004d84 <PrintFbString8x16>
30007d9c:	e3a03841 	mov	r3, #4259840	; 0x410000
30007da0:	e2833c69 	add	r3, r3, #26880	; 0x6900
30007da4:	e28330e1 	add	r3, r3, #225	; 0xe1
30007da8:	e3a000c8 	mov	r0, #200	; 0xc8
30007dac:	e3a01073 	mov	r1, #115	; 0x73
30007db0:	e59f2110 	ldr	r2, [pc, #272]	; 30007ec8 <.text+0x7ec8>
30007db4:	e58d4000 	str	r4, [sp]
30007db8:	ebfff3f1 	bl	30004d84 <PrintFbString8x16>
30007dbc:	e1a00006 	mov	r0, r6
30007dc0:	e59d1004 	ldr	r1, [sp, #4]
30007dc4:	e3a0200a 	mov	r2, #10	; 0xa
30007dc8:	ebffe451 	bl	30000f14 <Convert>
30007dcc:	e3a03841 	mov	r3, #4259840	; 0x410000
30007dd0:	e2833c69 	add	r3, r3, #26880	; 0x6900
30007dd4:	e1a02006 	mov	r2, r6
30007dd8:	e28330e1 	add	r3, r3, #225	; 0xe1
30007ddc:	e3a000b0 	mov	r0, #176	; 0xb0
30007de0:	e3a0108c 	mov	r1, #140	; 0x8c
30007de4:	e58d4000 	str	r4, [sp]
30007de8:	ebfff3e5 	bl	30004d84 <PrintFbString8x16>
30007dec:	e3a03841 	mov	r3, #4259840	; 0x410000
30007df0:	e2833c69 	add	r3, r3, #26880	; 0x6900
30007df4:	e28330e1 	add	r3, r3, #225	; 0xe1
30007df8:	e3a0108c 	mov	r1, #140	; 0x8c
30007dfc:	e59f20c8 	ldr	r2, [pc, #200]	; 30007ecc <.text+0x7ecc>
30007e00:	e3a000c8 	mov	r0, #200	; 0xc8
30007e04:	e58d4000 	str	r4, [sp]
30007e08:	ebfff3dd 	bl	30004d84 <PrintFbString8x16>
30007e0c:	e3a00ffa 	mov	r0, #1000	; 0x3e8
30007e10:	ebffe7d2 	bl	30001d60 <mDelay>
30007e14:	e3e034ff 	mvn	r3, #-16777216	; 0xff000000
30007e18:	e3a00078 	mov	r0, #120	; 0x78
30007e1c:	e3a0104b 	mov	r1, #75	; 0x4b
30007e20:	e59f209c 	ldr	r2, [pc, #156]	; 30007ec4 <.text+0x7ec4>
30007e24:	e58d4000 	str	r4, [sp]
30007e28:	ebfff3fc 	bl	30004e20 <PrintFbString16x32>
30007e2c:	e1a00006 	mov	r0, r6
30007e30:	e59d1008 	ldr	r1, [sp, #8]
30007e34:	e3a0200a 	mov	r2, #10	; 0xa
30007e38:	ebffe435 	bl	30000f14 <Convert>
30007e3c:	e1a02006 	mov	r2, r6
30007e40:	e3a000b0 	mov	r0, #176	; 0xb0
30007e44:	e3a01073 	mov	r1, #115	; 0x73
30007e48:	e3e034ff 	mvn	r3, #-16777216	; 0xff000000
30007e4c:	e58d4000 	str	r4, [sp]
30007e50:	ebfff3cb 	bl	30004d84 <PrintFbString8x16>
30007e54:	e3e034ff 	mvn	r3, #-16777216	; 0xff000000
30007e58:	e3a000c8 	mov	r0, #200	; 0xc8
30007e5c:	e3a01073 	mov	r1, #115	; 0x73
30007e60:	e59f2060 	ldr	r2, [pc, #96]	; 30007ec8 <.text+0x7ec8>
30007e64:	e58d4000 	str	r4, [sp]
30007e68:	ebfff3c5 	bl	30004d84 <PrintFbString8x16>
30007e6c:	e1a00006 	mov	r0, r6
30007e70:	e59d1004 	ldr	r1, [sp, #4]
30007e74:	e3a0200a 	mov	r2, #10	; 0xa
30007e78:	ebffe425 	bl	30000f14 <Convert>
30007e7c:	e1a02006 	mov	r2, r6
30007e80:	e3a000b0 	mov	r0, #176	; 0xb0
30007e84:	e3a0108c 	mov	r1, #140	; 0x8c
30007e88:	e3e034ff 	mvn	r3, #-16777216	; 0xff000000
30007e8c:	e58d4000 	str	r4, [sp]
30007e90:	ebfff3bb 	bl	30004d84 <PrintFbString8x16>
30007e94:	e3a000c8 	mov	r0, #200	; 0xc8
30007e98:	e3a0108c 	mov	r1, #140	; 0x8c
30007e9c:	e59f2028 	ldr	r2, [pc, #40]	; 30007ecc <.text+0x7ecc>
30007ea0:	e3e034ff 	mvn	r3, #-16777216	; 0xff000000
30007ea4:	e58d4000 	str	r4, [sp]
30007ea8:	ebfff3b5 	bl	30004d84 <PrintFbString8x16>
30007eac:	eaffff9c 	b	30007d24 <TestDht11+0xf4>
30007eb0:	3000f038 	andcc	pc, r0, r8, lsr r0
30007eb4:	3000f044 	andcc	pc, r0, r4, asr #32
30007eb8:	3000f088 	andcc	pc, r0, r8, lsl #1
30007ebc:	3000f09c 	mulcc	r0, ip, r0
30007ec0:	3000f0c0 	andcc	pc, r0, r0, asr #1
30007ec4:	3000f0e8 	andcc	pc, r0, r8, ror #1
30007ec8:	3000f0f4 	strccd	pc, [r0], -r4
30007ecc:	3000f100 	andcc	pc, r0, r0, lsl #2

30007ed0 <GetDs18b20Data>:
30007ed0:	e3a03456 	mov	r3, #1442840576	; 0x56000000
30007ed4:	e5930064 	ldr	r0, [r3, #100]
30007ed8:	e2100040 	ands	r0, r0, #64	; 0x40
30007edc:	13a00001 	movne	r0, #1	; 0x1
30007ee0:	e1a0f00e 	mov	pc, lr

30007ee4 <SetDs18b20DataValForTime>:
30007ee4:	e3a0c456 	mov	ip, #1442840576	; 0x56000000
30007ee8:	e59c3060 	ldr	r3, [ip, #96]
30007eec:	e3c33a03 	bic	r3, r3, #12288	; 0x3000
30007ef0:	e58c3060 	str	r3, [ip, #96]
30007ef4:	e59c2060 	ldr	r2, [ip, #96]
30007ef8:	e3822a01 	orr	r2, r2, #4096	; 0x1000
30007efc:	e58c2060 	str	r2, [ip, #96]
30007f00:	e3500000 	cmp	r0, #0	; 0x0
30007f04:	159c3064 	ldrne	r3, [ip, #100]
30007f08:	059c3064 	ldreq	r3, [ip, #100]
30007f0c:	13833040 	orrne	r3, r3, #64	; 0x40
30007f10:	03c33040 	biceq	r3, r3, #64	; 0x40
30007f14:	e1a00001 	mov	r0, r1
30007f18:	e58c3064 	str	r3, [ip, #100]
30007f1c:	eaffe77e 	b	30001d1c <uDelay>

30007f20 <ReleaseDs18b20Data>:
30007f20:	e3a02456 	mov	r2, #1442840576	; 0x56000000
30007f24:	e5923060 	ldr	r3, [r2, #96]
30007f28:	e3c33a03 	bic	r3, r3, #12288	; 0x3000
30007f2c:	e5823060 	str	r3, [r2, #96]
30007f30:	e1a0f00e 	mov	pc, lr

30007f34 <InitializationDs18b20>:
30007f34:	e92d4010 	stmdb	sp!, {r4, lr}
30007f38:	e3a01f7d 	mov	r1, #500	; 0x1f4
30007f3c:	e3a00000 	mov	r0, #0	; 0x0
30007f40:	ebffffe7 	bl	30007ee4 <SetDs18b20DataValForTime>
30007f44:	ebfffff5 	bl	30007f20 <ReleaseDs18b20Data>
30007f48:	e3a00050 	mov	r0, #80	; 0x50
30007f4c:	ebffe772 	bl	30001d1c <uDelay>
30007f50:	ebffffde 	bl	30007ed0 <GetDs18b20Data>
30007f54:	e1a04000 	mov	r4, r0
30007f58:	e3a000fa 	mov	r0, #250	; 0xfa
30007f5c:	ebffe76e 	bl	30001d1c <uDelay>
30007f60:	e1a00004 	mov	r0, r4
30007f64:	e8bd8010 	ldmia	sp!, {r4, pc}

30007f68 <ReadDs18b20Bit>:
30007f68:	e92d4010 	stmdb	sp!, {r4, lr}
30007f6c:	e3a01002 	mov	r1, #2	; 0x2
30007f70:	e3a00000 	mov	r0, #0	; 0x0
30007f74:	ebffffda 	bl	30007ee4 <SetDs18b20DataValForTime>
30007f78:	ebffffe8 	bl	30007f20 <ReleaseDs18b20Data>
30007f7c:	e3a0000a 	mov	r0, #10	; 0xa
30007f80:	ebffe765 	bl	30001d1c <uDelay>
30007f84:	ebffffd1 	bl	30007ed0 <GetDs18b20Data>
30007f88:	e1a04000 	mov	r4, r0
30007f8c:	e3a00032 	mov	r0, #50	; 0x32
30007f90:	ebffe761 	bl	30001d1c <uDelay>
30007f94:	e1a00004 	mov	r0, r4
30007f98:	e8bd8010 	ldmia	sp!, {r4, pc}

30007f9c <WriteDs18b20Byte>:
30007f9c:	e92d4030 	stmdb	sp!, {r4, r5, lr}
30007fa0:	e20050ff 	and	r5, r0, #255	; 0xff
30007fa4:	e3a04000 	mov	r4, #0	; 0x0
30007fa8:	ea000007 	b	30007fcc <WriteDs18b20Byte+0x30>
30007fac:	e1a00003 	mov	r0, r3
30007fb0:	ebffffcb 	bl	30007ee4 <SetDs18b20DataValForTime>
30007fb4:	e2844001 	add	r4, r4, #1	; 0x1
30007fb8:	ebffffd8 	bl	30007f20 <ReleaseDs18b20Data>
30007fbc:	e3a00002 	mov	r0, #2	; 0x2
30007fc0:	ebffe755 	bl	30001d1c <uDelay>
30007fc4:	e3540007 	cmp	r4, #7	; 0x7
30007fc8:	ca00000c 	bgt	30008000 <WriteDs18b20Byte+0x64>
30007fcc:	e3a03001 	mov	r3, #1	; 0x1
30007fd0:	e0153413 	ands	r3, r5, r3, lsl r4
30007fd4:	e3a0103c 	mov	r1, #60	; 0x3c
30007fd8:	e3a00000 	mov	r0, #0	; 0x0
30007fdc:	0afffff2 	beq	30007fac <WriteDs18b20Byte+0x10>
30007fe0:	e3a01002 	mov	r1, #2	; 0x2
30007fe4:	ebffffbe 	bl	30007ee4 <SetDs18b20DataValForTime>
30007fe8:	e2844001 	add	r4, r4, #1	; 0x1
30007fec:	ebffffcb 	bl	30007f20 <ReleaseDs18b20Data>
30007ff0:	e3a0003c 	mov	r0, #60	; 0x3c
30007ff4:	ebffe748 	bl	30001d1c <uDelay>
30007ff8:	e3540007 	cmp	r4, #7	; 0x7
30007ffc:	dafffff2 	ble	30007fcc <WriteDs18b20Byte+0x30>
30008000:	e8bd8030 	ldmia	sp!, {r4, r5, pc}

30008004 <ReadDs18b20Byte>:
30008004:	e92d4030 	stmdb	sp!, {r4, r5, lr}
30008008:	e3a05000 	mov	r5, #0	; 0x0
3000800c:	e1a04005 	mov	r4, r5
30008010:	ebffffd4 	bl	30007f68 <ReadDs18b20Bit>
30008014:	e1853410 	orr	r3, r5, r0, lsl r4
30008018:	e3500001 	cmp	r0, #1	; 0x1
3000801c:	e2844001 	add	r4, r4, #1	; 0x1
30008020:	020350ff 	andeq	r5, r3, #255	; 0xff
30008024:	e3540007 	cmp	r4, #7	; 0x7
30008028:	dafffff8 	ble	30008010 <ReadDs18b20Byte+0xc>
3000802c:	e1a00005 	mov	r0, r5
30008030:	e8bd8030 	ldmia	sp!, {r4, r5, pc}

30008034 <WriteDs18b20RomCmd>:
30008034:	e20000ff 	and	r0, r0, #255	; 0xff
30008038:	eaffffd7 	b	30007f9c <WriteDs18b20Byte>

3000803c <WriteDs18b20FunctionCmd>:
3000803c:	e20000ff 	and	r0, r0, #255	; 0xff
30008040:	eaffffd5 	b	30007f9c <WriteDs18b20Byte>

30008044 <ReadDs18b20Rom>:
30008044:	e92d4030 	stmdb	sp!, {r4, r5, lr}
30008048:	e1a05000 	mov	r5, r0
3000804c:	ebffffb8 	bl	30007f34 <InitializationDs18b20>
30008050:	e2504000 	subs	r4, r0, #0	; 0x0
30008054:	1a000008 	bne	3000807c <ReadDs18b20Rom+0x38>
30008058:	e3a00033 	mov	r0, #51	; 0x33
3000805c:	ebfffff4 	bl	30008034 <WriteDs18b20RomCmd>
30008060:	ebffffe7 	bl	30008004 <ReadDs18b20Byte>
30008064:	e7c50004 	strb	r0, [r5, r4]
30008068:	e2844001 	add	r4, r4, #1	; 0x1
3000806c:	e3540007 	cmp	r4, #7	; 0x7
30008070:	dafffffa 	ble	30008060 <ReadDs18b20Rom+0x1c>
30008074:	e3a00000 	mov	r0, #0	; 0x0
30008078:	e8bd8030 	ldmia	sp!, {r4, r5, pc}
3000807c:	e59f0008 	ldr	r0, [pc, #8]	; 3000808c <.text+0x808c>
30008080:	ebffe593 	bl	300016d4 <printf>
30008084:	e3e00000 	mvn	r0, #0	; 0x0
30008088:	e8bd8030 	ldmia	sp!, {r4, r5, pc}
3000808c:	3000f10c 	andcc	pc, r0, ip, lsl #2

30008090 <WaitDs18b20WhenProcessing>:
30008090:	e92d4010 	stmdb	sp!, {r4, lr}
30008094:	e2404001 	sub	r4, r0, #1	; 0x1
30008098:	ea000005 	b	300080b4 <WaitDs18b20WhenProcessing+0x24>
3000809c:	ebffffb1 	bl	30007f68 <ReadDs18b20Bit>
300080a0:	e3500001 	cmp	r0, #1	; 0x1
300080a4:	e2444001 	sub	r4, r4, #1	; 0x1
300080a8:	e3a00001 	mov	r0, #1	; 0x1
300080ac:	0a000004 	beq	300080c4 <WaitDs18b20WhenProcessing+0x34>
300080b0:	ebffe719 	bl	30001d1c <uDelay>
300080b4:	e3740001 	cmn	r4, #1	; 0x1
300080b8:	1afffff7 	bne	3000809c <WaitDs18b20WhenProcessing+0xc>
300080bc:	e3e00000 	mvn	r0, #0	; 0x0
300080c0:	e8bd8010 	ldmia	sp!, {r4, pc}
300080c4:	e2400001 	sub	r0, r0, #1	; 0x1
300080c8:	e8bd8010 	ldmia	sp!, {r4, pc}

300080cc <StartDs18b20Convert>:
300080cc:	e52de004 	str	lr, [sp, #-4]!
300080d0:	ebffff97 	bl	30007f34 <InitializationDs18b20>
300080d4:	e3500000 	cmp	r0, #0	; 0x0
300080d8:	e3a000cc 	mov	r0, #204	; 0xcc
300080dc:	159f0034 	ldrne	r0, [pc, #52]	; 30008118 <.text+0x8118>
300080e0:	1a000009 	bne	3000810c <StartDs18b20Convert+0x40>
300080e4:	ebffffd2 	bl	30008034 <WriteDs18b20RomCmd>
300080e8:	e3a00044 	mov	r0, #68	; 0x44
300080ec:	ebffffd2 	bl	3000803c <WriteDs18b20FunctionCmd>
300080f0:	e3a0093d 	mov	r0, #999424	; 0xf4000
300080f4:	e2800d09 	add	r0, r0, #576	; 0x240
300080f8:	ebffffe4 	bl	30008090 <WaitDs18b20WhenProcessing>
300080fc:	e2503000 	subs	r3, r0, #0	; 0x0
30008100:	e59f0014 	ldr	r0, [pc, #20]	; 3000811c <.text+0x811c>
30008104:	01a00003 	moveq	r0, r3
30008108:	049df004 	ldreq	pc, [sp], #4
3000810c:	ebffe570 	bl	300016d4 <printf>
30008110:	e3e00000 	mvn	r0, #0	; 0x0
30008114:	e49df004 	ldr	pc, [sp], #4
30008118:	3000f10c 	andcc	pc, r0, ip, lsl #2
3000811c:	3000f12c 	andcc	pc, r0, ip, lsr #2

30008120 <ReadDs18b20Ram>:
30008120:	e92d4030 	stmdb	sp!, {r4, r5, lr}
30008124:	e1a05000 	mov	r5, r0
30008128:	ebffff81 	bl	30007f34 <InitializationDs18b20>
3000812c:	e2504000 	subs	r4, r0, #0	; 0x0
30008130:	1a00000a 	bne	30008160 <ReadDs18b20Ram+0x40>
30008134:	e3a000cc 	mov	r0, #204	; 0xcc
30008138:	ebffffbd 	bl	30008034 <WriteDs18b20RomCmd>
3000813c:	e3a000be 	mov	r0, #190	; 0xbe
30008140:	ebffffbd 	bl	3000803c <WriteDs18b20FunctionCmd>
30008144:	ebffffae 	bl	30008004 <ReadDs18b20Byte>
30008148:	e7c50004 	strb	r0, [r5, r4]
3000814c:	e2844001 	add	r4, r4, #1	; 0x1
30008150:	e3540008 	cmp	r4, #8	; 0x8
30008154:	dafffffa 	ble	30008144 <ReadDs18b20Ram+0x24>
30008158:	e3a00000 	mov	r0, #0	; 0x0
3000815c:	e8bd8030 	ldmia	sp!, {r4, r5, pc}
30008160:	e59f0008 	ldr	r0, [pc, #8]	; 30008170 <.text+0x8170>
30008164:	ebffe55a 	bl	300016d4 <printf>
30008168:	e3e00000 	mvn	r0, #0	; 0x0
3000816c:	e8bd8030 	ldmia	sp!, {r4, r5, pc}
30008170:	3000f10c 	andcc	pc, r0, ip, lsl #2

30008174 <ReadDs18b20Temperature>:
30008174:	e92d47f0 	stmdb	sp!, {r4, r5, r6, r7, r8, r9, sl, lr}
30008178:	e24dd064 	sub	sp, sp, #100	; 0x64
3000817c:	e59f1118 	ldr	r1, [pc, #280]	; 3000829c <.text+0x829c>
30008180:	e3a02058 	mov	r2, #88	; 0x58
30008184:	e1a09000 	mov	r9, r0
30008188:	e1a0000d 	mov	r0, sp
3000818c:	ebffe640 	bl	30001a94 <memcpy>
30008190:	ebffffcd 	bl	300080cc <StartDs18b20Convert>
30008194:	e3500000 	cmp	r0, #0	; 0x0
30008198:	e1a0a00d 	mov	sl, sp
3000819c:	e28f60f0 	add	r6, pc, #240	; 0xf0
300081a0:	e89600c0 	ldmia	r6, {r6, r7}
300081a4:	0a000001 	beq	300081b0 <ReadDs18b20Temperature+0x3c>
300081a8:	e28dd064 	add	sp, sp, #100	; 0x64
300081ac:	e8bd87f0 	ldmia	sp!, {r4, r5, r6, r7, r8, r9, sl, pc}
300081b0:	e28d0058 	add	r0, sp, #88	; 0x58
300081b4:	ebffffd9 	bl	30008120 <ReadDs18b20Ram>
300081b8:	e3500000 	cmp	r0, #0	; 0x0
300081bc:	1afffff9 	bne	300081a8 <ReadDs18b20Temperature+0x34>
300081c0:	e5dd305c 	ldrb	r3, [sp, #92]
300081c4:	e2133060 	ands	r3, r3, #96	; 0x60
300081c8:	03a05003 	moveq	r5, #3	; 0x3
300081cc:	0a000005 	beq	300081e8 <ReadDs18b20Temperature+0x74>
300081d0:	e3530020 	cmp	r3, #32	; 0x20
300081d4:	03a05002 	moveq	r5, #2	; 0x2
300081d8:	0a000002 	beq	300081e8 <ReadDs18b20Temperature+0x74>
300081dc:	e3530040 	cmp	r3, #64	; 0x40
300081e0:	11a05000 	movne	r5, r0
300081e4:	03a05001 	moveq	r5, #1	; 0x1
300081e8:	e5dd8058 	ldrb	r8, [sp, #88]
300081ec:	e08a4185 	add	r4, sl, r5, lsl #3
300081f0:	e1a03558 	mov	r3, r8, asr r5
300081f4:	e3130001 	tst	r3, #1	; 0x1
300081f8:	e1a01007 	mov	r1, r7
300081fc:	e1a00006 	mov	r0, r6
30008200:	e2855001 	add	r5, r5, #1	; 0x1
30008204:	0a000003 	beq	30008218 <ReadDs18b20Temperature+0xa4>
30008208:	e894000c 	ldmia	r4, {r2, r3}
3000820c:	eb0003aa 	bl	300090bc <__adddf3>
30008210:	e1a07001 	mov	r7, r1
30008214:	e1a06000 	mov	r6, r0
30008218:	e3550007 	cmp	r5, #7	; 0x7
3000821c:	e2844008 	add	r4, r4, #8	; 0x8
30008220:	dafffff2 	ble	300081f0 <ReadDs18b20Temperature+0x7c>
30008224:	e5dd8059 	ldrb	r8, [sp, #89]
30008228:	e28a4040 	add	r4, sl, #64	; 0x40
3000822c:	e3a05000 	mov	r5, #0	; 0x0
30008230:	e1a03558 	mov	r3, r8, asr r5
30008234:	e3130001 	tst	r3, #1	; 0x1
30008238:	e1a01007 	mov	r1, r7
3000823c:	e1a00006 	mov	r0, r6
30008240:	e2855001 	add	r5, r5, #1	; 0x1
30008244:	0a000003 	beq	30008258 <ReadDs18b20Temperature+0xe4>
30008248:	e894000c 	ldmia	r4, {r2, r3}
3000824c:	eb00039a 	bl	300090bc <__adddf3>
30008250:	e1a07001 	mov	r7, r1
30008254:	e1a06000 	mov	r6, r0
30008258:	e3550002 	cmp	r5, #2	; 0x2
3000825c:	e2844008 	add	r4, r4, #8	; 0x8
30008260:	dafffff2 	ble	30008230 <ReadDs18b20Temperature+0xbc>
30008264:	e3180008 	tst	r8, #8	; 0x8
30008268:	0a000006 	beq	30008288 <ReadDs18b20Temperature+0x114>
3000826c:	e1a03007 	mov	r3, r7
30008270:	e1a02006 	mov	r2, r6
30008274:	e28f0018 	add	r0, pc, #24	; 0x18
30008278:	e8900003 	ldmia	r0, {r0, r1}
3000827c:	eb00038d 	bl	300090b8 <__subdf3>
30008280:	e1a07001 	mov	r7, r1
30008284:	e1a06000 	mov	r6, r0
30008288:	e3a00000 	mov	r0, #0	; 0x0
3000828c:	e88900c0 	stmia	r9, {r6, r7}
30008290:	eaffffc4 	b	300081a8 <ReadDs18b20Temperature+0x34>
	...
3000829c:	3000dfb0 	strcch	sp, [r0], -r0

300082a0 <InitDs18b20State>:
300082a0:	eaffff1e 	b	30007f20 <ReleaseDs18b20Data>

300082a4 <TestDs18b20>:
300082a4:	e92d45f0 	stmdb	sp!, {r4, r5, r6, r7, r8, sl, lr}
300082a8:	e28f3f99 	add	r3, pc, #612	; 0x264
300082ac:	e8930018 	ldmia	r3, {r3, r4}
300082b0:	e24dd018 	sub	sp, sp, #24	; 0x18
300082b4:	e28da004 	add	sl, sp, #4	; 0x4
300082b8:	e88a0018 	stmia	sl, {r3, r4}
300082bc:	ebfffff7 	bl	300082a0 <InitDs18b20State>
300082c0:	e3e004ff 	mvn	r0, #-16777216	; 0xff000000
300082c4:	ebfff0da 	bl	30004634 <ClearScreen>
300082c8:	e3a038e3 	mov	r3, #14876672	; 0xe30000
300082cc:	e2833c17 	add	r3, r3, #5888	; 0x1700
300082d0:	e283300d 	add	r3, r3, #13	; 0xd
300082d4:	e3a05000 	mov	r5, #0	; 0x0
300082d8:	e3a0008c 	mov	r0, #140	; 0x8c
300082dc:	e3a01005 	mov	r1, #5	; 0x5
300082e0:	e59f223c 	ldr	r2, [pc, #572]	; 30008524 <.text+0x8524>
300082e4:	e58d5000 	str	r5, [sp]
300082e8:	ebfff2cc 	bl	30004e20 <PrintFbString16x32>
300082ec:	e3a03841 	mov	r3, #4259840	; 0x410000
300082f0:	e2833c69 	add	r3, r3, #26880	; 0x6900
300082f4:	e28330e1 	add	r3, r3, #225	; 0xe1
300082f8:	e3a01078 	mov	r1, #120	; 0x78
300082fc:	e59f2224 	ldr	r2, [pc, #548]	; 30008528 <.text+0x8528>
30008300:	e3a04001 	mov	r4, #1	; 0x1
30008304:	e3a00028 	mov	r0, #40	; 0x28
30008308:	e58d4000 	str	r4, [sp]
3000830c:	ebfff29c 	bl	30004d84 <PrintFbString8x16>
30008310:	e3a00d4e 	mov	r0, #4992	; 0x1380
30008314:	e2800008 	add	r0, r0, #8	; 0x8
30008318:	ebffe690 	bl	30001d60 <mDelay>
3000831c:	e3a00028 	mov	r0, #40	; 0x28
30008320:	e3a01078 	mov	r1, #120	; 0x78
30008324:	e59f21fc 	ldr	r2, [pc, #508]	; 30008528 <.text+0x8528>
30008328:	e3e034ff 	mvn	r3, #-16777216	; 0xff000000
3000832c:	e58d4000 	str	r4, [sp]
30008330:	ebfff293 	bl	30004d84 <PrintFbString8x16>
30008334:	ebffe97b 	bl	30002928 <DisplayReturnButton>
30008338:	e1a08005 	mov	r8, r5
3000833c:	e28d700c 	add	r7, sp, #12	; 0xc
30008340:	ebffe757 	bl	300020a4 <isClickReturn>
30008344:	e3500000 	cmp	r0, #0	; 0x0
30008348:	1a00006e 	bne	30008508 <TestDs18b20+0x264>
3000834c:	e1a0000a 	mov	r0, sl
30008350:	ebffff87 	bl	30008174 <ReadDs18b20Temperature>
30008354:	e2506000 	subs	r6, r0, #0	; 0x0
30008358:	1afffff8 	bne	30008340 <TestDs18b20+0x9c>
3000835c:	e3e034ff 	mvn	r3, #-16777216	; 0xff000000
30008360:	e2800082 	add	r0, r0, #130	; 0x82
30008364:	e3a0106e 	mov	r1, #110	; 0x6e
30008368:	e59f21bc 	ldr	r2, [pc, #444]	; 3000852c <.text+0x852c>
3000836c:	e58d6000 	str	r6, [sp]
30008370:	ebfff283 	bl	30004d84 <PrintFbString8x16>
30008374:	e1a00007 	mov	r0, r7
30008378:	e1a01008 	mov	r1, r8
3000837c:	e3a0200a 	mov	r2, #10	; 0xa
30008380:	ebffe2e3 	bl	30000f14 <Convert>
30008384:	e3a00f4a 	mov	r0, #296	; 0x128
30008388:	e1a02007 	mov	r2, r7
3000838c:	e2800002 	add	r0, r0, #2	; 0x2
30008390:	e3a0106e 	mov	r1, #110	; 0x6e
30008394:	e3e034ff 	mvn	r3, #-16777216	; 0xff000000
30008398:	e58d6000 	str	r6, [sp]
3000839c:	ebfff278 	bl	30004d84 <PrintFbString8x16>
300083a0:	e3a00f4e 	mov	r0, #312	; 0x138
300083a4:	e3e034ff 	mvn	r3, #-16777216	; 0xff000000
300083a8:	e2800002 	add	r0, r0, #2	; 0x2
300083ac:	e3a0106e 	mov	r1, #110	; 0x6e
300083b0:	e59f2178 	ldr	r2, [pc, #376]	; 30008530 <.text+0x8530>
300083b4:	e58d6000 	str	r6, [sp]
300083b8:	ebfff271 	bl	30004d84 <PrintFbString8x16>
300083bc:	e1a00007 	mov	r0, r7
300083c0:	e1a01005 	mov	r1, r5
300083c4:	e3a0200a 	mov	r2, #10	; 0xa
300083c8:	ebffe2d1 	bl	30000f14 <Convert>
300083cc:	e3a00d05 	mov	r0, #320	; 0x140
300083d0:	e1a02007 	mov	r2, r7
300083d4:	e3e034ff 	mvn	r3, #-16777216	; 0xff000000
300083d8:	e2800002 	add	r0, r0, #2	; 0x2
300083dc:	e3a0106e 	mov	r1, #110	; 0x6e
300083e0:	e58d6000 	str	r6, [sp]
300083e4:	ebfff266 	bl	30004d84 <PrintFbString8x16>
300083e8:	e89a0030 	ldmia	sl, {r4, r5}
300083ec:	e1a01005 	mov	r1, r5
300083f0:	e1a00004 	mov	r0, r4
300083f4:	eb000571 	bl	300099c0 <__fixdfsi>
300083f8:	e1a08000 	mov	r8, r0
300083fc:	eb0003f1 	bl	300093c8 <__floatsidf>
30008400:	e1a03001 	mov	r3, r1
30008404:	e1a02000 	mov	r2, r0
30008408:	e1a01005 	mov	r1, r5
3000840c:	e1a00004 	mov	r0, r4
30008410:	eb000328 	bl	300090b8 <__subdf3>
30008414:	e28f2c01 	add	r2, pc, #256	; 0x100
30008418:	e892000c 	ldmia	r2, {r2, r3}
3000841c:	e1a05001 	mov	r5, r1
30008420:	e1a04000 	mov	r4, r0
30008424:	e88a0030 	stmia	sl, {r4, r5}
30008428:	eb000404 	bl	30009440 <__muldf3>
3000842c:	eb000563 	bl	300099c0 <__fixdfsi>
30008430:	e1a01008 	mov	r1, r8
30008434:	e1a05000 	mov	r5, r0
30008438:	e1a02000 	mov	r2, r0
3000843c:	e59f00f0 	ldr	r0, [pc, #240]	; 30008534 <.text+0x8534>
30008440:	ebffe4a3 	bl	300016d4 <printf>
30008444:	e3a03841 	mov	r3, #4259840	; 0x410000
30008448:	e2833c69 	add	r3, r3, #26880	; 0x6900
3000844c:	e28330e1 	add	r3, r3, #225	; 0xe1
30008450:	e3a00082 	mov	r0, #130	; 0x82
30008454:	e3a0106e 	mov	r1, #110	; 0x6e
30008458:	e59f20cc 	ldr	r2, [pc, #204]	; 3000852c <.text+0x852c>
3000845c:	e58d6000 	str	r6, [sp]
30008460:	ebfff247 	bl	30004d84 <PrintFbString8x16>
30008464:	e1a00007 	mov	r0, r7
30008468:	e1a01008 	mov	r1, r8
3000846c:	e3a0200a 	mov	r2, #10	; 0xa
30008470:	ebffe2a7 	bl	30000f14 <Convert>
30008474:	e3a03841 	mov	r3, #4259840	; 0x410000
30008478:	e2833c69 	add	r3, r3, #26880	; 0x6900
3000847c:	e3a00f4a 	mov	r0, #296	; 0x128
30008480:	e1a02007 	mov	r2, r7
30008484:	e2800002 	add	r0, r0, #2	; 0x2
30008488:	e28330e1 	add	r3, r3, #225	; 0xe1
3000848c:	e3a0106e 	mov	r1, #110	; 0x6e
30008490:	e58d6000 	str	r6, [sp]
30008494:	ebfff23a 	bl	30004d84 <PrintFbString8x16>
30008498:	e3a03841 	mov	r3, #4259840	; 0x410000
3000849c:	e2833c69 	add	r3, r3, #26880	; 0x6900
300084a0:	e3a00f4e 	mov	r0, #312	; 0x138
300084a4:	e28330e1 	add	r3, r3, #225	; 0xe1
300084a8:	e2800002 	add	r0, r0, #2	; 0x2
300084ac:	e3a0106e 	mov	r1, #110	; 0x6e
300084b0:	e59f2078 	ldr	r2, [pc, #120]	; 30008530 <.text+0x8530>
300084b4:	e58d6000 	str	r6, [sp]
300084b8:	ebfff231 	bl	30004d84 <PrintFbString8x16>
300084bc:	e1a00007 	mov	r0, r7
300084c0:	e1a01005 	mov	r1, r5
300084c4:	e3a0200a 	mov	r2, #10	; 0xa
300084c8:	ebffe291 	bl	30000f14 <Convert>
300084cc:	e3a03841 	mov	r3, #4259840	; 0x410000
300084d0:	e2833c69 	add	r3, r3, #26880	; 0x6900
300084d4:	e3a00d05 	mov	r0, #320	; 0x140
300084d8:	e28330e1 	add	r3, r3, #225	; 0xe1
300084dc:	e3a0106e 	mov	r1, #110	; 0x6e
300084e0:	e1a02007 	mov	r2, r7
300084e4:	e2800002 	add	r0, r0, #2	; 0x2
300084e8:	e58d6000 	str	r6, [sp]
300084ec:	ebfff224 	bl	30004d84 <PrintFbString8x16>
300084f0:	e3a00e5d 	mov	r0, #1488	; 0x5d0
300084f4:	e280000c 	add	r0, r0, #12	; 0xc
300084f8:	ebffe618 	bl	30001d60 <mDelay>
300084fc:	ebffe6e8 	bl	300020a4 <isClickReturn>
30008500:	e3500000 	cmp	r0, #0	; 0x0
30008504:	0affff90 	beq	3000834c <TestDs18b20+0xa8>
30008508:	ebffe9d9 	bl	30002c74 <MainPage>
3000850c:	e28dd018 	add	sp, sp, #24	; 0x18
30008510:	e8bd85f0 	ldmia	sp!, {r4, r5, r6, r7, r8, sl, pc}
	...
3000851c:	40c38800 	sbcmi	r8, r3, r0, lsl #16
30008520:	00000000 	andeq	r0, r0, r0
30008524:	3000f150 	andcc	pc, r0, r0, asr r1
30008528:	3000f044 	andcc	pc, r0, r4, asr #32
3000852c:	3000f160 	andcc	pc, r0, r0, ror #2
30008530:	3000ea98 	mulcc	r0, r8, sl
30008534:	3000f178 	andcc	pc, r0, r8, ror r1

30008538 <IrdaIrq>:
30008538:	e92d4070 	stmdb	sp!, {r4, r5, r6, lr}
3000853c:	e24dd008 	sub	sp, sp, #8	; 0x8
30008540:	ebffe60a 	bl	30001d70 <GetSystemTimeUs>
30008544:	e59f6048 	ldr	r6, [pc, #72]	; 30008594 <.text+0x8594>
30008548:	e1a03001 	mov	r3, r1
3000854c:	e1a02000 	mov	r2, r0
30008550:	e1a05001 	mov	r5, r1
30008554:	e1a04000 	mov	r4, r0
30008558:	e8960003 	ldmia	r6, {r0, r1}
3000855c:	ebffe624 	bl	30001df4 <DeltaTimeUs>
30008560:	e58d0004 	str	r0, [sp, #4]
30008564:	e3a02456 	mov	r2, #1442840576	; 0x56000000
30008568:	e5923054 	ldr	r3, [r2, #84]
3000856c:	e2133002 	ands	r3, r3, #2	; 0x2
30008570:	13a03001 	movne	r3, #1	; 0x1
30008574:	e2733001 	rsbs	r3, r3, #1	; 0x1
30008578:	33a03000 	movcc	r3, #0	; 0x0
3000857c:	e1a0000d 	mov	r0, sp
30008580:	e58d3000 	str	r3, [sp]
30008584:	ebfffcd1 	bl	300078d0 <PutIrEvent>
30008588:	e8860030 	stmia	r6, {r4, r5}
3000858c:	e28dd008 	add	sp, sp, #8	; 0x8
30008590:	e8bd8070 	ldmia	sp!, {r4, r5, r6, pc}
30008594:	30011650 	andcc	r1, r1, r0, asr r6

30008598 <InitIrda>:
30008598:	e3a0c456 	mov	ip, #1442840576	; 0x56000000
3000859c:	e59c3050 	ldr	r3, [ip, #80]
300085a0:	e3c3300c 	bic	r3, r3, #12	; 0xc
300085a4:	e58c3050 	str	r3, [ip, #80]
300085a8:	e59c2050 	ldr	r2, [ip, #80]
300085ac:	e3822008 	orr	r2, r2, #8	; 0x8
300085b0:	e58c2050 	str	r2, [ip, #80]
300085b4:	e59c3088 	ldr	r3, [ip, #136]
300085b8:	e59f100c 	ldr	r1, [pc, #12]	; 300085cc <.text+0x85cc>
300085bc:	e3833070 	orr	r3, r3, #112	; 0x70
300085c0:	e3a00001 	mov	r0, #1	; 0x1
300085c4:	e58c3088 	str	r3, [ip, #136]
300085c8:	eaffe565 	b	30001b64 <RegisterIrq>
300085cc:	30008538 	andcc	r8, r0, r8, lsr r5

300085d0 <TestIrdaRawdata>:
300085d0:	e92d41f0 	stmdb	sp!, {r4, r5, r6, r7, r8, lr}
300085d4:	e24dd008 	sub	sp, sp, #8	; 0x8
300085d8:	ebffffee 	bl	30008598 <InitIrda>
300085dc:	e3a07000 	mov	r7, #0	; 0x0
300085e0:	e3a06000 	mov	r6, #0	; 0x0
300085e4:	e1a0800d 	mov	r8, sp
300085e8:	e1a00008 	mov	r0, r8
300085ec:	ebfffccf 	bl	30007930 <GetIrEvent>
300085f0:	e3500000 	cmp	r0, #0	; 0x0
300085f4:	1afffffb 	bne	300085e8 <TestIrdaRawdata+0x18>
300085f8:	ebffe5dc 	bl	30001d70 <GetSystemTimeUs>
300085fc:	e1a05001 	mov	r5, r1
30008600:	e1a04000 	mov	r4, r0
30008604:	e1a03005 	mov	r3, r5
30008608:	e1a02004 	mov	r2, r4
3000860c:	e1a01007 	mov	r1, r7
30008610:	e1a00006 	mov	r0, r6
30008614:	ebffe5f6 	bl	30001df4 <DeltaTimeUs>
30008618:	e3a0393d 	mov	r3, #999424	; 0xf4000
3000861c:	e2833d09 	add	r3, r3, #576	; 0x240
30008620:	e1500003 	cmp	r0, r3
30008624:	e1a07005 	mov	r7, r5
30008628:	e1a06004 	mov	r6, r4
3000862c:	e59f003c 	ldr	r0, [pc, #60]	; 30008670 <.text+0x8670>
30008630:	8a00000c 	bhi	30008668 <TestIrdaRawdata+0x98>
30008634:	e59d2000 	ldr	r2, [sp]
30008638:	e59f3034 	ldr	r3, [pc, #52]	; 30008674 <.text+0x8674>
3000863c:	e3520000 	cmp	r2, #0	; 0x0
30008640:	e59f1030 	ldr	r1, [pc, #48]	; 30008678 <.text+0x8678>
30008644:	e59d2004 	ldr	r2, [sp, #4]
30008648:	01a01003 	moveq	r1, r3
3000864c:	e59f0028 	ldr	r0, [pc, #40]	; 3000867c <.text+0x867c>
30008650:	ebffe41f 	bl	300016d4 <printf>
30008654:	e1a00008 	mov	r0, r8
30008658:	ebfffcb4 	bl	30007930 <GetIrEvent>
3000865c:	e3500000 	cmp	r0, #0	; 0x0
30008660:	1affffe0 	bne	300085e8 <TestIrdaRawdata+0x18>
30008664:	eaffffe3 	b	300085f8 <TestIrdaRawdata+0x28>
30008668:	ebffe419 	bl	300016d4 <printf>
3000866c:	eafffff0 	b	30008634 <TestIrdaRawdata+0x64>
30008670:	3000efc4 	andcc	lr, r0, r4, asr #31
30008674:	3000f198 	mulcc	r0, r8, r1
30008678:	3000f19c 	mulcc	r0, ip, r1
3000867c:	3000f1a4 	andcc	pc, r0, r4, lsr #3

30008680 <DurationInMargin>:
30008680:	e2813f46 	add	r3, r1, #280	; 0x118
30008684:	e2411f46 	sub	r1, r1, #280	; 0x118
30008688:	e2411001 	sub	r1, r1, #1	; 0x1
3000868c:	e1510000 	cmp	r1, r0
30008690:	e2833001 	add	r3, r3, #1	; 0x1
30008694:	aa000002 	bge	300086a4 <DurationInMargin+0x24>
30008698:	e1530000 	cmp	r3, r0
3000869c:	e3a00001 	mov	r0, #1	; 0x1
300086a0:	c1a0f00e 	movgt	pc, lr
300086a4:	e3a00000 	mov	r0, #0	; 0x0
300086a8:	e1a0f00e 	mov	pc, lr

300086ac <ReadIrdaNec>:
300086ac:	e92d47f0 	stmdb	sp!, {r4, r5, r6, r7, r8, r9, sl, lr}
300086b0:	e24dd00c 	sub	sp, sp, #12	; 0xc
300086b4:	e1a0a000 	mov	sl, r0
300086b8:	e1a09001 	mov	r9, r1
300086bc:	e3a08000 	mov	r8, #0	; 0x0
300086c0:	e1a0500d 	mov	r5, sp
300086c4:	ebffe676 	bl	300020a4 <isClickReturn>
300086c8:	e3500000 	cmp	r0, #0	; 0x0
300086cc:	e1a00005 	mov	r0, r5
300086d0:	1a000065 	bne	3000886c <ReadIrdaNec+0x1c0>
300086d4:	ebfffc95 	bl	30007930 <GetIrEvent>
300086d8:	e3a01c23 	mov	r1, #8960	; 0x2300
300086dc:	e3500000 	cmp	r0, #0	; 0x0
300086e0:	e2811030 	add	r1, r1, #48	; 0x30
300086e4:	1afffff6 	bne	300086c4 <ReadIrdaNec+0x18>
300086e8:	e59d3000 	ldr	r3, [sp]
300086ec:	e3530000 	cmp	r3, #0	; 0x0
300086f0:	1a00005a 	bne	30008860 <ReadIrdaNec+0x1b4>
300086f4:	e59d0004 	ldr	r0, [sp, #4]
300086f8:	ebffffe0 	bl	30008680 <DurationInMargin>
300086fc:	e3a01c27 	mov	r1, #9984	; 0x2700
30008700:	e3500000 	cmp	r0, #0	; 0x0
30008704:	e2811010 	add	r1, r1, #16	; 0x10
30008708:	e1a00005 	mov	r0, r5
3000870c:	0a000053 	beq	30008860 <ReadIrdaNec+0x1b4>
30008710:	ebfffc9a 	bl	30007980 <GetIrEventTimeout>
30008714:	e2504000 	subs	r4, r0, #0	; 0x0
30008718:	1affffe9 	bne	300086c4 <ReadIrdaNec+0x18>
3000871c:	e59d6000 	ldr	r6, [sp]
30008720:	e3560001 	cmp	r6, #1	; 0x1
30008724:	1a000059 	bne	30008890 <ReadIrdaNec+0x1e4>
30008728:	e59d7004 	ldr	r7, [sp, #4]
3000872c:	e3a01d46 	mov	r1, #4480	; 0x1180
30008730:	e2811018 	add	r1, r1, #24	; 0x18
30008734:	e1a00007 	mov	r0, r7
30008738:	ebffffd0 	bl	30008680 <DurationInMargin>
3000873c:	e3500000 	cmp	r0, #0	; 0x0
30008740:	0a00004b 	beq	30008874 <ReadIrdaNec+0x1c8>
30008744:	e1a07004 	mov	r7, r4
30008748:	e3a01c27 	mov	r1, #9984	; 0x2700
3000874c:	e2811010 	add	r1, r1, #16	; 0x10
30008750:	e1a00005 	mov	r0, r5
30008754:	ebfffc89 	bl	30007980 <GetIrEventTimeout>
30008758:	e3a01e23 	mov	r1, #560	; 0x230
3000875c:	e3500000 	cmp	r0, #0	; 0x0
30008760:	e2811003 	add	r1, r1, #3	; 0x3
30008764:	1a000039 	bne	30008850 <ReadIrdaNec+0x1a4>
30008768:	e59d3000 	ldr	r3, [sp]
3000876c:	e3530000 	cmp	r3, #0	; 0x0
30008770:	1a00004b 	bne	300088a4 <ReadIrdaNec+0x1f8>
30008774:	e59d0004 	ldr	r0, [sp, #4]
30008778:	ebffffc0 	bl	30008680 <DurationInMargin>
3000877c:	e3a01c27 	mov	r1, #9984	; 0x2700
30008780:	e3500000 	cmp	r0, #0	; 0x0
30008784:	e2811010 	add	r1, r1, #16	; 0x10
30008788:	e1a00005 	mov	r0, r5
3000878c:	0a000044 	beq	300088a4 <ReadIrdaNec+0x1f8>
30008790:	ebfffc7a 	bl	30007980 <GetIrEventTimeout>
30008794:	e3a01e69 	mov	r1, #1680	; 0x690
30008798:	e3500000 	cmp	r0, #0	; 0x0
3000879c:	e2811009 	add	r1, r1, #9	; 0x9
300087a0:	1a000049 	bne	300088cc <ReadIrdaNec+0x220>
300087a4:	e59d6000 	ldr	r6, [sp]
300087a8:	e3560001 	cmp	r6, #1	; 0x1
300087ac:	1a000041 	bne	300088b8 <ReadIrdaNec+0x20c>
300087b0:	e59d4004 	ldr	r4, [sp, #4]
300087b4:	e1a00004 	mov	r0, r4
300087b8:	ebffffb0 	bl	30008680 <DurationInMargin>
300087bc:	e3a01e23 	mov	r1, #560	; 0x230
300087c0:	e3500000 	cmp	r0, #0	; 0x0
300087c4:	e2811003 	add	r1, r1, #3	; 0x3
300087c8:	e1a00004 	mov	r0, r4
300087cc:	11888716 	orrne	r8, r8, r6, lsl r7
300087d0:	1a000002 	bne	300087e0 <ReadIrdaNec+0x134>
300087d4:	ebffffa9 	bl	30008680 <DurationInMargin>
300087d8:	e3500000 	cmp	r0, #0	; 0x0
300087dc:	0a000035 	beq	300088b8 <ReadIrdaNec+0x20c>
300087e0:	e2877001 	add	r7, r7, #1	; 0x1
300087e4:	e357001f 	cmp	r7, #31	; 0x1f
300087e8:	daffffd6 	ble	30008748 <ReadIrdaNec+0x9c>
300087ec:	e1a03c28 	mov	r3, r8, lsr #24
300087f0:	e5cd300b 	strb	r3, [sp, #11]
300087f4:	e5dd200b 	ldrb	r2, [sp, #11]
300087f8:	e1a03428 	mov	r3, r8, lsr #8
300087fc:	e1e02002 	mvn	r2, r2
30008800:	e1a01828 	mov	r1, r8, lsr #16
30008804:	e5cd3009 	strb	r3, [sp, #9]
30008808:	e5cd100a 	strb	r1, [sp, #10]
3000880c:	e5cd200b 	strb	r2, [sp, #11]
30008810:	e5dd3009 	ldrb	r3, [sp, #9]
30008814:	e5dd100a 	ldrb	r1, [sp, #10]
30008818:	e5dd200b 	ldrb	r2, [sp, #11]
3000881c:	e5cd8008 	strb	r8, [sp, #8]
30008820:	e1510002 	cmp	r1, r2
30008824:	e1e03003 	mvn	r3, r3
30008828:	e5cd3009 	strb	r3, [sp, #9]
3000882c:	159f00ac 	ldrne	r0, [pc, #172]	; 300088e0 <.text+0x88e0>
30008830:	e5dd3008 	ldrb	r3, [sp, #8]
30008834:	159f10a8 	ldrne	r1, [pc, #168]	; 300088e4 <.text+0x88e4>
30008838:	13a0208a 	movne	r2, #138	; 0x8a
3000883c:	1a000006 	bne	3000885c <ReadIrdaNec+0x1b0>
30008840:	e3a00000 	mov	r0, #0	; 0x0
30008844:	e58a3000 	str	r3, [sl]
30008848:	e5891000 	str	r1, [r9]
3000884c:	ea000004 	b	30008864 <ReadIrdaNec+0x1b8>
30008850:	e59f0088 	ldr	r0, [pc, #136]	; 300088e0 <.text+0x88e0>
30008854:	e59f1088 	ldr	r1, [pc, #136]	; 300088e4 <.text+0x88e4>
30008858:	e3a02073 	mov	r2, #115	; 0x73
3000885c:	ebffe39c 	bl	300016d4 <printf>
30008860:	e3e00000 	mvn	r0, #0	; 0x0
30008864:	e28dd00c 	add	sp, sp, #12	; 0xc
30008868:	e8bd87f0 	ldmia	sp!, {r4, r5, r6, r7, r8, r9, sl, pc}
3000886c:	e3a00002 	mov	r0, #2	; 0x2
30008870:	eafffffb 	b	30008864 <ReadIrdaNec+0x1b8>
30008874:	e3a01d23 	mov	r1, #2240	; 0x8c0
30008878:	e1a00007 	mov	r0, r7
3000887c:	e281100c 	add	r1, r1, #12	; 0xc
30008880:	ebffff7e 	bl	30008680 <DurationInMargin>
30008884:	e3500000 	cmp	r0, #0	; 0x0
30008888:	11a00006 	movne	r0, r6
3000888c:	1afffff4 	bne	30008864 <ReadIrdaNec+0x1b8>
30008890:	e59f104c 	ldr	r1, [pc, #76]	; 300088e4 <.text+0x88e4>
30008894:	e3a0209a 	mov	r2, #154	; 0x9a
30008898:	e59f0040 	ldr	r0, [pc, #64]	; 300088e0 <.text+0x88e0>
3000889c:	ebffe38c 	bl	300016d4 <printf>
300088a0:	eaffffee 	b	30008860 <ReadIrdaNec+0x1b4>
300088a4:	e59f1038 	ldr	r1, [pc, #56]	; 300088e4 <.text+0x88e4>
300088a8:	e3a0206d 	mov	r2, #109	; 0x6d
300088ac:	e59f002c 	ldr	r0, [pc, #44]	; 300088e0 <.text+0x88e0>
300088b0:	ebffe387 	bl	300016d4 <printf>
300088b4:	eaffffe9 	b	30008860 <ReadIrdaNec+0x1b4>
300088b8:	e59f1024 	ldr	r1, [pc, #36]	; 300088e4 <.text+0x88e4>
300088bc:	e3a02061 	mov	r2, #97	; 0x61
300088c0:	e59f0018 	ldr	r0, [pc, #24]	; 300088e0 <.text+0x88e0>
300088c4:	ebffe382 	bl	300016d4 <printf>
300088c8:	eaffffe4 	b	30008860 <ReadIrdaNec+0x1b4>
300088cc:	e59f1010 	ldr	r1, [pc, #16]	; 300088e4 <.text+0x88e4>
300088d0:	e3a02067 	mov	r2, #103	; 0x67
300088d4:	e59f0004 	ldr	r0, [pc, #4]	; 300088e0 <.text+0x88e0>
300088d8:	ebffe37d 	bl	300016d4 <printf>
300088dc:	eaffffdf 	b	30008860 <ReadIrdaNec+0x1b4>
300088e0:	3000f1b0 	strcch	pc, [r0], -r0
300088e4:	3000e008 	andcc	lr, r0, r8

300088e8 <TestIrdaNec>:
300088e8:	e92d4070 	stmdb	sp!, {r4, r5, r6, lr}
300088ec:	e3a03000 	mov	r3, #0	; 0x0
300088f0:	e24dd018 	sub	sp, sp, #24	; 0x18
300088f4:	e1a06003 	mov	r6, r3
300088f8:	e58d3008 	str	r3, [sp, #8]
300088fc:	e58d3004 	str	r3, [sp, #4]
30008900:	ebffff24 	bl	30008598 <InitIrda>
30008904:	e3e004ff 	mvn	r0, #-16777216	; 0xff000000
30008908:	ebffef49 	bl	30004634 <ClearScreen>
3000890c:	e3a038e3 	mov	r3, #14876672	; 0xe30000
30008910:	e2833c17 	add	r3, r3, #5888	; 0x1700
30008914:	e283300d 	add	r3, r3, #13	; 0xd
30008918:	e3a0008c 	mov	r0, #140	; 0x8c
3000891c:	e3a01005 	mov	r1, #5	; 0x5
30008920:	e59f2360 	ldr	r2, [pc, #864]	; 30008c88 <.text+0x8c88>
30008924:	e58d6000 	str	r6, [sp]
30008928:	ebfff13c 	bl	30004e20 <PrintFbString16x32>
3000892c:	e3a03841 	mov	r3, #4259840	; 0x410000
30008930:	e2833c69 	add	r3, r3, #26880	; 0x6900
30008934:	e28330e1 	add	r3, r3, #225	; 0xe1
30008938:	e3a01078 	mov	r1, #120	; 0x78
3000893c:	e59f2348 	ldr	r2, [pc, #840]	; 30008c8c <.text+0x8c8c>
30008940:	e3a04001 	mov	r4, #1	; 0x1
30008944:	e3a00028 	mov	r0, #40	; 0x28
30008948:	e58d4000 	str	r4, [sp]
3000894c:	ebfff10c 	bl	30004d84 <PrintFbString8x16>
30008950:	e3a00d4e 	mov	r0, #4992	; 0x1380
30008954:	e2800008 	add	r0, r0, #8	; 0x8
30008958:	ebffe500 	bl	30001d60 <mDelay>
3000895c:	e3a00028 	mov	r0, #40	; 0x28
30008960:	e3a01078 	mov	r1, #120	; 0x78
30008964:	e59f2320 	ldr	r2, [pc, #800]	; 30008c8c <.text+0x8c8c>
30008968:	e3e034ff 	mvn	r3, #-16777216	; 0xff000000
3000896c:	e58d4000 	str	r4, [sp]
30008970:	ebfff103 	bl	30004d84 <PrintFbString8x16>
30008974:	ebffe7eb 	bl	30002928 <DisplayReturnButton>
30008978:	e28d500c 	add	r5, sp, #12	; 0xc
3000897c:	ebffe5c8 	bl	300020a4 <isClickReturn>
30008980:	e3500000 	cmp	r0, #0	; 0x0
30008984:	1a000008 	bne	300089ac <TestIrdaNec+0xc4>
30008988:	e28d0008 	add	r0, sp, #8	; 0x8
3000898c:	e28d1004 	add	r1, sp, #4	; 0x4
30008990:	ebffff45 	bl	300086ac <ReadIrdaNec>
30008994:	e2504000 	subs	r4, r0, #0	; 0x0
30008998:	0a000006 	beq	300089b8 <TestIrdaNec+0xd0>
3000899c:	e3540001 	cmp	r4, #1	; 0x1
300089a0:	0a000065 	beq	30008b3c <TestIrdaNec+0x254>
300089a4:	e3540002 	cmp	r4, #2	; 0x2
300089a8:	1afffff3 	bne	3000897c <TestIrdaNec+0x94>
300089ac:	ebffe8b0 	bl	30002c74 <MainPage>
300089b0:	e28dd018 	add	sp, sp, #24	; 0x18
300089b4:	e8bd8070 	ldmia	sp!, {r4, r5, r6, pc}
300089b8:	e59d1008 	ldr	r1, [sp, #8]
300089bc:	e59d2004 	ldr	r2, [sp, #4]
300089c0:	e59f02c8 	ldr	r0, [pc, #712]	; 30008c90 <.text+0x8c90>
300089c4:	ebffe342 	bl	300016d4 <printf>
300089c8:	e3a03841 	mov	r3, #4259840	; 0x410000
300089cc:	e2833c69 	add	r3, r3, #26880	; 0x6900
300089d0:	e28330e1 	add	r3, r3, #225	; 0xe1
300089d4:	e3a00032 	mov	r0, #50	; 0x32
300089d8:	e3a01046 	mov	r1, #70	; 0x46
300089dc:	e59f22b0 	ldr	r2, [pc, #688]	; 30008c94 <.text+0x8c94>
300089e0:	e58d4000 	str	r4, [sp]
300089e4:	ebfff0e6 	bl	30004d84 <PrintFbString8x16>
300089e8:	e1a00005 	mov	r0, r5
300089ec:	e59d1008 	ldr	r1, [sp, #8]
300089f0:	e3a02010 	mov	r2, #16	; 0x10
300089f4:	ebffe146 	bl	30000f14 <Convert>
300089f8:	e3a03841 	mov	r3, #4259840	; 0x410000
300089fc:	e2833c69 	add	r3, r3, #26880	; 0x6900
30008a00:	e28330e1 	add	r3, r3, #225	; 0xe1
30008a04:	e3a000aa 	mov	r0, #170	; 0xaa
30008a08:	e3a0105f 	mov	r1, #95	; 0x5f
30008a0c:	e59f2284 	ldr	r2, [pc, #644]	; 30008c98 <.text+0x8c98>
30008a10:	e58d4000 	str	r4, [sp]
30008a14:	ebfff0da 	bl	30004d84 <PrintFbString8x16>
30008a18:	e3a03841 	mov	r3, #4259840	; 0x410000
30008a1c:	e2833c69 	add	r3, r3, #26880	; 0x6900
30008a20:	e3a00f42 	mov	r0, #264	; 0x108
30008a24:	e28330e1 	add	r3, r3, #225	; 0xe1
30008a28:	e1a02005 	mov	r2, r5
30008a2c:	e2800002 	add	r0, r0, #2	; 0x2
30008a30:	e3a0105f 	mov	r1, #95	; 0x5f
30008a34:	e58d4000 	str	r4, [sp]
30008a38:	ebfff0d1 	bl	30004d84 <PrintFbString8x16>
30008a3c:	e1a00005 	mov	r0, r5
30008a40:	e59d1004 	ldr	r1, [sp, #4]
30008a44:	e3a02010 	mov	r2, #16	; 0x10
30008a48:	ebffe131 	bl	30000f14 <Convert>
30008a4c:	e3a03841 	mov	r3, #4259840	; 0x410000
30008a50:	e2833c69 	add	r3, r3, #26880	; 0x6900
30008a54:	e28330e1 	add	r3, r3, #225	; 0xe1
30008a58:	e3a000aa 	mov	r0, #170	; 0xaa
30008a5c:	e3a01078 	mov	r1, #120	; 0x78
30008a60:	e59f2234 	ldr	r2, [pc, #564]	; 30008c9c <.text+0x8c9c>
30008a64:	e58d4000 	str	r4, [sp]
30008a68:	ebfff0c5 	bl	30004d84 <PrintFbString8x16>
30008a6c:	e3a03841 	mov	r3, #4259840	; 0x410000
30008a70:	e2833c69 	add	r3, r3, #26880	; 0x6900
30008a74:	e1a02005 	mov	r2, r5
30008a78:	e28330e1 	add	r3, r3, #225	; 0xe1
30008a7c:	e3a01078 	mov	r1, #120	; 0x78
30008a80:	e3a000f2 	mov	r0, #242	; 0xf2
30008a84:	e58d4000 	str	r4, [sp]
30008a88:	ebfff0bd 	bl	30004d84 <PrintFbString8x16>
30008a8c:	e3a0093d 	mov	r0, #999424	; 0xf4000
30008a90:	e2800d09 	add	r0, r0, #576	; 0x240
30008a94:	ebffe4d8 	bl	30001dfc <Delay>
30008a98:	e3e034ff 	mvn	r3, #-16777216	; 0xff000000
30008a9c:	e3a00032 	mov	r0, #50	; 0x32
30008aa0:	e3a01046 	mov	r1, #70	; 0x46
30008aa4:	e59f21e8 	ldr	r2, [pc, #488]	; 30008c94 <.text+0x8c94>
30008aa8:	e58d4000 	str	r4, [sp]
30008aac:	ebfff0b4 	bl	30004d84 <PrintFbString8x16>
30008ab0:	e1a00005 	mov	r0, r5
30008ab4:	e59d1008 	ldr	r1, [sp, #8]
30008ab8:	e3a02010 	mov	r2, #16	; 0x10
30008abc:	ebffe114 	bl	30000f14 <Convert>
30008ac0:	e3a000aa 	mov	r0, #170	; 0xaa
30008ac4:	e3a0105f 	mov	r1, #95	; 0x5f
30008ac8:	e59f21c8 	ldr	r2, [pc, #456]	; 30008c98 <.text+0x8c98>
30008acc:	e3e034ff 	mvn	r3, #-16777216	; 0xff000000
30008ad0:	e58d4000 	str	r4, [sp]
30008ad4:	ebfff0aa 	bl	30004d84 <PrintFbString8x16>
30008ad8:	e3a00f42 	mov	r0, #264	; 0x108
30008adc:	e1a02005 	mov	r2, r5
30008ae0:	e3e034ff 	mvn	r3, #-16777216	; 0xff000000
30008ae4:	e2800002 	add	r0, r0, #2	; 0x2
30008ae8:	e3a0105f 	mov	r1, #95	; 0x5f
30008aec:	e58d4000 	str	r4, [sp]
30008af0:	ebfff0a3 	bl	30004d84 <PrintFbString8x16>
30008af4:	e1a00005 	mov	r0, r5
30008af8:	e59d1004 	ldr	r1, [sp, #4]
30008afc:	e3a02010 	mov	r2, #16	; 0x10
30008b00:	ebffe103 	bl	30000f14 <Convert>
30008b04:	e3a000aa 	mov	r0, #170	; 0xaa
30008b08:	e3a01078 	mov	r1, #120	; 0x78
30008b0c:	e59f2188 	ldr	r2, [pc, #392]	; 30008c9c <.text+0x8c9c>
30008b10:	e3e034ff 	mvn	r3, #-16777216	; 0xff000000
30008b14:	e58d4000 	str	r4, [sp]
30008b18:	ebfff099 	bl	30004d84 <PrintFbString8x16>
30008b1c:	e3a000f2 	mov	r0, #242	; 0xf2
30008b20:	e3a01078 	mov	r1, #120	; 0x78
30008b24:	e1a02005 	mov	r2, r5
30008b28:	e3e034ff 	mvn	r3, #-16777216	; 0xff000000
30008b2c:	e58d4000 	str	r4, [sp]
30008b30:	e3a06001 	mov	r6, #1	; 0x1
30008b34:	ebfff092 	bl	30004d84 <PrintFbString8x16>
30008b38:	eaffff8f 	b	3000897c <TestIrdaNec+0x94>
30008b3c:	e2866001 	add	r6, r6, #1	; 0x1
30008b40:	e59f0158 	ldr	r0, [pc, #344]	; 30008ca0 <.text+0x8ca0>
30008b44:	ebffe2e2 	bl	300016d4 <printf>
30008b48:	e1a00005 	mov	r0, r5
30008b4c:	e1a01006 	mov	r1, r6
30008b50:	e3a0200a 	mov	r2, #10	; 0xa
30008b54:	ebffe0ee 	bl	30000f14 <Convert>
30008b58:	e3a03841 	mov	r3, #4259840	; 0x410000
30008b5c:	e2833c69 	add	r3, r3, #26880	; 0x6900
30008b60:	e1a02005 	mov	r2, r5
30008b64:	e28330e1 	add	r3, r3, #225	; 0xe1
30008b68:	e3a00096 	mov	r0, #150	; 0x96
30008b6c:	e3a01078 	mov	r1, #120	; 0x78
30008b70:	e58d4000 	str	r4, [sp]
30008b74:	ebfff082 	bl	30004d84 <PrintFbString8x16>
30008b78:	e3a03841 	mov	r3, #4259840	; 0x410000
30008b7c:	e2833c69 	add	r3, r3, #26880	; 0x6900
30008b80:	e28330e1 	add	r3, r3, #225	; 0xe1
30008b84:	e3a0009e 	mov	r0, #158	; 0x9e
30008b88:	e3a01078 	mov	r1, #120	; 0x78
30008b8c:	e59f2110 	ldr	r2, [pc, #272]	; 30008ca4 <.text+0x8ca4>
30008b90:	e58d4000 	str	r4, [sp]
30008b94:	ebfff07a 	bl	30004d84 <PrintFbString8x16>
30008b98:	e1a00005 	mov	r0, r5
30008b9c:	e59d1004 	ldr	r1, [sp, #4]
30008ba0:	e3a02010 	mov	r2, #16	; 0x10
30008ba4:	ebffe0da 	bl	30000f14 <Convert>
30008ba8:	e3a03841 	mov	r3, #4259840	; 0x410000
30008bac:	e2833c69 	add	r3, r3, #26880	; 0x6900
30008bb0:	e3a00f4b 	mov	r0, #300	; 0x12c
30008bb4:	e1a02005 	mov	r2, r5
30008bb8:	e2800002 	add	r0, r0, #2	; 0x2
30008bbc:	e28330e1 	add	r3, r3, #225	; 0xe1
30008bc0:	e3a01078 	mov	r1, #120	; 0x78
30008bc4:	e58d4000 	str	r4, [sp]
30008bc8:	ebfff06d 	bl	30004d84 <PrintFbString8x16>
30008bcc:	e3a03841 	mov	r3, #4259840	; 0x410000
30008bd0:	e2833c69 	add	r3, r3, #26880	; 0x6900
30008bd4:	e3a00f4f 	mov	r0, #316	; 0x13c
30008bd8:	e28330e1 	add	r3, r3, #225	; 0xe1
30008bdc:	e3a01078 	mov	r1, #120	; 0x78
30008be0:	e59f20c0 	ldr	r2, [pc, #192]	; 30008ca8 <.text+0x8ca8>
30008be4:	e2800002 	add	r0, r0, #2	; 0x2
30008be8:	e58d4000 	str	r4, [sp]
30008bec:	ebfff064 	bl	30004d84 <PrintFbString8x16>
30008bf0:	e3a00a61 	mov	r0, #397312	; 0x61000
30008bf4:	e2800d2a 	add	r0, r0, #2688	; 0xa80
30008bf8:	ebffe47f 	bl	30001dfc <Delay>
30008bfc:	e1a00005 	mov	r0, r5
30008c00:	e1a01006 	mov	r1, r6
30008c04:	e3a0200a 	mov	r2, #10	; 0xa
30008c08:	ebffe0c1 	bl	30000f14 <Convert>
30008c0c:	e1a02005 	mov	r2, r5
30008c10:	e3a00096 	mov	r0, #150	; 0x96
30008c14:	e3a01078 	mov	r1, #120	; 0x78
30008c18:	e3e034ff 	mvn	r3, #-16777216	; 0xff000000
30008c1c:	e58d4000 	str	r4, [sp]
30008c20:	ebfff057 	bl	30004d84 <PrintFbString8x16>
30008c24:	e3e034ff 	mvn	r3, #-16777216	; 0xff000000
30008c28:	e3a0009e 	mov	r0, #158	; 0x9e
30008c2c:	e3a01078 	mov	r1, #120	; 0x78
30008c30:	e59f206c 	ldr	r2, [pc, #108]	; 30008ca4 <.text+0x8ca4>
30008c34:	e58d4000 	str	r4, [sp]
30008c38:	ebfff051 	bl	30004d84 <PrintFbString8x16>
30008c3c:	e1a00005 	mov	r0, r5
30008c40:	e59d1004 	ldr	r1, [sp, #4]
30008c44:	e3a02010 	mov	r2, #16	; 0x10
30008c48:	ebffe0b1 	bl	30000f14 <Convert>
30008c4c:	e3a00f4b 	mov	r0, #300	; 0x12c
30008c50:	e1a02005 	mov	r2, r5
30008c54:	e2800002 	add	r0, r0, #2	; 0x2
30008c58:	e3a01078 	mov	r1, #120	; 0x78
30008c5c:	e3e034ff 	mvn	r3, #-16777216	; 0xff000000
30008c60:	e58d4000 	str	r4, [sp]
30008c64:	ebfff046 	bl	30004d84 <PrintFbString8x16>
30008c68:	e3a00f4f 	mov	r0, #316	; 0x13c
30008c6c:	e2800002 	add	r0, r0, #2	; 0x2
30008c70:	e3a01078 	mov	r1, #120	; 0x78
30008c74:	e59f202c 	ldr	r2, [pc, #44]	; 30008ca8 <.text+0x8ca8>
30008c78:	e3e034ff 	mvn	r3, #-16777216	; 0xff000000
30008c7c:	e58d4000 	str	r4, [sp]
30008c80:	ebfff03f 	bl	30004d84 <PrintFbString8x16>
30008c84:	eaffff3c 	b	3000897c <TestIrdaNec+0x94>
30008c88:	3000f1b8 	strcch	pc, [r0], -r8
30008c8c:	3000f044 	andcc	pc, r0, r4, asr #32
30008c90:	3000f1c8 	andcc	pc, r0, r8, asr #3
30008c94:	3000f1f8 	strccd	pc, [r0], -r8
30008c98:	3000f208 	andcc	pc, r0, r8, lsl #4
30008c9c:	3000f218 	andcc	pc, r0, r8, lsl r2
30008ca0:	3000f224 	andcc	pc, r0, r4, lsr #4
30008ca4:	3000f23c 	andcc	pc, r0, ip, lsr r2
30008ca8:	3000f250 	andcc	pc, r0, r0, asr r2

30008cac <TestPhotoresistor>:
30008cac:	e92d4ff0 	stmdb	sp!, {r4, r5, r6, r7, r8, r9, sl, fp, lr}
30008cb0:	e3e004ff 	mvn	r0, #-16777216	; 0xff000000
30008cb4:	e24dd010 	sub	sp, sp, #16	; 0x10
30008cb8:	ebffee5d 	bl	30004634 <ClearScreen>
30008cbc:	e3a038e3 	mov	r3, #14876672	; 0xe30000
30008cc0:	e2833c17 	add	r3, r3, #5888	; 0x1700
30008cc4:	e283300d 	add	r3, r3, #13	; 0xd
30008cc8:	e3a05000 	mov	r5, #0	; 0x0
30008ccc:	e3a00078 	mov	r0, #120	; 0x78
30008cd0:	e3a01005 	mov	r1, #5	; 0x5
30008cd4:	e59f23b8 	ldr	r2, [pc, #952]	; 30009094 <.text+0x9094>
30008cd8:	e58d5000 	str	r5, [sp]
30008cdc:	ebfff04f 	bl	30004e20 <PrintFbString16x32>
30008ce0:	e3a03841 	mov	r3, #4259840	; 0x410000
30008ce4:	e2833c69 	add	r3, r3, #26880	; 0x6900
30008ce8:	e28330e1 	add	r3, r3, #225	; 0xe1
30008cec:	e3a01078 	mov	r1, #120	; 0x78
30008cf0:	e59f23a0 	ldr	r2, [pc, #928]	; 30009098 <.text+0x9098>
30008cf4:	e3a04001 	mov	r4, #1	; 0x1
30008cf8:	e3a00028 	mov	r0, #40	; 0x28
30008cfc:	e58d4000 	str	r4, [sp]
30008d00:	ebfff01f 	bl	30004d84 <PrintFbString8x16>
30008d04:	e3a00d4e 	mov	r0, #4992	; 0x1380
30008d08:	e2800008 	add	r0, r0, #8	; 0x8
30008d0c:	ebffe413 	bl	30001d60 <mDelay>
30008d10:	e3a00028 	mov	r0, #40	; 0x28
30008d14:	e3a01078 	mov	r1, #120	; 0x78
30008d18:	e59f2378 	ldr	r2, [pc, #888]	; 30009098 <.text+0x9098>
30008d1c:	e3e034ff 	mvn	r3, #-16777216	; 0xff000000
30008d20:	e58d4000 	str	r4, [sp]
30008d24:	ebfff016 	bl	30004d84 <PrintFbString8x16>
30008d28:	ebffe6fe 	bl	30002928 <DisplayReturnButton>
30008d2c:	e3a00028 	mov	r0, #40	; 0x28
30008d30:	e3a010f0 	mov	r1, #240	; 0xf0
30008d34:	e59f2360 	ldr	r2, [pc, #864]	; 3000909c <.text+0x909c>
30008d38:	e3a038ff 	mov	r3, #16711680	; 0xff0000
30008d3c:	e58d5000 	str	r5, [sp]
30008d40:	ebfff00f 	bl	30004d84 <PrintFbString8x16>
30008d44:	e59fb354 	ldr	fp, [pc, #852]	; 300090a0 <.text+0x90a0>
30008d48:	e28d9004 	add	r9, sp, #4	; 0x4
30008d4c:	ea0000c2 	b	3000905c <TestPhotoresistor+0x3b0>
30008d50:	e3a00001 	mov	r0, #1	; 0x1
30008d54:	ebfffac6 	bl	30007874 <ReadADC>
30008d58:	eb00019a 	bl	300093c8 <__floatsidf>
30008d5c:	e28f2fc6 	add	r2, pc, #792	; 0x318
30008d60:	e892000c 	ldmia	r2, {r2, r3}
30008d64:	eb00027a 	bl	30009754 <__divdf3>
30008d68:	e28f2fc5 	add	r2, pc, #788	; 0x314
30008d6c:	e892000c 	ldmia	r2, {r2, r3}
30008d70:	eb0001b2 	bl	30009440 <__muldf3>
30008d74:	e1a05001 	mov	r5, r1
30008d78:	e1a04000 	mov	r4, r0
30008d7c:	eb00030f 	bl	300099c0 <__fixdfsi>
30008d80:	e1a06000 	mov	r6, r0
30008d84:	eb00018f 	bl	300093c8 <__floatsidf>
30008d88:	e1a03001 	mov	r3, r1
30008d8c:	e1a02000 	mov	r2, r0
30008d90:	e1a01005 	mov	r1, r5
30008d94:	e1a00004 	mov	r0, r4
30008d98:	eb0000c6 	bl	300090b8 <__subdf3>
30008d9c:	e28f2fba 	add	r2, pc, #744	; 0x2e8
30008da0:	e892000c 	ldmia	r2, {r2, r3}
30008da4:	eb0001a5 	bl	30009440 <__muldf3>
30008da8:	eb000304 	bl	300099c0 <__fixdfsi>
30008dac:	e1a08000 	mov	r8, r0
30008db0:	e1a0000a 	mov	r0, sl
30008db4:	ebfffaae 	bl	30007874 <ReadADC>
30008db8:	eb000182 	bl	300093c8 <__floatsidf>
30008dbc:	e28f2fae 	add	r2, pc, #696	; 0x2b8
30008dc0:	e892000c 	ldmia	r2, {r2, r3}
30008dc4:	eb000262 	bl	30009754 <__divdf3>
30008dc8:	e28f2fad 	add	r2, pc, #692	; 0x2b4
30008dcc:	e892000c 	ldmia	r2, {r2, r3}
30008dd0:	eb00019a 	bl	30009440 <__muldf3>
30008dd4:	e1a05001 	mov	r5, r1
30008dd8:	e1a04000 	mov	r4, r0
30008ddc:	eb0002f7 	bl	300099c0 <__fixdfsi>
30008de0:	e1a07000 	mov	r7, r0
30008de4:	eb000177 	bl	300093c8 <__floatsidf>
30008de8:	e1a03001 	mov	r3, r1
30008dec:	e1a02000 	mov	r2, r0
30008df0:	e1a01005 	mov	r1, r5
30008df4:	e1a00004 	mov	r0, r4
30008df8:	eb0000ae 	bl	300090b8 <__subdf3>
30008dfc:	e28f2fa2 	add	r2, pc, #648	; 0x288
30008e00:	e892000c 	ldmia	r2, {r2, r3}
30008e04:	eb00018d 	bl	30009440 <__muldf3>
30008e08:	eb0002ec 	bl	300099c0 <__fixdfsi>
30008e0c:	e1a01006 	mov	r1, r6
30008e10:	e1a04000 	mov	r4, r0
30008e14:	e1a02008 	mov	r2, r8
30008e18:	e1a03007 	mov	r3, r7
30008e1c:	e59f0280 	ldr	r0, [pc, #640]	; 300090a4 <.text+0x90a4>
30008e20:	e58d4000 	str	r4, [sp]
30008e24:	ebffe22a 	bl	300016d4 <printf>
30008e28:	e3a03841 	mov	r3, #4259840	; 0x410000
30008e2c:	e2833c69 	add	r3, r3, #26880	; 0x6900
30008e30:	e28330e1 	add	r3, r3, #225	; 0xe1
30008e34:	e3a0005a 	mov	r0, #90	; 0x5a
30008e38:	e3a01064 	mov	r1, #100	; 0x64
30008e3c:	e59f2264 	ldr	r2, [pc, #612]	; 300090a8 <.text+0x90a8>
30008e40:	e58da000 	str	sl, [sp]
30008e44:	ebffefce 	bl	30004d84 <PrintFbString8x16>
30008e48:	e1a00009 	mov	r0, r9
30008e4c:	e1a01006 	mov	r1, r6
30008e50:	e3a0200a 	mov	r2, #10	; 0xa
30008e54:	ebffe02e 	bl	30000f14 <Convert>
30008e58:	e3a03841 	mov	r3, #4259840	; 0x410000
30008e5c:	e2833c69 	add	r3, r3, #26880	; 0x6900
30008e60:	e28330e1 	add	r3, r3, #225	; 0xe1
30008e64:	e1a02009 	mov	r2, r9
30008e68:	e3a000f2 	mov	r0, #242	; 0xf2
30008e6c:	e3a01064 	mov	r1, #100	; 0x64
30008e70:	e58da000 	str	sl, [sp]
30008e74:	ebffefc2 	bl	30004d84 <PrintFbString8x16>
30008e78:	e3a03841 	mov	r3, #4259840	; 0x410000
30008e7c:	e2833c69 	add	r3, r3, #26880	; 0x6900
30008e80:	e28330e1 	add	r3, r3, #225	; 0xe1
30008e84:	e3a000fa 	mov	r0, #250	; 0xfa
30008e88:	e3a01064 	mov	r1, #100	; 0x64
30008e8c:	e59f2218 	ldr	r2, [pc, #536]	; 300090ac <.text+0x90ac>
30008e90:	e58da000 	str	sl, [sp]
30008e94:	ebffefba 	bl	30004d84 <PrintFbString8x16>
30008e98:	e1a00009 	mov	r0, r9
30008e9c:	e1a01008 	mov	r1, r8
30008ea0:	e3a0200a 	mov	r2, #10	; 0xa
30008ea4:	ebffe01a 	bl	30000f14 <Convert>
30008ea8:	e3a03841 	mov	r3, #4259840	; 0x410000
30008eac:	e2833c69 	add	r3, r3, #26880	; 0x6900
30008eb0:	e3a00c01 	mov	r0, #256	; 0x100
30008eb4:	e2800002 	add	r0, r0, #2	; 0x2
30008eb8:	e28330e1 	add	r3, r3, #225	; 0xe1
30008ebc:	e1a02009 	mov	r2, r9
30008ec0:	e3a01064 	mov	r1, #100	; 0x64
30008ec4:	e58da000 	str	sl, [sp]
30008ec8:	ebffefad 	bl	30004d84 <PrintFbString8x16>
30008ecc:	e3a03841 	mov	r3, #4259840	; 0x410000
30008ed0:	e2833c69 	add	r3, r3, #26880	; 0x6900
30008ed4:	e3a00f46 	mov	r0, #280	; 0x118
30008ed8:	e2800002 	add	r0, r0, #2	; 0x2
30008edc:	e28330e1 	add	r3, r3, #225	; 0xe1
30008ee0:	e3a01064 	mov	r1, #100	; 0x64
30008ee4:	e59f21c4 	ldr	r2, [pc, #452]	; 300090b0 <.text+0x90b0>
30008ee8:	e58da000 	str	sl, [sp]
30008eec:	ebffefa4 	bl	30004d84 <PrintFbString8x16>
30008ef0:	e3a03841 	mov	r3, #4259840	; 0x410000
30008ef4:	e2833c69 	add	r3, r3, #26880	; 0x6900
30008ef8:	e28330e1 	add	r3, r3, #225	; 0xe1
30008efc:	e3a00078 	mov	r0, #120	; 0x78
30008f00:	e3a01082 	mov	r1, #130	; 0x82
30008f04:	e59f21a8 	ldr	r2, [pc, #424]	; 300090b4 <.text+0x90b4>
30008f08:	e58da000 	str	sl, [sp]
30008f0c:	ebffef9c 	bl	30004d84 <PrintFbString8x16>
30008f10:	e1a00009 	mov	r0, r9
30008f14:	e1a01007 	mov	r1, r7
30008f18:	e3a0200a 	mov	r2, #10	; 0xa
30008f1c:	ebffdffc 	bl	30000f14 <Convert>
30008f20:	e3a03841 	mov	r3, #4259840	; 0x410000
30008f24:	e2833c69 	add	r3, r3, #26880	; 0x6900
30008f28:	e28330e1 	add	r3, r3, #225	; 0xe1
30008f2c:	e1a02009 	mov	r2, r9
30008f30:	e3a00e12 	mov	r0, #288	; 0x120
30008f34:	e3a01082 	mov	r1, #130	; 0x82
30008f38:	e58da000 	str	sl, [sp]
30008f3c:	ebffef90 	bl	30004d84 <PrintFbString8x16>
30008f40:	e3a03841 	mov	r3, #4259840	; 0x410000
30008f44:	e2833c69 	add	r3, r3, #26880	; 0x6900
30008f48:	e28330e1 	add	r3, r3, #225	; 0xe1
30008f4c:	e3a00f4a 	mov	r0, #296	; 0x128
30008f50:	e3a01082 	mov	r1, #130	; 0x82
30008f54:	e59f2150 	ldr	r2, [pc, #336]	; 300090ac <.text+0x90ac>
30008f58:	e58da000 	str	sl, [sp]
30008f5c:	ebffef88 	bl	30004d84 <PrintFbString8x16>
30008f60:	e1a00009 	mov	r0, r9
30008f64:	e1a01004 	mov	r1, r4
30008f68:	e3a0200a 	mov	r2, #10	; 0xa
30008f6c:	ebffdfe8 	bl	30000f14 <Convert>
30008f70:	e3a03841 	mov	r3, #4259840	; 0x410000
30008f74:	e2833c69 	add	r3, r3, #26880	; 0x6900
30008f78:	e28330e1 	add	r3, r3, #225	; 0xe1
30008f7c:	e1a02009 	mov	r2, r9
30008f80:	e3a00e13 	mov	r0, #304	; 0x130
30008f84:	e3a01082 	mov	r1, #130	; 0x82
30008f88:	e58da000 	str	sl, [sp]
30008f8c:	ebffef7c 	bl	30004d84 <PrintFbString8x16>
30008f90:	e3a03841 	mov	r3, #4259840	; 0x410000
30008f94:	e2833c69 	add	r3, r3, #26880	; 0x6900
30008f98:	e28330e1 	add	r3, r3, #225	; 0xe1
30008f9c:	e3a01082 	mov	r1, #130	; 0x82
30008fa0:	e59f2108 	ldr	r2, [pc, #264]	; 300090b0 <.text+0x90b0>
30008fa4:	e3a00f52 	mov	r0, #328	; 0x148
30008fa8:	e58da000 	str	sl, [sp]
30008fac:	ebffef74 	bl	30004d84 <PrintFbString8x16>
30008fb0:	e3a00ffa 	mov	r0, #1000	; 0x3e8
30008fb4:	ebffe369 	bl	30001d60 <mDelay>
30008fb8:	e1a00009 	mov	r0, r9
30008fbc:	e1a01006 	mov	r1, r6
30008fc0:	e3a0200a 	mov	r2, #10	; 0xa
30008fc4:	ebffdfd2 	bl	30000f14 <Convert>
30008fc8:	e3e034ff 	mvn	r3, #-16777216	; 0xff000000
30008fcc:	e1a02009 	mov	r2, r9
30008fd0:	e3a000f2 	mov	r0, #242	; 0xf2
30008fd4:	e3a01064 	mov	r1, #100	; 0x64
30008fd8:	e58da000 	str	sl, [sp]
30008fdc:	ebffef68 	bl	30004d84 <PrintFbString8x16>
30008fe0:	e1a00009 	mov	r0, r9
30008fe4:	e1a01008 	mov	r1, r8
30008fe8:	e3a0200a 	mov	r2, #10	; 0xa
30008fec:	ebffdfc8 	bl	30000f14 <Convert>
30008ff0:	e3a00c01 	mov	r0, #256	; 0x100
30008ff4:	e3e034ff 	mvn	r3, #-16777216	; 0xff000000
30008ff8:	e2800002 	add	r0, r0, #2	; 0x2
30008ffc:	e1a02009 	mov	r2, r9
30009000:	e3a01064 	mov	r1, #100	; 0x64
30009004:	e58da000 	str	sl, [sp]
30009008:	ebffef5d 	bl	30004d84 <PrintFbString8x16>
3000900c:	e1a00009 	mov	r0, r9
30009010:	e1a01007 	mov	r1, r7
30009014:	e3a0200a 	mov	r2, #10	; 0xa
30009018:	ebffdfbd 	bl	30000f14 <Convert>
3000901c:	e3e034ff 	mvn	r3, #-16777216	; 0xff000000
30009020:	e1a02009 	mov	r2, r9
30009024:	e3a00e12 	mov	r0, #288	; 0x120
30009028:	e3a01082 	mov	r1, #130	; 0x82
3000902c:	e58da000 	str	sl, [sp]
30009030:	ebffef53 	bl	30004d84 <PrintFbString8x16>
30009034:	e1a00009 	mov	r0, r9
30009038:	e1a01004 	mov	r1, r4
3000903c:	e3a0200a 	mov	r2, #10	; 0xa
30009040:	ebffdfb3 	bl	30000f14 <Convert>
30009044:	e3a00e13 	mov	r0, #304	; 0x130
30009048:	e3a01082 	mov	r1, #130	; 0x82
3000904c:	e1a02009 	mov	r2, r9
30009050:	e3e034ff 	mvn	r3, #-16777216	; 0xff000000
30009054:	e58da000 	str	sl, [sp]
30009058:	ebffef49 	bl	30004d84 <PrintFbString8x16>
3000905c:	e59ba000 	ldr	sl, [fp]
30009060:	e35a0000 	cmp	sl, #0	; 0x0
30009064:	0affff39 	beq	30008d50 <TestPhotoresistor+0xa4>
30009068:	ebffe701 	bl	30002c74 <MainPage>
3000906c:	e3a03000 	mov	r3, #0	; 0x0
30009070:	e58b3000 	str	r3, [fp]
30009074:	e28dd010 	add	sp, sp, #16	; 0x10
30009078:	e8bd8ff0 	ldmia	sp!, {r4, r5, r6, r7, r8, r9, sl, fp, pc}
3000907c:	408ff800 	addmi	pc, pc, r0, lsl #16
30009080:	00000000 	andeq	r0, r0, r0
30009084:	400a6666 	andmi	r6, sl, r6, ror #12
30009088:	66666666 	strvsbt	r6, [r6], -r6, ror #12
3000908c:	408f4000 	addmi	r4, pc, r0
30009090:	00000000 	andeq	r0, r0, r0
30009094:	3000f258 	andcc	pc, r0, r8, asr r2
30009098:	3000f044 	andcc	pc, r0, r4, asr #32
3000909c:	3000f26c 	andcc	pc, r0, ip, ror #4
300090a0:	3000f610 	andcc	pc, r0, r0, lsl r6
300090a4:	3000f2d8 	ldrccd	pc, [r0], -r8
300090a8:	3000f314 	andcc	pc, r0, r4, lsl r3
300090ac:	3000ea98 	mulcc	r0, r8, sl
300090b0:	3000f328 	andcc	pc, r0, r8, lsr #6
300090b4:	3000f32c 	andcc	pc, r0, ip, lsr #6

300090b8 <__subdf3>:
300090b8:	e2222102 	eor	r2, r2, #-2147483648	; 0x80000000

300090bc <__adddf3>:
300090bc:	e1310003 	teq	r1, r3
300090c0:	0020c002 	eoreq	ip, r0, r2
300090c4:	033c0102 	teqeq	ip, #-2147483648	; 0x80000000
300090c8:	0a00009e 	beq	30009348 <__adddf3+0x28c>
300090cc:	e191c080 	orrs	ip, r1, r0, lsl #1
300090d0:	01a01003 	moveq	r1, r3
300090d4:	01a00002 	moveq	r0, r2
300090d8:	1193c082 	orrnes	ip, r3, r2, lsl #1
300090dc:	01a0f00e 	moveq	pc, lr
300090e0:	e92d4030 	stmdb	sp!, {r4, r5, lr}
300090e4:	e3a0c47f 	mov	ip, #2130706432	; 0x7f000000
300090e8:	e38cc60f 	orr	ip, ip, #15728640	; 0xf00000
300090ec:	e000400c 	and	r4, r0, ip
300090f0:	e002500c 	and	r5, r2, ip
300090f4:	e134000c 	teq	r4, ip
300090f8:	1135000c 	teqne	r5, ip
300090fc:	0a00009c 	beq	30009374 <__adddf3+0x2b8>
30009100:	e0555004 	subs	r5, r5, r4
30009104:	b2655000 	rsblt	r5, r5, #0	; 0x0
30009108:	da000006 	ble	30009128 <__adddf3+0x6c>
3000910c:	e0844005 	add	r4, r4, r5
30009110:	e0213003 	eor	r3, r1, r3
30009114:	e0202002 	eor	r2, r0, r2
30009118:	e0231001 	eor	r1, r3, r1
3000911c:	e0220000 	eor	r0, r2, r0
30009120:	e0213003 	eor	r3, r1, r3
30009124:	e0202002 	eor	r2, r0, r2
30009128:	e3550636 	cmp	r5, #56623104	; 0x3600000
3000912c:	88bd8030 	ldmhiia	sp!, {r4, r5, pc}
30009130:	e3100102 	tst	r0, #-2147483648	; 0x80000000
30009134:	e1c0008c 	bic	r0, r0, ip, lsl #1
30009138:	e3800601 	orr	r0, r0, #1048576	; 0x100000
3000913c:	0a000001 	beq	30009148 <__adddf3+0x8c>
30009140:	e2711000 	rsbs	r1, r1, #0	; 0x0
30009144:	e2e00000 	rsc	r0, r0, #0	; 0x0
30009148:	e3120102 	tst	r2, #-2147483648	; 0x80000000
3000914c:	e1c2208c 	bic	r2, r2, ip, lsl #1
30009150:	e3822601 	orr	r2, r2, #1048576	; 0x100000
30009154:	0a000001 	beq	30009160 <__adddf3+0xa4>
30009158:	e2733000 	rsbs	r3, r3, #0	; 0x0
3000915c:	e2e22000 	rsc	r2, r2, #0	; 0x0
30009160:	e1340005 	teq	r4, r5
30009164:	0a000071 	beq	30009330 <__adddf3+0x274>
30009168:	e3a0c000 	mov	ip, #0	; 0x0
3000916c:	e1b05a25 	movs	r5, r5, lsr #20
30009170:	0a000013 	beq	300091c4 <__adddf3+0x108>
30009174:	e3340601 	teq	r4, #1048576	; 0x100000
30009178:	0a000004 	beq	30009190 <__adddf3+0xd4>
3000917c:	e1b01081 	movs	r1, r1, lsl #1
30009180:	e0ac0080 	adc	r0, ip, r0, lsl #1
30009184:	e2444601 	sub	r4, r4, #1048576	; 0x100000
30009188:	e2555001 	subs	r5, r5, #1	; 0x1
3000918c:	0a00000c 	beq	300091c4 <__adddf3+0x108>
30009190:	e275e020 	rsbs	lr, r5, #32	; 0x20
30009194:	ba000004 	blt	300091ac <__adddf3+0xf0>
30009198:	e1a0ce13 	mov	ip, r3, lsl lr
3000919c:	e1a03533 	mov	r3, r3, lsr r5
300091a0:	e1833e12 	orr	r3, r3, r2, lsl lr
300091a4:	e1a02552 	mov	r2, r2, asr r5
300091a8:	ea000005 	b	300091c4 <__adddf3+0x108>
300091ac:	e2455020 	sub	r5, r5, #32	; 0x20
300091b0:	e28ee020 	add	lr, lr, #32	; 0x20
300091b4:	e3530001 	cmp	r3, #1	; 0x1
300091b8:	e0acce12 	adc	ip, ip, r2, lsl lr
300091bc:	e1a03552 	mov	r3, r2, asr r5
300091c0:	e1a02042 	mov	r2, r2, asr #32
300091c4:	e0911003 	adds	r1, r1, r3
300091c8:	e0a00002 	adc	r0, r0, r2
300091cc:	e2105102 	ands	r5, r0, #-2147483648	; 0x80000000
300091d0:	5a000002 	bpl	300091e0 <__adddf3+0x124>
300091d4:	e27cc000 	rsbs	ip, ip, #0	; 0x0
300091d8:	e2f11000 	rscs	r1, r1, #0	; 0x0
300091dc:	e2e00000 	rsc	r0, r0, #0	; 0x0
300091e0:	e3500601 	cmp	r0, #1048576	; 0x100000
300091e4:	3a000019 	bcc	30009250 <__adddf3+0x194>
300091e8:	e3500602 	cmp	r0, #2097152	; 0x200000
300091ec:	3a00000b 	bcc	30009220 <__adddf3+0x164>
300091f0:	e3500501 	cmp	r0, #4194304	; 0x400000
300091f4:	3a000004 	bcc	3000920c <__adddf3+0x150>
300091f8:	e1b000a0 	movs	r0, r0, lsr #1
300091fc:	e1b01061 	movs	r1, r1, rrx
30009200:	e1b0c06c 	movs	ip, ip, rrx
30009204:	238cc001 	orrcs	ip, ip, #1	; 0x1
30009208:	e2844601 	add	r4, r4, #1048576	; 0x100000
3000920c:	e1b000a0 	movs	r0, r0, lsr #1
30009210:	e1b01061 	movs	r1, r1, rrx
30009214:	e1b0c06c 	movs	ip, ip, rrx
30009218:	238cc001 	orrcs	ip, ip, #1	; 0x1
3000921c:	e2844601 	add	r4, r4, #1048576	; 0x100000
30009220:	e0911fac 	adds	r1, r1, ip, lsr #31
30009224:	e2a00000 	adc	r0, r0, #0	; 0x0
30009228:	e33c0102 	teq	ip, #-2147483648	; 0x80000000
3000922c:	03c11001 	biceq	r1, r1, #1	; 0x1
30009230:	e3100602 	tst	r0, #2097152	; 0x200000
30009234:	12844601 	addne	r4, r4, #1048576	; 0x100000
30009238:	e294c601 	adds	ip, r4, #1048576	; 0x100000
3000923c:	4a000048 	bmi	30009364 <__adddf3+0x2a8>
30009240:	e3c00603 	bic	r0, r0, #3145728	; 0x300000
30009244:	e1800004 	orr	r0, r0, r4
30009248:	e1800005 	orr	r0, r0, r5
3000924c:	e8bd8030 	ldmia	sp!, {r4, r5, pc}
30009250:	e3300000 	teq	r0, #0	; 0x0
30009254:	13e0300a 	mvnne	r3, #10	; 0xa
30009258:	03a03015 	moveq	r3, #21	; 0x15
3000925c:	01a00001 	moveq	r0, r1
30009260:	03a01000 	moveq	r1, #0	; 0x0
30009264:	e1a02000 	mov	r2, r0
30009268:	e1b0c820 	movs	ip, r0, lsr #16
3000926c:	01a02802 	moveq	r2, r2, lsl #16
30009270:	02833010 	addeq	r3, r3, #16	; 0x10
30009274:	e31204ff 	tst	r2, #-16777216	; 0xff000000
30009278:	01a02402 	moveq	r2, r2, lsl #8
3000927c:	02833008 	addeq	r3, r3, #8	; 0x8
30009280:	e312020f 	tst	r2, #-268435456	; 0xf0000000
30009284:	01a02202 	moveq	r2, r2, lsl #4
30009288:	02833004 	addeq	r3, r3, #4	; 0x4
3000928c:	e3120103 	tst	r2, #-1073741824	; 0xc0000000
30009290:	01a02102 	moveq	r2, r2, lsl #2
30009294:	02833002 	addeq	r3, r3, #2	; 0x2
30009298:	e3120102 	tst	r2, #-2147483648	; 0x80000000
3000929c:	02833001 	addeq	r3, r3, #1	; 0x1
300092a0:	e2532020 	subs	r2, r3, #32	; 0x20
300092a4:	aa000007 	bge	300092c8 <__adddf3+0x20c>
300092a8:	e292200c 	adds	r2, r2, #12	; 0xc
300092ac:	da000004 	ble	300092c4 <__adddf3+0x208>
300092b0:	e282c014 	add	ip, r2, #20	; 0x14
300092b4:	e262200c 	rsb	r2, r2, #12	; 0xc
300092b8:	e1a01c10 	mov	r1, r0, lsl ip
300092bc:	e1a00230 	mov	r0, r0, lsr r2
300092c0:	ea000004 	b	300092d8 <__adddf3+0x21c>
300092c4:	e2822014 	add	r2, r2, #20	; 0x14
300092c8:	d262c020 	rsble	ip, r2, #32	; 0x20
300092cc:	e1a00210 	mov	r0, r0, lsl r2
300092d0:	d1800c31 	orrle	r0, r0, r1, lsr ip
300092d4:	d1a01211 	movle	r1, r1, lsl r2
300092d8:	e0544a03 	subs	r4, r4, r3, lsl #20
300092dc:	caffffd7 	bgt	30009240 <__adddf3+0x184>
300092e0:	e1e04a44 	mvn	r4, r4, asr #20
300092e4:	e254401e 	subs	r4, r4, #30	; 0x1e
300092e8:	aa00000d 	bge	30009324 <__adddf3+0x268>
300092ec:	e294400c 	adds	r4, r4, #12	; 0xc
300092f0:	ca000005 	bgt	3000930c <__adddf3+0x250>
300092f4:	e2844014 	add	r4, r4, #20	; 0x14
300092f8:	e2642020 	rsb	r2, r4, #32	; 0x20
300092fc:	e1a01431 	mov	r1, r1, lsr r4
30009300:	e1811210 	orr	r1, r1, r0, lsl r2
30009304:	e1850430 	orr	r0, r5, r0, lsr r4
30009308:	e8bd8030 	ldmia	sp!, {r4, r5, pc}
3000930c:	e264400c 	rsb	r4, r4, #12	; 0xc
30009310:	e2642020 	rsb	r2, r4, #32	; 0x20
30009314:	e1a01231 	mov	r1, r1, lsr r2
30009318:	e1811410 	orr	r1, r1, r0, lsl r4
3000931c:	e1a00005 	mov	r0, r5
30009320:	e8bd8030 	ldmia	sp!, {r4, r5, pc}
30009324:	e1a01430 	mov	r1, r0, lsr r4
30009328:	e1a00005 	mov	r0, r5
3000932c:	e8bd8030 	ldmia	sp!, {r4, r5, pc}
30009330:	e3340000 	teq	r4, #0	; 0x0
30009334:	02200601 	eoreq	r0, r0, #1048576	; 0x100000
30009338:	02844601 	addeq	r4, r4, #1048576	; 0x100000
3000933c:	e2222601 	eor	r2, r2, #1048576	; 0x100000
30009340:	12455601 	subne	r5, r5, #1048576	; 0x100000
30009344:	eaffff87 	b	30009168 <__adddf3+0xac>
30009348:	e24cc601 	sub	ip, ip, #1048576	; 0x100000
3000934c:	e000200c 	and	r2, r0, ip
30009350:	e132000c 	teq	r2, ip
30009354:	038c0702 	orreq	r0, ip, #524288	; 0x80000
30009358:	13a00000 	movne	r0, #0	; 0x0
3000935c:	e3a01000 	mov	r1, #0	; 0x0
30009360:	e1a0f00e 	mov	pc, lr
30009364:	e385047f 	orr	r0, r5, #2130706432	; 0x7f000000
30009368:	e380060f 	orr	r0, r0, #15728640	; 0xf00000
3000936c:	e3a01000 	mov	r1, #0	; 0x0
30009370:	e8bd8030 	ldmia	sp!, {r4, r5, pc}
30009374:	e134000c 	teq	r4, ip
30009378:	11a00002 	movne	r0, r2
3000937c:	11a01003 	movne	r1, r3
30009380:	0135000c 	teqeq	r5, ip
30009384:	18bd8030 	ldmneia	sp!, {r4, r5, pc}
30009388:	e1914600 	orrs	r4, r1, r0, lsl #12
3000938c:	01934602 	orreqs	r4, r3, r2, lsl #12
30009390:	01300002 	teqeq	r0, r2
30009394:	13850702 	orrne	r0, r5, #524288	; 0x80000
30009398:	13a01000 	movne	r1, #0	; 0x0
3000939c:	e8bd8030 	ldmia	sp!, {r4, r5, pc}

300093a0 <__floatunsidf>:
300093a0:	e3300000 	teq	r0, #0	; 0x0
300093a4:	03a01000 	moveq	r1, #0	; 0x0
300093a8:	01a0f00e 	moveq	pc, lr
300093ac:	e92d4030 	stmdb	sp!, {r4, r5, lr}
300093b0:	e3a04101 	mov	r4, #1073741824	; 0x40000000
300093b4:	e2844633 	add	r4, r4, #53477376	; 0x3300000
300093b8:	e3a05000 	mov	r5, #0	; 0x0
300093bc:	e1a01000 	mov	r1, r0
300093c0:	e3a00000 	mov	r0, #0	; 0x0
300093c4:	eaffffa1 	b	30009250 <__adddf3+0x194>

300093c8 <__floatsidf>:
300093c8:	e3300000 	teq	r0, #0	; 0x0
300093cc:	03a01000 	moveq	r1, #0	; 0x0
300093d0:	01a0f00e 	moveq	pc, lr
300093d4:	e92d4030 	stmdb	sp!, {r4, r5, lr}
300093d8:	e3a04101 	mov	r4, #1073741824	; 0x40000000
300093dc:	e2844633 	add	r4, r4, #53477376	; 0x3300000
300093e0:	e2105102 	ands	r5, r0, #-2147483648	; 0x80000000
300093e4:	42600000 	rsbmi	r0, r0, #0	; 0x0
300093e8:	e1a01000 	mov	r1, r0
300093ec:	e3a00000 	mov	r0, #0	; 0x0
300093f0:	eaffff96 	b	30009250 <__adddf3+0x194>

300093f4 <__extendsfdf2>:
300093f4:	e1b02080 	movs	r2, r0, lsl #1
300093f8:	0a000007 	beq	3000941c <__extendsfdf2+0x28>
300093fc:	e1a001c2 	mov	r0, r2, asr #3
30009400:	e1a00060 	mov	r0, r0, rrx
30009404:	e1a01e02 	mov	r1, r2, lsl #28
30009408:	e21224ff 	ands	r2, r2, #-16777216	; 0xff000000
3000940c:	0a000005 	beq	30009428 <__extendsfdf2+0x34>
30009410:	e33204ff 	teq	r2, #-16777216	; 0xff000000
30009414:	1220030e 	eorne	r0, r0, #939524096	; 0x38000000
30009418:	e1a0f00e 	mov	pc, lr
3000941c:	e1a00000 	nop			(mov r0,r0)
30009420:	e3a01000 	mov	r1, #0	; 0x0
30009424:	e1a0f00e 	mov	pc, lr
30009428:	e92d4030 	stmdb	sp!, {r4, r5, lr}
3000942c:	e3a0430e 	mov	r4, #939524096	; 0x38000000
30009430:	e2844601 	add	r4, r4, #1048576	; 0x100000
30009434:	e2005102 	and	r5, r0, #-2147483648	; 0x80000000
30009438:	e3c00102 	bic	r0, r0, #-2147483648	; 0x80000000
3000943c:	eaffff83 	b	30009250 <__adddf3+0x194>

30009440 <__muldf3>:
30009440:	e92d4070 	stmdb	sp!, {r4, r5, r6, lr}
30009444:	e3a0c47f 	mov	ip, #2130706432	; 0x7f000000
30009448:	e38cc60f 	orr	ip, ip, #15728640	; 0xf00000
3000944c:	e000400c 	and	r4, r0, ip
30009450:	e002500c 	and	r5, r2, ip
30009454:	e134000c 	teq	r4, ip
30009458:	1135000c 	teqne	r5, ip
3000945c:	0a0000a8 	beq	30009704 <__muldf3+0x2c4>
30009460:	e1916080 	orrs	r6, r1, r0, lsl #1
30009464:	11936082 	orrnes	r6, r3, r2, lsl #1
30009468:	0a00005e 	beq	300095e8 <__muldf3+0x1a8>
3000946c:	e1b040a4 	movs	r4, r4, lsr #1
30009470:	13350000 	teqne	r5, #0	; 0x0
30009474:	0a00008e 	beq	300096b4 <__muldf3+0x274>
30009478:	e08440c5 	add	r4, r4, r5, asr #1
3000947c:	e1300002 	teq	r0, r2
30009480:	43844902 	orrmi	r4, r4, #32768	; 0x8000
30009484:	e1c0008c 	bic	r0, r0, ip, lsl #1
30009488:	e1c2208c 	bic	r2, r2, ip, lsl #1
3000948c:	e3800601 	orr	r0, r0, #1048576	; 0x100000
30009490:	e3822601 	orr	r2, r2, #1048576	; 0x100000
30009494:	e92d0f80 	stmdb	sp!, {r7, r8, r9, sl, fp}
30009498:	e1a07821 	mov	r7, r1, lsr #16
3000949c:	e1a08823 	mov	r8, r3, lsr #16
300094a0:	e1a09820 	mov	r9, r0, lsr #16
300094a4:	e1a0a822 	mov	sl, r2, lsr #16
300094a8:	e1c11807 	bic	r1, r1, r7, lsl #16
300094ac:	e1c33808 	bic	r3, r3, r8, lsl #16
300094b0:	e1c00809 	bic	r0, r0, r9, lsl #16
300094b4:	e1c2280a 	bic	r2, r2, sl, lsl #16
300094b8:	e00c0391 	mul	ip, r1, r3
300094bc:	e00b0891 	mul	fp, r1, r8
300094c0:	e3a0e000 	mov	lr, #0	; 0x0
300094c4:	e09cc80b 	adds	ip, ip, fp, lsl #16
300094c8:	e0aee82b 	adc	lr, lr, fp, lsr #16
300094cc:	e00b0397 	mul	fp, r7, r3
300094d0:	e09cc80b 	adds	ip, ip, fp, lsl #16
300094d4:	e0aee82b 	adc	lr, lr, fp, lsr #16
300094d8:	e00b0a91 	mul	fp, r1, sl
300094dc:	e3a05000 	mov	r5, #0	; 0x0
300094e0:	e09ee80b 	adds	lr, lr, fp, lsl #16
300094e4:	e0a5582b 	adc	r5, r5, fp, lsr #16
300094e8:	e00b0297 	mul	fp, r7, r2
300094ec:	e09ee80b 	adds	lr, lr, fp, lsl #16
300094f0:	e0a5582b 	adc	r5, r5, fp, lsr #16
300094f4:	e00b0890 	mul	fp, r0, r8
300094f8:	e09ee80b 	adds	lr, lr, fp, lsl #16
300094fc:	e0a5582b 	adc	r5, r5, fp, lsr #16
30009500:	e00b0399 	mul	fp, r9, r3
30009504:	e09ee80b 	adds	lr, lr, fp, lsl #16
30009508:	e0a5582b 	adc	r5, r5, fp, lsr #16
3000950c:	e00b0a90 	mul	fp, r0, sl
30009510:	e0060a99 	mul	r6, r9, sl
30009514:	e095580b 	adds	r5, r5, fp, lsl #16
30009518:	e0a6682b 	adc	r6, r6, fp, lsr #16
3000951c:	e00b0299 	mul	fp, r9, r2
30009520:	e095580b 	adds	r5, r5, fp, lsl #16
30009524:	e0a6682b 	adc	r6, r6, fp, lsr #16
30009528:	e00b0291 	mul	fp, r1, r2
3000952c:	e09ee00b 	adds	lr, lr, fp
30009530:	e00b0a97 	mul	fp, r7, sl
30009534:	e0b5500b 	adcs	r5, r5, fp
30009538:	e00b0390 	mul	fp, r0, r3
3000953c:	e2a66000 	adc	r6, r6, #0	; 0x0
30009540:	e09ee00b 	adds	lr, lr, fp
30009544:	e00b0899 	mul	fp, r9, r8
30009548:	e0b5500b 	adcs	r5, r5, fp
3000954c:	e00b0897 	mul	fp, r7, r8
30009550:	e2a66000 	adc	r6, r6, #0	; 0x0
30009554:	e09ee00b 	adds	lr, lr, fp
30009558:	e00b0290 	mul	fp, r0, r2
3000955c:	e0b5500b 	adcs	r5, r5, fp
30009560:	e2a66000 	adc	r6, r6, #0	; 0x0
30009564:	e8bd0f80 	ldmia	sp!, {r7, r8, r9, sl, fp}
30009568:	e33c0000 	teq	ip, #0	; 0x0
3000956c:	138ee001 	orrne	lr, lr, #1	; 0x1
30009570:	e1a00804 	mov	r0, r4, lsl #16
30009574:	e3c44902 	bic	r4, r4, #32768	; 0x8000
30009578:	e3160c02 	tst	r6, #512	; 0x200
3000957c:	0a000004 	beq	30009594 <__muldf3+0x154>
30009580:	e2844702 	add	r4, r4, #524288	; 0x80000
30009584:	e1b060a6 	movs	r6, r6, lsr #1
30009588:	e1b05065 	movs	r5, r5, rrx
3000958c:	e1b0e06e 	movs	lr, lr, rrx
30009590:	238ee001 	orrcs	lr, lr, #1	; 0x1
30009594:	e1800606 	orr	r0, r0, r6, lsl #12
30009598:	e1800a25 	orr	r0, r0, r5, lsr #20
3000959c:	e1a01605 	mov	r1, r5, lsl #12
300095a0:	e1811a2e 	orr	r1, r1, lr, lsr #20
300095a4:	e244473e 	sub	r4, r4, #16252928	; 0xf80000
300095a8:	e254441f 	subs	r4, r4, #520093696	; 0x1f000000
300095ac:	da000011 	ble	300095f8 <__muldf3+0x1b8>
300095b0:	e1b0e60e 	movs	lr, lr, lsl #12
300095b4:	5a000005 	bpl	300095d0 <__muldf3+0x190>
300095b8:	e2911001 	adds	r1, r1, #1	; 0x1
300095bc:	e2a00000 	adc	r0, r0, #0	; 0x0
300095c0:	e33e0102 	teq	lr, #-2147483648	; 0x80000000
300095c4:	03c11001 	biceq	r1, r1, #1	; 0x1
300095c8:	e3100602 	tst	r0, #2097152	; 0x200000
300095cc:	12844702 	addne	r4, r4, #524288	; 0x80000
300095d0:	e294c702 	adds	ip, r4, #524288	; 0x80000
300095d4:	e31c0101 	tst	ip, #1073741824	; 0x40000000
300095d8:	1a000055 	bne	30009734 <__muldf3+0x2f4>
300095dc:	e3c00603 	bic	r0, r0, #3145728	; 0x300000
300095e0:	e1800084 	orr	r0, r0, r4, lsl #1
300095e4:	e8bd8070 	ldmia	sp!, {r4, r5, r6, pc}
300095e8:	e0200002 	eor	r0, r0, r2
300095ec:	e2000102 	and	r0, r0, #-2147483648	; 0x80000000
300095f0:	e3a01000 	mov	r1, #0	; 0x0
300095f4:	e8bd8070 	ldmia	sp!, {r4, r5, r6, pc}
300095f8:	e374076a 	cmn	r4, #27787264	; 0x1a80000
300095fc:	d3a01000 	movle	r1, #0	; 0x0
30009600:	d2000102 	andle	r0, r0, #-2147483648	; 0x80000000
30009604:	d8bd8070 	ldmleia	sp!, {r4, r5, r6, pc}
30009608:	e1e049c4 	mvn	r4, r4, asr #19
3000960c:	e254401e 	subs	r4, r4, #30	; 0x1e
30009610:	aa00001b 	bge	30009684 <__muldf3+0x244>
30009614:	e294400c 	adds	r4, r4, #12	; 0xc
30009618:	ca00000d 	bgt	30009654 <__muldf3+0x214>
3000961c:	e2844014 	add	r4, r4, #20	; 0x14
30009620:	e2645020 	rsb	r5, r4, #32	; 0x20
30009624:	e1a03511 	mov	r3, r1, lsl r5
30009628:	e1a01431 	mov	r1, r1, lsr r4
3000962c:	e1811510 	orr	r1, r1, r0, lsl r5
30009630:	e1b00080 	movs	r0, r0, lsl #1
30009634:	e1a00430 	mov	r0, r0, lsr r4
30009638:	e1a00060 	mov	r0, r0, rrx
3000963c:	e0911fa3 	adds	r1, r1, r3, lsr #31
30009640:	e2a00000 	adc	r0, r0, #0	; 0x0
30009644:	e33e0000 	teq	lr, #0	; 0x0
30009648:	03330102 	teqeq	r3, #-2147483648	; 0x80000000
3000964c:	03c11001 	biceq	r1, r1, #1	; 0x1
30009650:	e8bd8070 	ldmia	sp!, {r4, r5, r6, pc}
30009654:	e264400c 	rsb	r4, r4, #12	; 0xc
30009658:	e2645020 	rsb	r5, r4, #32	; 0x20
3000965c:	e1a03411 	mov	r3, r1, lsl r4
30009660:	e1a01531 	mov	r1, r1, lsr r5
30009664:	e1811410 	orr	r1, r1, r0, lsl r4
30009668:	e2000102 	and	r0, r0, #-2147483648	; 0x80000000
3000966c:	e0911fa3 	adds	r1, r1, r3, lsr #31
30009670:	e2a00000 	adc	r0, r0, #0	; 0x0
30009674:	e33e0000 	teq	lr, #0	; 0x0
30009678:	03330102 	teqeq	r3, #-2147483648	; 0x80000000
3000967c:	03c11001 	biceq	r1, r1, #1	; 0x1
30009680:	e8bd8070 	ldmia	sp!, {r4, r5, r6, pc}
30009684:	e2645020 	rsb	r5, r4, #32	; 0x20
30009688:	e1a06511 	mov	r6, r1, lsl r5
3000968c:	e1a03431 	mov	r3, r1, lsr r4
30009690:	e1833510 	orr	r3, r3, r0, lsl r5
30009694:	e1a01430 	mov	r1, r0, lsr r4
30009698:	e2000102 	and	r0, r0, #-2147483648	; 0x80000000
3000969c:	e1c11430 	bic	r1, r1, r0, lsr r4
300096a0:	e0811fa3 	add	r1, r1, r3, lsr #31
300096a4:	e196600e 	orrs	r6, r6, lr
300096a8:	03330102 	teqeq	r3, #-2147483648	; 0x80000000
300096ac:	03c11001 	biceq	r1, r1, #1	; 0x1
300096b0:	e8bd8070 	ldmia	sp!, {r4, r5, r6, pc}
300096b4:	e3a0e000 	mov	lr, #0	; 0x0
300096b8:	e3340000 	teq	r4, #0	; 0x0
300096bc:	1a000008 	bne	300096e4 <__muldf3+0x2a4>
300096c0:	e2006102 	and	r6, r0, #-2147483648	; 0x80000000
300096c4:	e1b01081 	movs	r1, r1, lsl #1
300096c8:	e0ae0080 	adc	r0, lr, r0, lsl #1
300096cc:	e3100601 	tst	r0, #1048576	; 0x100000
300096d0:	02444702 	subeq	r4, r4, #524288	; 0x80000
300096d4:	0afffffa 	beq	300096c4 <__muldf3+0x284>
300096d8:	e1800006 	orr	r0, r0, r6
300096dc:	e3350000 	teq	r5, #0	; 0x0
300096e0:	1affff64 	bne	30009478 <__muldf3+0x38>
300096e4:	e2026102 	and	r6, r2, #-2147483648	; 0x80000000
300096e8:	e1b03083 	movs	r3, r3, lsl #1
300096ec:	e0ae2082 	adc	r2, lr, r2, lsl #1
300096f0:	e3120601 	tst	r2, #1048576	; 0x100000
300096f4:	02455601 	subeq	r5, r5, #1048576	; 0x100000
300096f8:	0afffffa 	beq	300096e8 <__muldf3+0x2a8>
300096fc:	e1822006 	orr	r2, r2, r6
30009700:	eaffff5c 	b	30009478 <__muldf3+0x38>
30009704:	e1916080 	orrs	r6, r1, r0, lsl #1
30009708:	11936082 	orrnes	r6, r3, r2, lsl #1
3000970c:	0a00000d 	beq	30009748 <__muldf3+0x308>
30009710:	e134000c 	teq	r4, ip
30009714:	1a000001 	bne	30009720 <__muldf3+0x2e0>
30009718:	e1916600 	orrs	r6, r1, r0, lsl #12
3000971c:	1a000009 	bne	30009748 <__muldf3+0x308>
30009720:	e135000c 	teq	r5, ip
30009724:	1a000001 	bne	30009730 <__muldf3+0x2f0>
30009728:	e1936602 	orrs	r6, r3, r2, lsl #12
3000972c:	1a000005 	bne	30009748 <__muldf3+0x308>
30009730:	e0200002 	eor	r0, r0, r2
30009734:	e2000102 	and	r0, r0, #-2147483648	; 0x80000000
30009738:	e380047f 	orr	r0, r0, #2130706432	; 0x7f000000
3000973c:	e380060f 	orr	r0, r0, #15728640	; 0xf00000
30009740:	e3a01000 	mov	r1, #0	; 0x0
30009744:	e8bd8070 	ldmia	sp!, {r4, r5, r6, pc}
30009748:	e3a0047f 	mov	r0, #2130706432	; 0x7f000000
3000974c:	e380073e 	orr	r0, r0, #16252928	; 0xf80000
30009750:	e8bd8070 	ldmia	sp!, {r4, r5, r6, pc}

30009754 <__divdf3>:
30009754:	e92d4070 	stmdb	sp!, {r4, r5, r6, lr}
30009758:	e3a0c47f 	mov	ip, #2130706432	; 0x7f000000
3000975c:	e38cc60f 	orr	ip, ip, #15728640	; 0xf00000
30009760:	e000400c 	and	r4, r0, ip
30009764:	e002500c 	and	r5, r2, ip
30009768:	e134000c 	teq	r4, ip
3000976c:	1135000c 	teqne	r5, ip
30009770:	11916080 	orrnes	r6, r1, r0, lsl #1
30009774:	11936082 	orrnes	r6, r3, r2, lsl #1
30009778:	0a00007e 	beq	30009978 <__divdf3+0x224>
3000977c:	e1b040a4 	movs	r4, r4, lsr #1
30009780:	13350000 	teqne	r5, #0	; 0x0
30009784:	0a000067 	beq	30009928 <__divdf3+0x1d4>
30009788:	e04440c5 	sub	r4, r4, r5, asr #1
3000978c:	e020e002 	eor	lr, r0, r2
30009790:	e3a05201 	mov	r5, #268435456	; 0x10000000
30009794:	e1a02602 	mov	r2, r2, lsl #12
30009798:	e1852222 	orr	r2, r5, r2, lsr #4
3000979c:	e1822c23 	orr	r2, r2, r3, lsr #24
300097a0:	e1b03403 	movs	r3, r3, lsl #8
300097a4:	e1a00600 	mov	r0, r0, lsl #12
300097a8:	01320005 	teqeq	r2, r5
300097ac:	0a00004d 	beq	300098e8 <__divdf3+0x194>
300097b0:	e1855220 	orr	r5, r5, r0, lsr #4
300097b4:	e1855c21 	orr	r5, r5, r1, lsr #24
300097b8:	e1a06401 	mov	r6, r1, lsl #8
300097bc:	e20e0102 	and	r0, lr, #-2147483648	; 0x80000000
300097c0:	e1550002 	cmp	r5, r2
300097c4:	01560003 	cmpeq	r6, r3
300097c8:	2a000002 	bcs	300097d8 <__divdf3+0x84>
300097cc:	e2444702 	sub	r4, r4, #524288	; 0x80000
300097d0:	e1b020a2 	movs	r2, r2, lsr #1
300097d4:	e1a03063 	mov	r3, r3, rrx
300097d8:	e284441f 	add	r4, r4, #520093696	; 0x1f000000
300097dc:	e284473e 	add	r4, r4, #16252928	; 0xf80000
300097e0:	e374076a 	cmn	r4, #27787264	; 0x1a80000
300097e4:	daffff80 	ble	300095ec <__muldf3+0x1ac>
300097e8:	e15400ac 	cmp	r4, ip, lsr #1
300097ec:	aaffffd0 	bge	30009734 <__muldf3+0x2f4>
300097f0:	e0566003 	subs	r6, r6, r3
300097f4:	e0c55002 	sbc	r5, r5, r2
300097f8:	e1b020a2 	movs	r2, r2, lsr #1
300097fc:	e1a03063 	mov	r3, r3, rrx
30009800:	e3a01601 	mov	r1, #1048576	; 0x100000
30009804:	e3a0c702 	mov	ip, #524288	; 0x80000
30009808:	e056e003 	subs	lr, r6, r3
3000980c:	e0d5e002 	sbcs	lr, r5, r2
30009810:	20466003 	subcs	r6, r6, r3
30009814:	21a0500e 	movcs	r5, lr
30009818:	2181100c 	orrcs	r1, r1, ip
3000981c:	e1b020a2 	movs	r2, r2, lsr #1
30009820:	e1a03063 	mov	r3, r3, rrx
30009824:	e056e003 	subs	lr, r6, r3
30009828:	e0d5e002 	sbcs	lr, r5, r2
3000982c:	20466003 	subcs	r6, r6, r3
30009830:	21a0500e 	movcs	r5, lr
30009834:	218110ac 	orrcs	r1, r1, ip, lsr #1
30009838:	e1b020a2 	movs	r2, r2, lsr #1
3000983c:	e1a03063 	mov	r3, r3, rrx
30009840:	e056e003 	subs	lr, r6, r3
30009844:	e0d5e002 	sbcs	lr, r5, r2
30009848:	20466003 	subcs	r6, r6, r3
3000984c:	21a0500e 	movcs	r5, lr
30009850:	2181112c 	orrcs	r1, r1, ip, lsr #2
30009854:	e1b020a2 	movs	r2, r2, lsr #1
30009858:	e1a03063 	mov	r3, r3, rrx
3000985c:	e056e003 	subs	lr, r6, r3
30009860:	e0d5e002 	sbcs	lr, r5, r2
30009864:	20466003 	subcs	r6, r6, r3
30009868:	21a0500e 	movcs	r5, lr
3000986c:	218111ac 	orrcs	r1, r1, ip, lsr #3
30009870:	e195e006 	orrs	lr, r5, r6
30009874:	0a00000d 	beq	300098b0 <__divdf3+0x15c>
30009878:	e1a05205 	mov	r5, r5, lsl #4
3000987c:	e1855e26 	orr	r5, r5, r6, lsr #28
30009880:	e1a06206 	mov	r6, r6, lsl #4
30009884:	e1a02182 	mov	r2, r2, lsl #3
30009888:	e1822ea3 	orr	r2, r2, r3, lsr #29
3000988c:	e1a03183 	mov	r3, r3, lsl #3
30009890:	e1b0c22c 	movs	ip, ip, lsr #4
30009894:	1affffdb 	bne	30009808 <__divdf3+0xb4>
30009898:	e3100601 	tst	r0, #1048576	; 0x100000
3000989c:	1a000006 	bne	300098bc <__divdf3+0x168>
300098a0:	e1800001 	orr	r0, r0, r1
300098a4:	e3a01000 	mov	r1, #0	; 0x0
300098a8:	e3a0c102 	mov	ip, #-2147483648	; 0x80000000
300098ac:	eaffffd5 	b	30009808 <__divdf3+0xb4>
300098b0:	e3100601 	tst	r0, #1048576	; 0x100000
300098b4:	01800001 	orreq	r0, r0, r1
300098b8:	03a01000 	moveq	r1, #0	; 0x0
300098bc:	e3540000 	cmp	r4, #0	; 0x0
300098c0:	da000016 	ble	30009920 <__divdf3+0x1cc>
300098c4:	e055c002 	subs	ip, r5, r2
300098c8:	0056c003 	subeqs	ip, r6, r3
300098cc:	e2b11000 	adcs	r1, r1, #0	; 0x0
300098d0:	e2a00000 	adc	r0, r0, #0	; 0x0
300098d4:	e33c0000 	teq	ip, #0	; 0x0
300098d8:	03c11001 	biceq	r1, r1, #1	; 0x1
300098dc:	e3c00601 	bic	r0, r0, #1048576	; 0x100000
300098e0:	e1800084 	orr	r0, r0, r4, lsl #1
300098e4:	e8bd8070 	ldmia	sp!, {r4, r5, r6, pc}
300098e8:	e20ee102 	and	lr, lr, #-2147483648	; 0x80000000
300098ec:	e18e0620 	orr	r0, lr, r0, lsr #12
300098f0:	e284441f 	add	r4, r4, #520093696	; 0x1f000000
300098f4:	e284473e 	add	r4, r4, #16252928	; 0xf80000
300098f8:	e15400ac 	cmp	r4, ip, lsr #1
300098fc:	aaffff8c 	bge	30009734 <__muldf3+0x2f4>
30009900:	e3540000 	cmp	r4, #0	; 0x0
30009904:	c1800084 	orrgt	r0, r0, r4, lsl #1
30009908:	c8bd8070 	ldmgtia	sp!, {r4, r5, r6, pc}
3000990c:	e374076a 	cmn	r4, #27787264	; 0x1a80000
30009910:	daffff35 	ble	300095ec <__muldf3+0x1ac>
30009914:	e3800601 	orr	r0, r0, #1048576	; 0x100000
30009918:	e3a0e000 	mov	lr, #0	; 0x0
3000991c:	eaffff39 	b	30009608 <__muldf3+0x1c8>
30009920:	e185e006 	orr	lr, r5, r6
30009924:	eaffff37 	b	30009608 <__muldf3+0x1c8>
30009928:	e3a0e000 	mov	lr, #0	; 0x0
3000992c:	e3340000 	teq	r4, #0	; 0x0
30009930:	1a000008 	bne	30009958 <__divdf3+0x204>
30009934:	e2006102 	and	r6, r0, #-2147483648	; 0x80000000
30009938:	e1b01081 	movs	r1, r1, lsl #1
3000993c:	e0ae0080 	adc	r0, lr, r0, lsl #1
30009940:	e3100601 	tst	r0, #1048576	; 0x100000
30009944:	02444702 	subeq	r4, r4, #524288	; 0x80000
30009948:	0afffffa 	beq	30009938 <__divdf3+0x1e4>
3000994c:	e1800006 	orr	r0, r0, r6
30009950:	e3350000 	teq	r5, #0	; 0x0
30009954:	1affff8b 	bne	30009788 <__divdf3+0x34>
30009958:	e2026102 	and	r6, r2, #-2147483648	; 0x80000000
3000995c:	e1b03083 	movs	r3, r3, lsl #1
30009960:	e0ae2082 	adc	r2, lr, r2, lsl #1
30009964:	e3120601 	tst	r2, #1048576	; 0x100000
30009968:	02455601 	subeq	r5, r5, #1048576	; 0x100000
3000996c:	0afffffa 	beq	3000995c <__divdf3+0x208>
30009970:	e1822006 	orr	r2, r2, r6
30009974:	eaffff83 	b	30009788 <__divdf3+0x34>
30009978:	e134000c 	teq	r4, ip
3000997c:	0135000c 	teqeq	r5, ip
30009980:	0affff70 	beq	30009748 <__muldf3+0x308>
30009984:	e134000c 	teq	r4, ip
30009988:	1a000002 	bne	30009998 <__divdf3+0x244>
3000998c:	e1914600 	orrs	r4, r1, r0, lsl #12
30009990:	1affff6c 	bne	30009748 <__muldf3+0x308>
30009994:	eaffff65 	b	30009730 <__muldf3+0x2f0>
30009998:	e135000c 	teq	r5, ip
3000999c:	1a000002 	bne	300099ac <__divdf3+0x258>
300099a0:	e1935602 	orrs	r5, r3, r2, lsl #12
300099a4:	1affff67 	bne	30009748 <__muldf3+0x308>
300099a8:	eaffff0e 	b	300095e8 <__muldf3+0x1a8>
300099ac:	e1914080 	orrs	r4, r1, r0, lsl #1
300099b0:	1affff5e 	bne	30009730 <__muldf3+0x2f0>
300099b4:	e1935082 	orrs	r5, r3, r2, lsl #1
300099b8:	1affff0a 	bne	300095e8 <__muldf3+0x1a8>
300099bc:	eaffff61 	b	30009748 <__muldf3+0x308>

300099c0 <__fixdfsi>:
300099c0:	e191c080 	orrs	ip, r1, r0, lsl #1
300099c4:	0a000014 	beq	30009a1c <__fixdfsi+0x5c>
300099c8:	e1a03063 	mov	r3, r3, rrx
300099cc:	e3a0c47f 	mov	ip, #2130706432	; 0x7f000000
300099d0:	e38cc60f 	orr	ip, ip, #15728640	; 0xf00000
300099d4:	e000200c 	and	r2, r0, ip
300099d8:	e132000c 	teq	r2, ip
300099dc:	0a000010 	beq	30009a24 <__fixdfsi+0x64>
300099e0:	e3ccc101 	bic	ip, ip, #1073741824	; 0x40000000
300099e4:	e152000c 	cmp	r2, ip
300099e8:	3a00000b 	bcc	30009a1c <__fixdfsi+0x5c>
300099ec:	e28cc61f 	add	ip, ip, #32505856	; 0x1f00000
300099f0:	e152000c 	cmp	r2, ip
300099f4:	2a00000c 	bcs	30009a2c <__fixdfsi+0x6c>
300099f8:	e062200c 	rsb	r2, r2, ip
300099fc:	e1a0c580 	mov	ip, r0, lsl #11
30009a00:	e38cc102 	orr	ip, ip, #-2147483648	; 0x80000000
30009a04:	e18ccaa1 	orr	ip, ip, r1, lsr #21
30009a08:	e1a02a22 	mov	r2, r2, lsr #20
30009a0c:	e3130102 	tst	r3, #-2147483648	; 0x80000000
30009a10:	e1a0023c 	mov	r0, ip, lsr r2
30009a14:	12600000 	rsbne	r0, r0, #0	; 0x0
30009a18:	e1a0f00e 	mov	pc, lr
30009a1c:	e3a00000 	mov	r0, #0	; 0x0
30009a20:	e1a0f00e 	mov	pc, lr
30009a24:	e1911600 	orrs	r1, r1, r0, lsl #12
30009a28:	1a000002 	bne	30009a38 <__fixdfsi+0x78>
30009a2c:	e2130102 	ands	r0, r3, #-2147483648	; 0x80000000
30009a30:	03e00102 	mvneq	r0, #-2147483648	; 0x80000000
30009a34:	e1a0f00e 	mov	pc, lr
30009a38:	e3a00000 	mov	r0, #0	; 0x0
30009a3c:	e1a0f00e 	mov	pc, lr
Disassembly of section .rodata:

30009a40 <fontdata_8x16>:
	...
30009a50:	817e0000 	cmnhi	lr, r0
30009a54:	bd8181a5 	stfltd	f0, [r1, #660]
30009a58:	7e818199 	mcrvc	1, 4, r8, cr1, cr9, {4}
30009a5c:	00000000 	andeq	r0, r0, r0
30009a60:	ff7e0000 	swinv	0x007e0000
30009a64:	c3ffffdb 	mvngts	pc, #876	; 0x36c
30009a68:	7effffe7 	cdpvc	15, 15, cr15, cr15, cr7, {7}
	...
30009a74:	fefefe6c 	cdp2	14, 15, cr15, cr14, cr12, {3}
30009a78:	10387cfe 	ldrnesh	r7, [r8], -lr
	...
30009a84:	fe7c3810 	mrc2	8, 3, r3, cr12, cr0, {0}
30009a88:	0010387c 	andeqs	r3, r0, ip, ror r8
30009a8c:	00000000 	andeq	r0, r0, r0
30009a90:	18000000 	stmneda	r0, {}
30009a94:	e7e73c3c 	undefined
30009a98:	3c1818e7 	ldccc	8, cr1, [r8], {231}
30009a9c:	00000000 	andeq	r0, r0, r0
30009aa0:	18000000 	stmneda	r0, {}
30009aa4:	ffff7e3c 	swinv	0x00ff7e3c
30009aa8:	3c18187e 	ldccc	8, cr1, [r8], {126}
	...
30009ab4:	3c180000 	ldccc	0, cr0, [r8], {0}
30009ab8:	0000183c 	andeq	r1, r0, ip, lsr r8
30009abc:	00000000 	andeq	r0, r0, r0
30009ac0:	ffffffff 	swinv	0x00ffffff
30009ac4:	c3e7ffff 	mvngt	pc, #1020	; 0x3fc
30009ac8:	ffffe7c3 	swinv	0x00ffe7c3
30009acc:	ffffffff 	swinv	0x00ffffff
30009ad0:	00000000 	andeq	r0, r0, r0
30009ad4:	42663c00 	rsbmi	r3, r6, #0	; 0x0
30009ad8:	003c6642 	eoreqs	r6, ip, r2, asr #12
30009adc:	00000000 	andeq	r0, r0, r0
30009ae0:	ffffffff 	swinv	0x00ffffff
30009ae4:	bd99c3ff 	ldclt	3, cr12, [r9, #1020]
30009ae8:	ffc399bd 	swinv	0x00c399bd
30009aec:	ffffffff 	swinv	0x00ffffff
30009af0:	0e1e0000 	wxoreq	wr0, wr14, wr0
30009af4:	cc78321a 	lfmgt	f3, 2, [r8], #-104
30009af8:	78cccccc 	stmvcia	ip, {r2, r3, r6, r7, sl, fp, lr, pc}^
30009afc:	00000000 	andeq	r0, r0, r0
30009b00:	663c0000 	ldrvst	r0, [ip], -r0
30009b04:	3c666666 	stcccl	6, cr6, [r6], #-408
30009b08:	18187e18 	ldmneda	r8, {r3, r4, r9, sl, fp, ip, sp, lr}
30009b0c:	00000000 	andeq	r0, r0, r0
30009b10:	333f0000 	teqcc	pc, #0	; 0x0
30009b14:	3030303f 	eorccs	r3, r0, pc, lsr r0
30009b18:	e0f07030 	rscs	r7, r0, r0, lsr r0
30009b1c:	00000000 	andeq	r0, r0, r0
30009b20:	637f0000 	cmnvs	pc, #0	; 0x0
30009b24:	6363637f 	cmnvs	r3, #-67108863	; 0xfc000001
30009b28:	e6e76763 	strbt	r6, [r7], r3, ror #14
30009b2c:	000000c0 	andeq	r0, r0, r0, asr #1
30009b30:	18000000 	stmneda	r0, {}
30009b34:	e73cdb18 	undefined
30009b38:	1818db3c 	ldmneda	r8, {r2, r3, r4, r5, r8, r9, fp, ip, lr, pc}
30009b3c:	00000000 	andeq	r0, r0, r0
30009b40:	e0c08000 	sbc	r8, r0, r0
30009b44:	f8fef8f0 	ldmnvia	lr!, {r4, r5, r6, r7, fp, ip, sp, lr, pc}^
30009b48:	80c0e0f0 	strhid	lr, [r0]
30009b4c:	00000000 	andeq	r0, r0, r0
30009b50:	0e060200 	cdpeq	2, 0, cr0, cr6, cr0, {0}
30009b54:	3efe3e1e 	mrccc	14, 7, r3, cr14, cr14, {0}
30009b58:	02060e1e 	andeq	r0, r6, #480	; 0x1e0
30009b5c:	00000000 	andeq	r0, r0, r0
30009b60:	3c180000 	ldccc	0, cr0, [r8], {0}
30009b64:	1818187e 	ldmneda	r8, {r1, r2, r3, r4, r5, r6, fp, ip}
30009b68:	00183c7e 	andeqs	r3, r8, lr, ror ip
30009b6c:	00000000 	andeq	r0, r0, r0
30009b70:	66660000 	strvsbt	r0, [r6], -r0
30009b74:	66666666 	strvsbt	r6, [r6], -r6, ror #12
30009b78:	66660066 	strvsbt	r0, [r6], -r6, rrx
30009b7c:	00000000 	andeq	r0, r0, r0
30009b80:	db7f0000 	blle	31fc9b88 <_end+0x1fb8248>
30009b84:	1b7bdbdb 	blne	31f00af8 <_end+0x1eef1b8>
30009b88:	1b1b1b1b 	blne	306d07fc <_end+0x6beebc>
30009b8c:	00000000 	andeq	r0, r0, r0
30009b90:	60c67c00 	sbcvs	r7, r6, r0, lsl #24
30009b94:	c6c66c38 	undefined
30009b98:	c60c386c 	strgt	r3, [ip], -ip, ror #16
30009b9c:	0000007c 	andeq	r0, r0, ip, ror r0
	...
30009ba8:	fefefefe 	mrc2	14, 7, pc, cr14, cr14, {7}
30009bac:	00000000 	andeq	r0, r0, r0
30009bb0:	3c180000 	ldccc	0, cr0, [r8], {0}
30009bb4:	1818187e 	ldmneda	r8, {r1, r2, r3, r4, r5, r6, fp, ip}
30009bb8:	7e183c7e 	mrcvc	12, 0, r3, cr8, cr14, {3}
30009bbc:	00000000 	andeq	r0, r0, r0
30009bc0:	3c180000 	ldccc	0, cr0, [r8], {0}
30009bc4:	1818187e 	ldmneda	r8, {r1, r2, r3, r4, r5, r6, fp, ip}
30009bc8:	18181818 	ldmneda	r8, {r3, r4, fp, ip}
30009bcc:	00000000 	andeq	r0, r0, r0
30009bd0:	18180000 	ldmneda	r8, {}
30009bd4:	18181818 	ldmneda	r8, {r3, r4, fp, ip}
30009bd8:	183c7e18 	ldmneda	ip!, {r3, r4, r9, sl, fp, ip, sp, lr}
	...
30009be4:	fe0c1800 	cdp2	8, 0, cr1, cr12, cr0, {0}
30009be8:	0000180c 	andeq	r1, r0, ip, lsl #16
	...
30009bf4:	fe603000 	cdp2	0, 6, cr3, cr0, cr0, {0}
30009bf8:	00003060 	andeq	r3, r0, r0, rrx
	...
30009c04:	c0c00000 	sbcgt	r0, r0, r0
30009c08:	0000fec0 	andeq	pc, r0, r0, asr #29
	...
30009c14:	fe6c2800 	cdp2	8, 6, cr2, cr12, cr0, {0}
30009c18:	0000286c 	andeq	r2, r0, ip, ror #16
	...
30009c24:	7c383810 	ldcvc	8, cr3, [r8], #-64
30009c28:	00fefe7c 	rsceqs	pc, lr, ip, ror lr
	...
30009c34:	7c7cfefe 	ldcvcl	14, cr15, [ip], #-1016
30009c38:	00103838 	andeqs	r3, r0, r8, lsr r8
	...
30009c50:	3c180000 	ldccc	0, cr0, [r8], {0}
30009c54:	18183c3c 	ldmneda	r8, {r2, r3, r4, r5, sl, fp, ip, sp}
30009c58:	18180018 	ldmneda	r8, {r3, r4}
30009c5c:	00000000 	andeq	r0, r0, r0
30009c60:	66666600 	strvsbt	r6, [r6], -r0, lsl #12
30009c64:	00000024 	andeq	r0, r0, r4, lsr #32
	...
30009c70:	6c000000 	stcvs	0, cr0, [r0], {0}
30009c74:	6c6cfe6c 	stcvsl	14, cr15, [ip], #-432
30009c78:	6c6cfe6c 	stcvsl	14, cr15, [ip], #-432
30009c7c:	00000000 	andeq	r0, r0, r0
30009c80:	c67c1818 	undefined
30009c84:	067cc0c2 	ldreqbt	ip, [ip], -r2, asr #1
30009c88:	7cc68606 	stcvcl	6, cr8, [r6], {6}
30009c8c:	00001818 	andeq	r1, r0, r8, lsl r8
30009c90:	00000000 	andeq	r0, r0, r0
30009c94:	180cc6c2 	stmneda	ip, {r1, r6, r7, r9, sl, lr, pc}
30009c98:	86c66030 	undefined
30009c9c:	00000000 	andeq	r0, r0, r0
30009ca0:	6c380000 	ldcvs	0, cr0, [r8]
30009ca4:	dc76386c 	ldclel	8, cr3, [r6], #-432
30009ca8:	76cccccc 	strvcb	ip, [ip], ip, asr #25
30009cac:	00000000 	andeq	r0, r0, r0
30009cb0:	30303000 	eorccs	r3, r0, r0
30009cb4:	00000060 	andeq	r0, r0, r0, rrx
	...
30009cc0:	180c0000 	stmneda	ip, {}
30009cc4:	30303030 	eorccs	r3, r0, r0, lsr r0
30009cc8:	0c183030 	ldceq	0, cr3, [r8], {48}
30009ccc:	00000000 	andeq	r0, r0, r0
30009cd0:	18300000 	ldmneda	r0!, {}
30009cd4:	0c0c0c0c 	stceq	12, cr0, [ip], {12}
30009cd8:	30180c0c 	andccs	r0, r8, ip, lsl #24
	...
30009ce4:	ff3c6600 	swinv	0x003c6600
30009ce8:	0000663c 	andeq	r6, r0, ip, lsr r6
	...
30009cf4:	7e181800 	cdpvc	8, 1, cr1, cr8, cr0, {0}
30009cf8:	00001818 	andeq	r1, r0, r8, lsl r8
	...
30009d08:	18181800 	ldmneda	r8, {fp, ip}
30009d0c:	00000030 	andeq	r0, r0, r0, lsr r0
30009d10:	00000000 	andeq	r0, r0, r0
30009d14:	fe000000 	cdp2	0, 0, cr0, cr0, cr0, {0}
	...
30009d28:	18180000 	ldmneda	r8, {}
	...
30009d34:	180c0602 	stmneda	ip, {r1, r9, sl}
30009d38:	80c06030 	sbchi	r6, r0, r0, lsr r0
30009d3c:	00000000 	andeq	r0, r0, r0
30009d40:	6c380000 	ldcvs	0, cr0, [r8]
30009d44:	d6d6c6c6 	ldrleb	ip, [r6], r6, asr #13
30009d48:	386cc6c6 	stmccda	ip!, {r1, r2, r6, r7, r9, sl, lr, pc}^
30009d4c:	00000000 	andeq	r0, r0, r0
30009d50:	38180000 	ldmccda	r8, {}
30009d54:	18181878 	ldmneda	r8, {r3, r4, r5, r6, fp, ip}
30009d58:	7e181818 	mrcvc	8, 0, r1, cr8, cr8, {0}
30009d5c:	00000000 	andeq	r0, r0, r0
30009d60:	c67c0000 	ldrgtbt	r0, [ip], -r0
30009d64:	30180c06 	andccs	r0, r8, r6, lsl #24
30009d68:	fec6c060 	cdp2	0, 12, cr12, cr6, cr0, {3}
30009d6c:	00000000 	andeq	r0, r0, r0
30009d70:	c67c0000 	ldrgtbt	r0, [ip], -r0
30009d74:	063c0606 	ldreqt	r0, [ip], -r6, lsl #12
30009d78:	7cc60606 	stcvcl	6, cr0, [r6], {6}
30009d7c:	00000000 	andeq	r0, r0, r0
30009d80:	1c0c0000 	stcne	0, cr0, [ip], {0}
30009d84:	fecc6c3c 	mcr2	12, 6, r6, cr12, cr12, {1}
30009d88:	1e0c0c0c 	cdpne	12, 0, cr0, cr12, cr12, {0}
30009d8c:	00000000 	andeq	r0, r0, r0
30009d90:	c0fe0000 	rscgts	r0, lr, r0
30009d94:	06fcc0c0 	ldreqbt	ip, [ip], r0, asr #1
30009d98:	7cc60606 	stcvcl	6, cr0, [r6], {6}
30009d9c:	00000000 	andeq	r0, r0, r0
30009da0:	60380000 	eorvss	r0, r8, r0
30009da4:	c6fcc0c0 	ldrgtbt	ip, [ip], r0, asr #1
30009da8:	7cc6c6c6 	stcvcl	6, cr12, [r6], {198}
30009dac:	00000000 	andeq	r0, r0, r0
30009db0:	c6fe0000 	ldrgtbt	r0, [lr], r0
30009db4:	180c0606 	stmneda	ip, {r1, r2, r9, sl}
30009db8:	30303030 	eorccs	r3, r0, r0, lsr r0
30009dbc:	00000000 	andeq	r0, r0, r0
30009dc0:	c67c0000 	ldrgtbt	r0, [ip], -r0
30009dc4:	c67cc6c6 	ldrgtbt	ip, [ip], -r6, asr #13
30009dc8:	7cc6c6c6 	stcvcl	6, cr12, [r6], {198}
30009dcc:	00000000 	andeq	r0, r0, r0
30009dd0:	c67c0000 	ldrgtbt	r0, [ip], -r0
30009dd4:	067ec6c6 	ldreqbt	ip, [lr], -r6, asr #13
30009dd8:	780c0606 	stmvcda	ip, {r1, r2, r9, sl}
	...
30009de4:	00001818 	andeq	r1, r0, r8, lsl r8
30009de8:	00181800 	andeqs	r1, r8, r0, lsl #16
	...
30009df4:	00001818 	andeq	r1, r0, r8, lsl r8
30009df8:	30181800 	andccs	r1, r8, r0, lsl #16
30009dfc:	00000000 	andeq	r0, r0, r0
30009e00:	06000000 	streq	r0, [r0], -r0
30009e04:	6030180c 	eorvss	r1, r0, ip, lsl #16
30009e08:	060c1830 	undefined
	...
30009e14:	00007e00 	andeq	r7, r0, r0, lsl #28
30009e18:	0000007e 	andeq	r0, r0, lr, ror r0
30009e1c:	00000000 	andeq	r0, r0, r0
30009e20:	60000000 	andvs	r0, r0, r0
30009e24:	060c1830 	undefined
30009e28:	6030180c 	eorvss	r1, r0, ip, lsl #16
30009e2c:	00000000 	andeq	r0, r0, r0
30009e30:	c67c0000 	ldrgtbt	r0, [ip], -r0
30009e34:	18180cc6 	ldmneda	r8, {r1, r2, r6, r7, sl, fp}
30009e38:	18180018 	ldmneda	r8, {r3, r4}
30009e3c:	00000000 	andeq	r0, r0, r0
30009e40:	7c000000 	stcvc	0, cr0, [r0], {0}
30009e44:	dedec6c6 	cdple	6, 13, cr12, cr14, cr6, {6}
30009e48:	7cc0dcde 	stcvcl	12, cr13, [r0], {222}
30009e4c:	00000000 	andeq	r0, r0, r0
30009e50:	38100000 	ldmccda	r0, {}
30009e54:	fec6c66c 	cdp2	6, 12, cr12, cr6, cr12, {3}
30009e58:	c6c6c6c6 	strgtb	ip, [r6], r6, asr #13
30009e5c:	00000000 	andeq	r0, r0, r0
30009e60:	66fc0000 	ldrvsbt	r0, [ip], r0
30009e64:	667c6666 	ldrvsbt	r6, [ip], -r6, ror #12
30009e68:	fc666666 	stc2l	6, cr6, [r6], #-408
30009e6c:	00000000 	andeq	r0, r0, r0
30009e70:	663c0000 	ldrvst	r0, [ip], -r0
30009e74:	c0c0c0c2 	sbcgt	ip, r0, r2, asr #1
30009e78:	3c66c2c0 	sfmcc	f4, 3, [r6], #-768
30009e7c:	00000000 	andeq	r0, r0, r0
30009e80:	6cf80000 	ldcvsl	0, cr0, [r8]
30009e84:	66666666 	strvsbt	r6, [r6], -r6, ror #12
30009e88:	f86c6666 	stmnvda	ip!, {r1, r2, r5, r6, r9, sl, sp, lr}^
30009e8c:	00000000 	andeq	r0, r0, r0
30009e90:	66fe0000 	ldrvsbt	r0, [lr], r0
30009e94:	68786862 	ldmvsda	r8!, {r1, r5, r6, fp, sp, lr}^
30009e98:	fe666260 	cdp2	2, 6, cr6, cr6, cr0, {3}
30009e9c:	00000000 	andeq	r0, r0, r0
30009ea0:	66fe0000 	ldrvsbt	r0, [lr], r0
30009ea4:	68786862 	ldmvsda	r8!, {r1, r5, r6, fp, sp, lr}^
30009ea8:	f0606060 	rsbnv	r6, r0, r0, rrx
30009eac:	00000000 	andeq	r0, r0, r0
30009eb0:	663c0000 	ldrvst	r0, [ip], -r0
30009eb4:	dec0c0c2 	cdple	0, 12, cr12, cr0, cr2, {6}
30009eb8:	3a66c6c6 	bcc	319bb9d8 <_end+0x19aa098>
30009ebc:	00000000 	andeq	r0, r0, r0
30009ec0:	c6c60000 	strgtb	r0, [r6], r0
30009ec4:	c6fec6c6 	ldrgtbt	ip, [lr], r6, asr #13
30009ec8:	c6c6c6c6 	strgtb	ip, [r6], r6, asr #13
30009ecc:	00000000 	andeq	r0, r0, r0
30009ed0:	183c0000 	ldmneda	ip!, {}
30009ed4:	18181818 	ldmneda	r8, {r3, r4, fp, ip}
30009ed8:	3c181818 	ldccc	8, cr1, [r8], {24}
30009edc:	00000000 	andeq	r0, r0, r0
30009ee0:	0c1e0000 	ldceq	0, cr0, [lr], {0}
30009ee4:	0c0c0c0c 	stceq	12, cr0, [ip], {12}
30009ee8:	78cccccc 	stmvcia	ip, {r2, r3, r6, r7, sl, fp, lr, pc}^
30009eec:	00000000 	andeq	r0, r0, r0
30009ef0:	66e60000 	strvsbt	r0, [r6], r0
30009ef4:	78786c66 	ldmvcda	r8!, {r1, r2, r5, r6, sl, fp, sp, lr}^
30009ef8:	e666666c 	strbt	r6, [r6], -ip, ror #12
30009efc:	00000000 	andeq	r0, r0, r0
30009f00:	60f00000 	rscvss	r0, r0, r0
30009f04:	60606060 	rsbvs	r6, r0, r0, rrx
30009f08:	fe666260 	cdp2	2, 6, cr6, cr6, cr0, {3}
30009f0c:	00000000 	andeq	r0, r0, r0
30009f10:	eec60000 	cdp	0, 12, cr0, cr6, cr0, {0}
30009f14:	c6d6fefe 	undefined
30009f18:	c6c6c6c6 	strgtb	ip, [r6], r6, asr #13
30009f1c:	00000000 	andeq	r0, r0, r0
30009f20:	e6c60000 	strb	r0, [r6], r0
30009f24:	cedefef6 	mrcgt	14, 6, pc, cr14, cr6, {7}
30009f28:	c6c6c6c6 	strgtb	ip, [r6], r6, asr #13
30009f2c:	00000000 	andeq	r0, r0, r0
30009f30:	c67c0000 	ldrgtbt	r0, [ip], -r0
30009f34:	c6c6c6c6 	strgtb	ip, [r6], r6, asr #13
30009f38:	7cc6c6c6 	stcvcl	6, cr12, [r6], {198}
30009f3c:	00000000 	andeq	r0, r0, r0
30009f40:	66fc0000 	ldrvsbt	r0, [ip], r0
30009f44:	607c6666 	rsbvss	r6, ip, r6, ror #12
30009f48:	f0606060 	rsbnv	r6, r0, r0, rrx
30009f4c:	00000000 	andeq	r0, r0, r0
30009f50:	c67c0000 	ldrgtbt	r0, [ip], -r0
30009f54:	c6c6c6c6 	strgtb	ip, [r6], r6, asr #13
30009f58:	7cded6c6 	ldcvcl	6, cr13, [lr], {198}
30009f5c:	00000e0c 	andeq	r0, r0, ip, lsl #28
30009f60:	66fc0000 	ldrvsbt	r0, [ip], r0
30009f64:	6c7c6666 	ldcvsl	6, cr6, [ip], #-408
30009f68:	e6666666 	strbt	r6, [r6], -r6, ror #12
30009f6c:	00000000 	andeq	r0, r0, r0
30009f70:	c67c0000 	ldrgtbt	r0, [ip], -r0
30009f74:	0c3860c6 	ldceq	0, cr6, [r8], #-792
30009f78:	7cc6c606 	stcvcl	6, cr12, [r6], {6}
30009f7c:	00000000 	andeq	r0, r0, r0
30009f80:	7e7e0000 	cdpvc	0, 7, cr0, cr14, cr0, {0}
30009f84:	1818185a 	ldmneda	r8, {r1, r3, r4, r6, fp, ip}
30009f88:	3c181818 	ldccc	8, cr1, [r8], {24}
30009f8c:	00000000 	andeq	r0, r0, r0
30009f90:	c6c60000 	strgtb	r0, [r6], r0
30009f94:	c6c6c6c6 	strgtb	ip, [r6], r6, asr #13
30009f98:	7cc6c6c6 	stcvcl	6, cr12, [r6], {198}
30009f9c:	00000000 	andeq	r0, r0, r0
30009fa0:	c6c60000 	strgtb	r0, [r6], r0
30009fa4:	c6c6c6c6 	strgtb	ip, [r6], r6, asr #13
30009fa8:	10386cc6 	eornes	r6, r8, r6, asr #25
30009fac:	00000000 	andeq	r0, r0, r0
30009fb0:	c6c60000 	strgtb	r0, [r6], r0
30009fb4:	d6d6c6c6 	ldrleb	ip, [r6], r6, asr #13
30009fb8:	6ceefed6 	stcvsl	14, cr15, [lr], #856
30009fbc:	00000000 	andeq	r0, r0, r0
30009fc0:	c6c60000 	strgtb	r0, [r6], r0
30009fc4:	38387c6c 	ldmccda	r8!, {r2, r3, r5, r6, sl, fp, ip, sp, lr}
30009fc8:	c6c66c7c 	uxtab16gt	r6, r6, ip, ROR #24
30009fcc:	00000000 	andeq	r0, r0, r0
30009fd0:	66660000 	strvsbt	r0, [r6], -r0
30009fd4:	183c6666 	ldmneda	ip!, {r1, r2, r5, r6, r9, sl, sp, lr}
30009fd8:	3c181818 	ldccc	8, cr1, [r8], {24}
30009fdc:	00000000 	andeq	r0, r0, r0
30009fe0:	c6fe0000 	ldrgtbt	r0, [lr], r0
30009fe4:	30180c86 	andccs	r0, r8, r6, lsl #25
30009fe8:	fec6c260 	cdp2	2, 12, cr12, cr6, cr0, {3}
30009fec:	00000000 	andeq	r0, r0, r0
30009ff0:	303c0000 	eorccs	r0, ip, r0
30009ff4:	30303030 	eorccs	r3, r0, r0, lsr r0
30009ff8:	3c303030 	ldccc	0, cr3, [r0], #-192
30009ffc:	00000000 	andeq	r0, r0, r0
3000a000:	80000000 	andhi	r0, r0, r0
3000a004:	3870e0c0 	ldmccda	r0!, {r6, r7, sp, lr, pc}^
3000a008:	02060e1c 	andeq	r0, r6, #448	; 0x1c0
3000a00c:	00000000 	andeq	r0, r0, r0
3000a010:	0c3c0000 	ldceq	0, cr0, [ip]
3000a014:	0c0c0c0c 	stceq	12, cr0, [ip], {12}
3000a018:	3c0c0c0c 	stccc	12, cr0, [ip], {12}
3000a01c:	00000000 	andeq	r0, r0, r0
3000a020:	c66c3810 	undefined
	...
3000a03c:	0000ff00 	andeq	pc, r0, r0, lsl #30
3000a040:	0c183000 	ldceq	0, cr3, [r8], {0}
	...
3000a054:	7c0c7800 	stcvc	8, cr7, [ip], {0}
3000a058:	76cccccc 	strvcb	ip, [ip], ip, asr #25
3000a05c:	00000000 	andeq	r0, r0, r0
3000a060:	60e00000 	rscvs	r0, r0, r0
3000a064:	666c7860 	strvsbt	r7, [ip], -r0, ror #16
3000a068:	7c666666 	stcvcl	6, cr6, [r6], #-408
	...
3000a074:	c0c67c00 	sbcgt	r7, r6, r0, lsl #24
3000a078:	7cc6c0c0 	stcvcl	0, cr12, [r6], {192}
3000a07c:	00000000 	andeq	r0, r0, r0
3000a080:	0c1c0000 	ldceq	0, cr0, [ip], {0}
3000a084:	cc6c3c0c 	stcgtl	12, cr3, [ip], #-48
3000a088:	76cccccc 	strvcb	ip, [ip], ip, asr #25
	...
3000a094:	fec67c00 	cdp2	12, 12, cr7, cr6, cr0, {0}
3000a098:	7cc6c0c0 	stcvcl	0, cr12, [r6], {192}
3000a09c:	00000000 	andeq	r0, r0, r0
3000a0a0:	361c0000 	ldrcc	r0, [ip], -r0
3000a0a4:	30783032 	rsbccs	r3, r8, r2, lsr r0
3000a0a8:	78303030 	ldmvcda	r0!, {r4, r5, ip, sp}
	...
3000a0b4:	cccc7600 	stcgtl	6, cr7, [ip], {0}
3000a0b8:	7ccccccc 	stcvcl	12, cr12, [ip], {204}
3000a0bc:	0078cc0c 	rsbeqs	ip, r8, ip, lsl #24
3000a0c0:	60e00000 	rscvs	r0, r0, r0
3000a0c4:	66766c60 	ldrvsbt	r6, [r6], -r0, ror #24
3000a0c8:	e6666666 	strbt	r6, [r6], -r6, ror #12
3000a0cc:	00000000 	andeq	r0, r0, r0
3000a0d0:	18180000 	ldmneda	r8, {}
3000a0d4:	18183800 	ldmneda	r8, {fp, ip, sp}
3000a0d8:	3c181818 	ldccc	8, cr1, [r8], {24}
3000a0dc:	00000000 	andeq	r0, r0, r0
3000a0e0:	06060000 	streq	r0, [r6], -r0
3000a0e4:	06060e00 	streq	r0, [r6], -r0, lsl #28
3000a0e8:	06060606 	streq	r0, [r6], -r6, lsl #12
3000a0ec:	003c6666 	eoreqs	r6, ip, r6, ror #12
3000a0f0:	60e00000 	rscvs	r0, r0, r0
3000a0f4:	786c6660 	stmvcda	ip!, {r5, r6, r9, sl, sp, lr}^
3000a0f8:	e6666c78 	undefined
3000a0fc:	00000000 	andeq	r0, r0, r0
3000a100:	18380000 	ldmneda	r8!, {}
3000a104:	18181818 	ldmneda	r8, {r3, r4, fp, ip}
3000a108:	3c181818 	ldccc	8, cr1, [r8], {24}
	...
3000a114:	d6feec00 	ldrlebt	lr, [lr], r0, lsl #24
3000a118:	c6d6d6d6 	undefined
	...
3000a124:	6666dc00 	strvsbt	sp, [r6], -r0, lsl #24
3000a128:	66666666 	strvsbt	r6, [r6], -r6, ror #12
	...
3000a134:	c6c67c00 	strgtb	r7, [r6], r0, lsl #24
3000a138:	7cc6c6c6 	stcvcl	6, cr12, [r6], {198}
	...
3000a144:	6666dc00 	strvsbt	sp, [r6], -r0, lsl #24
3000a148:	7c666666 	stcvcl	6, cr6, [r6], #-408
3000a14c:	00f06060 	rsceqs	r6, r0, r0, rrx
3000a150:	00000000 	andeq	r0, r0, r0
3000a154:	cccc7600 	stcgtl	6, cr7, [ip], {0}
3000a158:	7ccccccc 	stcvcl	12, cr12, [ip], {204}
3000a15c:	001e0c0c 	andeqs	r0, lr, ip, lsl #24
3000a160:	00000000 	andeq	r0, r0, r0
3000a164:	6676dc00 	ldrvsbt	sp, [r6], -r0, lsl #24
3000a168:	f0606060 	rsbnv	r6, r0, r0, rrx
	...
3000a174:	60c67c00 	sbcvs	r7, r6, r0, lsl #24
3000a178:	7cc60c38 	stcvcl	12, cr0, [r6], {56}
3000a17c:	00000000 	andeq	r0, r0, r0
3000a180:	30100000 	andccs	r0, r0, r0
3000a184:	3030fc30 	eorccs	pc, r0, r0, lsr ip
3000a188:	1c363030 	ldcne	0, cr3, [r6], #-192
	...
3000a194:	cccccc00 	stcgtl	12, cr12, [ip], {0}
3000a198:	76cccccc 	strvcb	ip, [ip], ip, asr #25
	...
3000a1a4:	c6c6c600 	strgtb	ip, [r6], r0, lsl #12
3000a1a8:	386cc6c6 	stmccda	ip!, {r1, r2, r6, r7, r9, sl, lr, pc}^
	...
3000a1b4:	d6c6c600 	strleb	ip, [r6], r0, lsl #12
3000a1b8:	6cfed6d6 	ldcvsl	6, cr13, [lr], #856
	...
3000a1c4:	386cc600 	stmccda	ip!, {r9, sl, lr, pc}^
3000a1c8:	c66c3838 	undefined
	...
3000a1d4:	c6c6c600 	strgtb	ip, [r6], r0, lsl #12
3000a1d8:	7ec6c6c6 	cdpvc	6, 12, cr12, cr6, cr6, {6}
3000a1dc:	00f80c06 	rsceqs	r0, r8, r6, lsl #24
3000a1e0:	00000000 	andeq	r0, r0, r0
3000a1e4:	18ccfe00 	stmneia	ip, {r9, sl, fp, ip, sp, lr, pc}^
3000a1e8:	fec66030 	mcr2	0, 6, r6, cr6, cr0, {1}
3000a1ec:	00000000 	andeq	r0, r0, r0
3000a1f0:	180e0000 	stmneda	lr, {}
3000a1f4:	18701818 	ldmneda	r0!, {r3, r4, fp, ip}^
3000a1f8:	0e181818 	mrceq	8, 0, r1, cr8, cr8, {0}
3000a1fc:	00000000 	andeq	r0, r0, r0
3000a200:	18180000 	ldmneda	r8, {}
3000a204:	18181818 	ldmneda	r8, {r3, r4, fp, ip}
3000a208:	18181818 	ldmneda	r8, {r3, r4, fp, ip}
3000a20c:	00000000 	andeq	r0, r0, r0
3000a210:	18700000 	ldmneda	r0!, {}^
3000a214:	180e1818 	stmneda	lr, {r3, r4, fp, ip}
3000a218:	70181818 	andvcs	r1, r8, r8, lsl r8
3000a21c:	00000000 	andeq	r0, r0, r0
3000a220:	00dc7600 	sbceqs	r7, ip, r0, lsl #12
	...
3000a234:	c66c3810 	undefined
3000a238:	00fec6c6 	rsceqs	ip, lr, r6, asr #13
3000a23c:	00000000 	andeq	r0, r0, r0
3000a240:	663c0000 	ldrvst	r0, [ip], -r0
3000a244:	c0c0c0c2 	sbcgt	ip, r0, r2, asr #1
3000a248:	3c66c2c0 	sfmcc	f4, 3, [r6], #-768
3000a24c:	00007018 	andeq	r7, r0, r8, lsl r0
3000a250:	00cc0000 	sbceq	r0, ip, r0
3000a254:	cccccc00 	stcgtl	12, cr12, [ip], {0}
3000a258:	76cccccc 	strvcb	ip, [ip], ip, asr #25
3000a25c:	00000000 	andeq	r0, r0, r0
3000a260:	30180c00 	andccs	r0, r8, r0, lsl #24
3000a264:	fec67c00 	cdp2	12, 12, cr7, cr6, cr0, {0}
3000a268:	7cc6c0c0 	stcvcl	0, cr12, [r6], {192}
3000a26c:	00000000 	andeq	r0, r0, r0
3000a270:	6c381000 	ldcvs	0, cr1, [r8]
3000a274:	7c0c7800 	stcvc	8, cr7, [ip], {0}
3000a278:	76cccccc 	strvcb	ip, [ip], ip, asr #25
3000a27c:	00000000 	andeq	r0, r0, r0
3000a280:	00cc0000 	sbceq	r0, ip, r0
3000a284:	7c0c7800 	stcvc	8, cr7, [ip], {0}
3000a288:	76cccccc 	strvcb	ip, [ip], ip, asr #25
3000a28c:	00000000 	andeq	r0, r0, r0
3000a290:	18306000 	ldmneda	r0!, {sp, lr}
3000a294:	7c0c7800 	stcvc	8, cr7, [ip], {0}
3000a298:	76cccccc 	strvcb	ip, [ip], ip, asr #25
3000a29c:	00000000 	andeq	r0, r0, r0
3000a2a0:	386c3800 	stmccda	ip!, {fp, ip, sp}^
3000a2a4:	7c0c7800 	stcvc	8, cr7, [ip], {0}
3000a2a8:	76cccccc 	strvcb	ip, [ip], ip, asr #25
	...
3000a2b4:	c0c67c00 	sbcgt	r7, r6, r0, lsl #24
3000a2b8:	7cc6c0c0 	stcvcl	0, cr12, [r6], {192}
3000a2bc:	00007018 	andeq	r7, r0, r8, lsl r0
3000a2c0:	6c381000 	ldcvs	0, cr1, [r8]
3000a2c4:	fec67c00 	cdp2	12, 12, cr7, cr6, cr0, {0}
3000a2c8:	7cc6c0c0 	stcvcl	0, cr12, [r6], {192}
3000a2cc:	00000000 	andeq	r0, r0, r0
3000a2d0:	00c60000 	sbceq	r0, r6, r0
3000a2d4:	fec67c00 	cdp2	12, 12, cr7, cr6, cr0, {0}
3000a2d8:	7cc6c0c0 	stcvcl	0, cr12, [r6], {192}
3000a2dc:	00000000 	andeq	r0, r0, r0
3000a2e0:	18306000 	ldmneda	r0!, {sp, lr}
3000a2e4:	fec67c00 	cdp2	12, 12, cr7, cr6, cr0, {0}
3000a2e8:	7cc6c0c0 	stcvcl	0, cr12, [r6], {192}
3000a2ec:	00000000 	andeq	r0, r0, r0
3000a2f0:	00660000 	rsbeq	r0, r6, r0
3000a2f4:	18183800 	ldmneda	r8, {fp, ip, sp}
3000a2f8:	3c181818 	ldccc	8, cr1, [r8], {24}
3000a2fc:	00000000 	andeq	r0, r0, r0
3000a300:	663c1800 	ldrvst	r1, [ip], -r0, lsl #16
3000a304:	18183800 	ldmneda	r8, {fp, ip, sp}
3000a308:	3c181818 	ldccc	8, cr1, [r8], {24}
3000a30c:	00000000 	andeq	r0, r0, r0
3000a310:	18306000 	ldmneda	r0!, {sp, lr}
3000a314:	18183800 	ldmneda	r8, {fp, ip, sp}
3000a318:	3c181818 	ldccc	8, cr1, [r8], {24}
3000a31c:	00000000 	andeq	r0, r0, r0
3000a320:	1000c600 	andne	ip, r0, r0, lsl #12
3000a324:	c6c66c38 	undefined
3000a328:	c6c6c6fe 	undefined
3000a32c:	00000000 	andeq	r0, r0, r0
3000a330:	10386c38 	eornes	r6, r8, r8, lsr ip
3000a334:	fec66c38 	mcr2	12, 6, r6, cr6, cr8, {1}
3000a338:	c6c6c6c6 	strgtb	ip, [r6], r6, asr #13
3000a33c:	00000000 	andeq	r0, r0, r0
3000a340:	fe00180c 	cdp2	8, 0, cr1, cr0, cr12, {0}
3000a344:	78686266 	stmvcda	r8!, {r1, r2, r5, r6, r9, sp, lr}^
3000a348:	fe666268 	cdp2	2, 6, cr6, cr6, cr8, {3}
	...
3000a354:	3636ec00 	ldrcct	lr, [r6], -r0, lsl #24
3000a358:	6ed8d87e 	mrcvs	8, 6, sp, cr8, cr14, {3}
3000a35c:	00000000 	andeq	r0, r0, r0
3000a360:	6c3e0000 	ldcvs	0, cr0, [lr]
3000a364:	ccfecccc 	ldcgtl	12, cr12, [lr], #816
3000a368:	cecccccc 	cdpgt	12, 12, cr12, cr12, cr12, {6}
3000a36c:	00000000 	andeq	r0, r0, r0
3000a370:	6c381000 	ldcvs	0, cr1, [r8]
3000a374:	c6c67c00 	strgtb	r7, [r6], r0, lsl #24
3000a378:	7cc6c6c6 	stcvcl	6, cr12, [r6], {198}
3000a37c:	00000000 	andeq	r0, r0, r0
3000a380:	00c60000 	sbceq	r0, r6, r0
3000a384:	c6c67c00 	strgtb	r7, [r6], r0, lsl #24
3000a388:	7cc6c6c6 	stcvcl	6, cr12, [r6], {198}
3000a38c:	00000000 	andeq	r0, r0, r0
3000a390:	18306000 	ldmneda	r0!, {sp, lr}
3000a394:	c6c67c00 	strgtb	r7, [r6], r0, lsl #24
3000a398:	7cc6c6c6 	stcvcl	6, cr12, [r6], {198}
3000a39c:	00000000 	andeq	r0, r0, r0
3000a3a0:	cc783000 	ldcgtl	0, cr3, [r8]
3000a3a4:	cccccc00 	stcgtl	12, cr12, [ip], {0}
3000a3a8:	76cccccc 	strvcb	ip, [ip], ip, asr #25
3000a3ac:	00000000 	andeq	r0, r0, r0
3000a3b0:	18306000 	ldmneda	r0!, {sp, lr}
3000a3b4:	cccccc00 	stcgtl	12, cr12, [ip], {0}
3000a3b8:	76cccccc 	strvcb	ip, [ip], ip, asr #25
3000a3bc:	00000000 	andeq	r0, r0, r0
3000a3c0:	00c60000 	sbceq	r0, r6, r0
3000a3c4:	c6c6c600 	strgtb	ip, [r6], r0, lsl #12
3000a3c8:	7ec6c6c6 	cdpvc	6, 12, cr12, cr6, cr6, {6}
3000a3cc:	00780c06 	rsbeqs	r0, r8, r6, lsl #24
3000a3d0:	7c00c600 	stcvc	6, cr12, [r0], {0}
3000a3d4:	c6c6c6c6 	strgtb	ip, [r6], r6, asr #13
3000a3d8:	7cc6c6c6 	stcvcl	6, cr12, [r6], {198}
3000a3dc:	00000000 	andeq	r0, r0, r0
3000a3e0:	c600c600 	strgt	ip, [r0], -r0, lsl #12
3000a3e4:	c6c6c6c6 	strgtb	ip, [r6], r6, asr #13
3000a3e8:	7cc6c6c6 	stcvcl	6, cr12, [r6], {198}
3000a3ec:	00000000 	andeq	r0, r0, r0
3000a3f0:	7c181800 	ldcvc	8, cr1, [r8], {0}
3000a3f4:	c0c0c0c6 	sbcgt	ip, r0, r6, asr #1
3000a3f8:	18187cc6 	ldmneda	r8, {r1, r2, r6, r7, sl, fp, ip, sp, lr}
3000a3fc:	00000000 	andeq	r0, r0, r0
3000a400:	646c3800 	strvsbt	r3, [ip], #-2048
3000a404:	6060f060 	rsbvs	pc, r0, r0, rrx
3000a408:	fce66060 	stc2l	0, cr6, [r6], #384
3000a40c:	00000000 	andeq	r0, r0, r0
3000a410:	66660000 	strvsbt	r0, [r6], -r0
3000a414:	187e183c 	ldmneda	lr!, {r2, r3, r4, r5, fp, ip}^
3000a418:	1818187e 	ldmneda	r8, {r1, r2, r3, r4, r5, r6, fp, ip}
3000a41c:	00000000 	andeq	r0, r0, r0
3000a420:	ccccf800 	stcgtl	8, cr15, [ip], {0}
3000a424:	deccc4f8 	mcrle	4, 6, ip, cr12, cr8, {7}
3000a428:	c6cccccc 	strgtb	ip, [ip], ip, asr #25
3000a42c:	00000000 	andeq	r0, r0, r0
3000a430:	181b0e00 	ldmneda	fp, {r9, sl, fp}
3000a434:	187e1818 	ldmneda	lr!, {r3, r4, fp, ip}^
3000a438:	70d81818 	sbcvcs	r1, r8, r8, lsl r8
3000a43c:	00000000 	andeq	r0, r0, r0
3000a440:	60301800 	eorvss	r1, r0, r0, lsl #16
3000a444:	7c0c7800 	stcvc	8, cr7, [ip], {0}
3000a448:	76cccccc 	strvcb	ip, [ip], ip, asr #25
3000a44c:	00000000 	andeq	r0, r0, r0
3000a450:	30180c00 	andccs	r0, r8, r0, lsl #24
3000a454:	18183800 	ldmneda	r8, {fp, ip, sp}
3000a458:	3c181818 	ldccc	8, cr1, [r8], {24}
3000a45c:	00000000 	andeq	r0, r0, r0
3000a460:	60301800 	eorvss	r1, r0, r0, lsl #16
3000a464:	c6c67c00 	strgtb	r7, [r6], r0, lsl #24
3000a468:	7cc6c6c6 	stcvcl	6, cr12, [r6], {198}
3000a46c:	00000000 	andeq	r0, r0, r0
3000a470:	60301800 	eorvss	r1, r0, r0, lsl #16
3000a474:	cccccc00 	stcgtl	12, cr12, [ip], {0}
3000a478:	76cccccc 	strvcb	ip, [ip], ip, asr #25
3000a47c:	00000000 	andeq	r0, r0, r0
3000a480:	dc760000 	ldclel	0, cr0, [r6]
3000a484:	6666dc00 	strvsbt	sp, [r6], -r0, lsl #24
3000a488:	66666666 	strvsbt	r6, [r6], -r6, ror #12
3000a48c:	00000000 	andeq	r0, r0, r0
3000a490:	c600dc76 	undefined
3000a494:	defef6e6 	cdple	6, 15, cr15, cr14, cr6, {7}
3000a498:	c6c6c6ce 	strgtb	ip, [r6], lr, asr #13
3000a49c:	00000000 	andeq	r0, r0, r0
3000a4a0:	6c3c0000 	ldcvs	0, cr0, [ip]
3000a4a4:	7e003e6c 	cdpvc	14, 0, cr3, cr0, cr12, {3}
	...
3000a4b0:	6c380000 	ldcvs	0, cr0, [r8]
3000a4b4:	7c00386c 	stcvc	8, cr3, [r0], {108}
	...
3000a4c0:	30300000 	eorccs	r0, r0, r0
3000a4c4:	60303000 	eorvss	r3, r0, r0
3000a4c8:	7cc6c6c0 	stcvcl	6, cr12, [r6], {192}
	...
3000a4d4:	c0fe0000 	rscgts	r0, lr, r0
3000a4d8:	00c0c0c0 	sbceq	ip, r0, r0, asr #1
	...
3000a4e4:	06fe0000 	ldreqbt	r0, [lr], r0
3000a4e8:	00060606 	andeq	r0, r6, r6, lsl #12
3000a4ec:	00000000 	andeq	r0, r0, r0
3000a4f0:	62e06000 	rscvs	r6, r0, #0	; 0x0
3000a4f4:	30186c66 	andccs	r6, r8, r6, ror #24
3000a4f8:	0c86dc60 	stceq	12, cr13, [r6], {96}
3000a4fc:	00003e18 	andeq	r3, r0, r8, lsl lr
3000a500:	62e06000 	rscvs	r6, r0, #0	; 0x0
3000a504:	30186c66 	andccs	r6, r8, r6, ror #24
3000a508:	3f9ace66 	swicc	0x009ace66
3000a50c:	00000606 	andeq	r0, r0, r6, lsl #12
3000a510:	18180000 	ldmneda	r8, {}
3000a514:	18181800 	ldmneda	r8, {fp, ip}
3000a518:	183c3c3c 	ldmneda	ip!, {r2, r3, r4, r5, sl, fp, ip, sp}
	...
3000a524:	d86c3600 	stmleda	ip!, {r9, sl, ip, sp}^
3000a528:	0000366c 	andeq	r3, r0, ip, ror #12
	...
3000a534:	366cd800 	strccbt	sp, [ip], -r0, lsl #16
3000a538:	0000d86c 	andeq	sp, r0, ip, ror #16
3000a53c:	00000000 	andeq	r0, r0, r0
3000a540:	44114411 	ldrmi	r4, [r1], #-1041
3000a544:	44114411 	ldrmi	r4, [r1], #-1041
3000a548:	44114411 	ldrmi	r4, [r1], #-1041
3000a54c:	44114411 	ldrmi	r4, [r1], #-1041
3000a550:	aa55aa55 	bge	31574eac <_end+0x156356c>
3000a554:	aa55aa55 	bge	31574eb0 <_end+0x1563570>
3000a558:	aa55aa55 	bge	31574eb4 <_end+0x1563574>
3000a55c:	aa55aa55 	bge	31574eb8 <_end+0x1563578>
3000a560:	77dd77dd 	undefined
3000a564:	77dd77dd 	undefined
3000a568:	77dd77dd 	undefined
3000a56c:	77dd77dd 	undefined
3000a570:	18181818 	ldmneda	r8, {r3, r4, fp, ip}
3000a574:	18181818 	ldmneda	r8, {r3, r4, fp, ip}
3000a578:	18181818 	ldmneda	r8, {r3, r4, fp, ip}
3000a57c:	18181818 	ldmneda	r8, {r3, r4, fp, ip}
3000a580:	18181818 	ldmneda	r8, {r3, r4, fp, ip}
3000a584:	f8181818 	ldmnvda	r8, {r3, r4, fp, ip}
3000a588:	18181818 	ldmneda	r8, {r3, r4, fp, ip}
3000a58c:	18181818 	ldmneda	r8, {r3, r4, fp, ip}
3000a590:	18181818 	ldmneda	r8, {r3, r4, fp, ip}
3000a594:	f818f818 	ldmnvda	r8, {r3, r4, fp, ip, sp, lr, pc}
3000a598:	18181818 	ldmneda	r8, {r3, r4, fp, ip}
3000a59c:	18181818 	ldmneda	r8, {r3, r4, fp, ip}
3000a5a0:	36363636 	undefined
3000a5a4:	f6363636 	undefined
3000a5a8:	36363636 	undefined
3000a5ac:	36363636 	undefined
3000a5b0:	00000000 	andeq	r0, r0, r0
3000a5b4:	fe000000 	cdp2	0, 0, cr0, cr0, cr0, {0}
3000a5b8:	36363636 	undefined
3000a5bc:	36363636 	undefined
3000a5c0:	00000000 	andeq	r0, r0, r0
3000a5c4:	f818f800 	ldmnvda	r8, {fp, ip, sp, lr, pc}
3000a5c8:	18181818 	ldmneda	r8, {r3, r4, fp, ip}
3000a5cc:	18181818 	ldmneda	r8, {r3, r4, fp, ip}
3000a5d0:	36363636 	undefined
3000a5d4:	f606f636 	undefined
3000a5d8:	36363636 	undefined
3000a5dc:	36363636 	undefined
3000a5e0:	36363636 	undefined
3000a5e4:	36363636 	undefined
3000a5e8:	36363636 	undefined
3000a5ec:	36363636 	undefined
3000a5f0:	00000000 	andeq	r0, r0, r0
3000a5f4:	f606fe00 	strnv	pc, [r6], -r0, lsl #28
3000a5f8:	36363636 	undefined
3000a5fc:	36363636 	undefined
3000a600:	36363636 	undefined
3000a604:	fe06f636 	mcr2	6, 0, pc, cr6, cr6, {1}
	...
3000a610:	36363636 	undefined
3000a614:	fe363636 	mrc2	6, 1, r3, cr6, cr6, {1}
	...
3000a620:	18181818 	ldmneda	r8, {r3, r4, fp, ip}
3000a624:	f818f818 	ldmnvda	r8, {r3, r4, fp, ip, sp, lr, pc}
	...
3000a634:	f8000000 	stmnvda	r0, {}
3000a638:	18181818 	ldmneda	r8, {r3, r4, fp, ip}
3000a63c:	18181818 	ldmneda	r8, {r3, r4, fp, ip}
3000a640:	18181818 	ldmneda	r8, {r3, r4, fp, ip}
3000a644:	1f181818 	swine	0x00181818
	...
3000a650:	18181818 	ldmneda	r8, {r3, r4, fp, ip}
3000a654:	ff181818 	swinv	0x00181818
	...
3000a664:	ff000000 	swinv	0x00000000
3000a668:	18181818 	ldmneda	r8, {r3, r4, fp, ip}
3000a66c:	18181818 	ldmneda	r8, {r3, r4, fp, ip}
3000a670:	18181818 	ldmneda	r8, {r3, r4, fp, ip}
3000a674:	1f181818 	swine	0x00181818
3000a678:	18181818 	ldmneda	r8, {r3, r4, fp, ip}
3000a67c:	18181818 	ldmneda	r8, {r3, r4, fp, ip}
3000a680:	00000000 	andeq	r0, r0, r0
3000a684:	ff000000 	swinv	0x00000000
	...
3000a690:	18181818 	ldmneda	r8, {r3, r4, fp, ip}
3000a694:	ff181818 	swinv	0x00181818
3000a698:	18181818 	ldmneda	r8, {r3, r4, fp, ip}
3000a69c:	18181818 	ldmneda	r8, {r3, r4, fp, ip}
3000a6a0:	18181818 	ldmneda	r8, {r3, r4, fp, ip}
3000a6a4:	1f181f18 	swine	0x00181f18
3000a6a8:	18181818 	ldmneda	r8, {r3, r4, fp, ip}
3000a6ac:	18181818 	ldmneda	r8, {r3, r4, fp, ip}
3000a6b0:	36363636 	undefined
3000a6b4:	37363636 	undefined
3000a6b8:	36363636 	undefined
3000a6bc:	36363636 	undefined
3000a6c0:	36363636 	undefined
3000a6c4:	3f303736 	swicc	0x00303736
	...
3000a6d4:	37303f00 	ldrcc	r3, [r0, -r0, lsl #30]!
3000a6d8:	36363636 	undefined
3000a6dc:	36363636 	undefined
3000a6e0:	36363636 	undefined
3000a6e4:	ff00f736 	swinv	0x0000f736
	...
3000a6f4:	f700ff00 	strnv	pc, [r0, -r0, lsl #30]
3000a6f8:	36363636 	undefined
3000a6fc:	36363636 	undefined
3000a700:	36363636 	undefined
3000a704:	37303736 	undefined
3000a708:	36363636 	undefined
3000a70c:	36363636 	undefined
3000a710:	00000000 	andeq	r0, r0, r0
3000a714:	ff00ff00 	swinv	0x0000ff00
	...
3000a720:	36363636 	undefined
3000a724:	f700f736 	smuadxnv	r0, r6, r7
3000a728:	36363636 	undefined
3000a72c:	36363636 	undefined
3000a730:	18181818 	ldmneda	r8, {r3, r4, fp, ip}
3000a734:	ff00ff18 	swinv	0x0000ff18
	...
3000a740:	36363636 	undefined
3000a744:	ff363636 	swinv	0x00363636
	...
3000a754:	ff00ff00 	swinv	0x0000ff00
3000a758:	18181818 	ldmneda	r8, {r3, r4, fp, ip}
3000a75c:	18181818 	ldmneda	r8, {r3, r4, fp, ip}
3000a760:	00000000 	andeq	r0, r0, r0
3000a764:	ff000000 	swinv	0x00000000
3000a768:	36363636 	undefined
3000a76c:	36363636 	undefined
3000a770:	36363636 	undefined
3000a774:	3f363636 	swicc	0x00363636
	...
3000a780:	18181818 	ldmneda	r8, {r3, r4, fp, ip}
3000a784:	1f181f18 	swine	0x00181f18
	...
3000a794:	1f181f00 	swine	0x00181f00
3000a798:	18181818 	ldmneda	r8, {r3, r4, fp, ip}
3000a79c:	18181818 	ldmneda	r8, {r3, r4, fp, ip}
3000a7a0:	00000000 	andeq	r0, r0, r0
3000a7a4:	3f000000 	swicc	0x00000000
3000a7a8:	36363636 	undefined
3000a7ac:	36363636 	undefined
3000a7b0:	36363636 	undefined
3000a7b4:	ff363636 	swinv	0x00363636
3000a7b8:	36363636 	undefined
3000a7bc:	36363636 	undefined
3000a7c0:	18181818 	ldmneda	r8, {r3, r4, fp, ip}
3000a7c4:	ff18ff18 	swinv	0x0018ff18
3000a7c8:	18181818 	ldmneda	r8, {r3, r4, fp, ip}
3000a7cc:	18181818 	ldmneda	r8, {r3, r4, fp, ip}
3000a7d0:	18181818 	ldmneda	r8, {r3, r4, fp, ip}
3000a7d4:	f8181818 	ldmnvda	r8, {r3, r4, fp, ip}
	...
3000a7e4:	1f000000 	swine	0x00000000
3000a7e8:	18181818 	ldmneda	r8, {r3, r4, fp, ip}
3000a7ec:	18181818 	ldmneda	r8, {r3, r4, fp, ip}
3000a7f0:	ffffffff 	swinv	0x00ffffff
3000a7f4:	ffffffff 	swinv	0x00ffffff
3000a7f8:	ffffffff 	swinv	0x00ffffff
3000a7fc:	ffffffff 	swinv	0x00ffffff
3000a800:	00000000 	andeq	r0, r0, r0
3000a804:	ff000000 	swinv	0x00000000
3000a808:	ffffffff 	swinv	0x00ffffff
3000a80c:	ffffffff 	swinv	0x00ffffff
3000a810:	f0f0f0f0 	ldrnvsh	pc, [r0]
3000a814:	f0f0f0f0 	ldrnvsh	pc, [r0]
3000a818:	f0f0f0f0 	ldrnvsh	pc, [r0]
3000a81c:	f0f0f0f0 	ldrnvsh	pc, [r0]
3000a820:	0f0f0f0f 	swieq	0x000f0f0f
3000a824:	0f0f0f0f 	swieq	0x000f0f0f
3000a828:	0f0f0f0f 	swieq	0x000f0f0f
3000a82c:	0f0f0f0f 	swieq	0x000f0f0f
3000a830:	ffffffff 	swinv	0x00ffffff
3000a834:	00ffffff 	ldreqsh	pc, [pc, #255]	; 3000a93b <fontdata_8x16+0xefb>
	...
3000a844:	d8dc7600 	ldmleia	ip, {r9, sl, ip, sp, lr}^
3000a848:	76dcd8d8 	undefined
3000a84c:	00000000 	andeq	r0, r0, r0
3000a850:	cc780000 	ldcgtl	0, cr0, [r8]
3000a854:	ccd8cccc 	ldcgtl	12, cr12, [r8], {204}
3000a858:	ccc6c6c6 	stcgtl	6, cr12, [r6], {198}
3000a85c:	00000000 	andeq	r0, r0, r0
3000a860:	c6fe0000 	ldrgtbt	r0, [lr], r0
3000a864:	c0c0c0c6 	sbcgt	ip, r0, r6, asr #1
3000a868:	c0c0c0c0 	sbcgt	ip, r0, r0, asr #1
	...
3000a874:	6c6cfe00 	stcvsl	14, cr15, [ip]
3000a878:	6c6c6c6c 	stcvsl	12, cr6, [ip], #-432
3000a87c:	00000000 	andeq	r0, r0, r0
3000a880:	c6fe0000 	ldrgtbt	r0, [lr], r0
3000a884:	18183060 	ldmneda	r8, {r5, r6, ip, sp}
3000a888:	fec66030 	mcr2	0, 6, r6, cr6, cr0, {1}
	...
3000a894:	d8d87e00 	ldmleia	r8, {r9, sl, fp, ip, sp, lr}^
3000a898:	70d8d8d8 	ldrvcsb	sp, [r8], #136
	...
3000a8a4:	66666600 	strvsbt	r6, [r6], -r0, lsl #12
3000a8a8:	7c666666 	stcvcl	6, cr6, [r6], #-408
3000a8ac:	00c06060 	sbceq	r6, r0, r0, rrx
3000a8b0:	00000000 	andeq	r0, r0, r0
3000a8b4:	1818dc76 	ldmneda	r8, {r1, r2, r4, r5, r6, sl, fp, ip, lr, pc}
3000a8b8:	18181818 	ldmneda	r8, {r3, r4, fp, ip}
3000a8bc:	00000000 	andeq	r0, r0, r0
3000a8c0:	187e0000 	ldmneda	lr!, {}^
3000a8c4:	6666663c 	undefined
3000a8c8:	7e183c66 	cdpvc	12, 1, cr3, cr8, cr6, {3}
3000a8cc:	00000000 	andeq	r0, r0, r0
3000a8d0:	6c380000 	ldcvs	0, cr0, [r8]
3000a8d4:	c6fec6c6 	ldrgtbt	ip, [lr], r6, asr #13
3000a8d8:	386cc6c6 	stmccda	ip!, {r1, r2, r6, r7, r9, sl, lr, pc}^
3000a8dc:	00000000 	andeq	r0, r0, r0
3000a8e0:	6c380000 	ldcvs	0, cr0, [r8]
3000a8e4:	6cc6c6c6 	stcvsl	6, cr12, [r6], {198}
3000a8e8:	ee6c6c6c 	cdp	12, 6, cr6, cr12, cr12, {3}
3000a8ec:	00000000 	andeq	r0, r0, r0
3000a8f0:	301e0000 	andccs	r0, lr, r0
3000a8f4:	663e0c18 	undefined
3000a8f8:	3c666666 	stcccl	6, cr6, [r6], #-408
	...
3000a904:	dbdb7e00 	blle	2f6ea10c <__code_start-0x915ef4>
3000a908:	00007edb 	ldreqd	r7, [r0], -fp
3000a90c:	00000000 	andeq	r0, r0, r0
3000a910:	03000000 	tsteq	r0, #0	; 0x0
3000a914:	dbdb7e06 	blle	2f6ea134 <__code_start-0x915ecc>
3000a918:	c0607ef3 	strgtd	r7, [r0], #-227
3000a91c:	00000000 	andeq	r0, r0, r0
3000a920:	301c0000 	andccs	r0, ip, r0
3000a924:	607c6060 	rsbvss	r6, ip, r0, rrx
3000a928:	1c306060 	ldcne	0, cr6, [r0], #-384
3000a92c:	00000000 	andeq	r0, r0, r0
3000a930:	7c000000 	stcvc	0, cr0, [r0], {0}
3000a934:	c6c6c6c6 	strgtb	ip, [r6], r6, asr #13
3000a938:	c6c6c6c6 	strgtb	ip, [r6], r6, asr #13
	...
3000a944:	fe0000fe 	mcr2	0, 0, r0, cr0, cr14, {7}
3000a948:	00fe0000 	rsceqs	r0, lr, r0
	...
3000a954:	187e1818 	ldmneda	lr!, {r3, r4, fp, ip}^
3000a958:	7e000018 	mcrvc	0, 0, r0, cr0, cr8, {0}
3000a95c:	00000000 	andeq	r0, r0, r0
3000a960:	30000000 	andcc	r0, r0, r0
3000a964:	0c060c18 	stceq	12, cr0, [r6], {24}
3000a968:	7e003018 	mcrvc	0, 0, r3, cr0, cr8, {0}
3000a96c:	00000000 	andeq	r0, r0, r0
3000a970:	0c000000 	stceq	0, cr0, [r0], {0}
3000a974:	30603018 	rsbcc	r3, r0, r8, lsl r0
3000a978:	7e000c18 	mcrvc	12, 0, r0, cr0, cr8, {0}
3000a97c:	00000000 	andeq	r0, r0, r0
3000a980:	1b0e0000 	blne	3038a988 <_end+0x379048>
3000a984:	1818181b 	ldmneda	r8, {r0, r1, r3, r4, fp, ip}
3000a988:	18181818 	ldmneda	r8, {r3, r4, fp, ip}
3000a98c:	18181818 	ldmneda	r8, {r3, r4, fp, ip}
3000a990:	18181818 	ldmneda	r8, {r3, r4, fp, ip}
3000a994:	18181818 	ldmneda	r8, {r3, r4, fp, ip}
3000a998:	d8d8d818 	ldmleia	r8, {r3, r4, fp, ip, lr, pc}^
3000a99c:	00000070 	andeq	r0, r0, r0, ror r0
3000a9a0:	00000000 	andeq	r0, r0, r0
3000a9a4:	7e001800 	cdpvc	8, 0, cr1, cr0, cr0, {0}
3000a9a8:	00001800 	andeq	r1, r0, r0, lsl #16
	...
3000a9b4:	00dc7600 	sbceqs	r7, ip, r0, lsl #12
3000a9b8:	0000dc76 	andeq	sp, r0, r6, ror ip
3000a9bc:	00000000 	andeq	r0, r0, r0
3000a9c0:	6c6c3800 	stcvsl	8, cr3, [ip]
3000a9c4:	00000038 	andeq	r0, r0, r8, lsr r0
	...
3000a9d4:	18000000 	stmneda	r0, {}
3000a9d8:	00000018 	andeq	r0, r0, r8, lsl r0
	...
3000a9e4:	18000000 	stmneda	r0, {}
	...
3000a9f0:	0c0c0f00 	stceq	15, cr0, [ip], {0}
3000a9f4:	ec0c0c0c 	stc	12, cr0, [ip], {12}
3000a9f8:	1c3c6c6c 	ldcne	12, cr6, [ip], #-432
3000a9fc:	00000000 	andeq	r0, r0, r0
3000aa00:	36366c00 	ldrcct	r6, [r6], -r0, lsl #24
3000aa04:	00363636 	eoreqs	r3, r6, r6, lsr r6
	...
3000aa10:	0c663c00 	stceql	12, cr3, [r6]
3000aa14:	007e3218 	rsbeqs	r3, lr, r8, lsl r2
	...
3000aa24:	7e7e7e7e 	mrcvc	14, 3, r7, cr14, cr14, {3}
3000aa28:	007e7e7e 	rsbeqs	r7, lr, lr, ror lr
	...

3000aa40 <asc2_3216>:
	...
3000aad8:	c000f007 	andgt	pc, r0, r7
3000aadc:	e0e1ff07 	rsc	pc, r1, r7, lsl #30
3000aae0:	e001f007 	and	pc, r1, r7
3000aae4:	c0000000 	andgt	r0, r0, r0
	...
3000ab48:	00002000 	andeq	r2, r0, r0
3000ab4c:	0000c001 	andeq	ip, r0, r1
3000ab50:	00008007 	andeq	r8, r0, r7
3000ab54:	0000001f 	andeq	r0, r0, pc, lsl r0
3000ab58:	0000001e 	andeq	r0, r0, lr, lsl r0
3000ab5c:	0000201c 	andeq	r2, r0, ip, lsl r0
3000ab60:	0000c001 	andeq	ip, r0, r1
3000ab64:	00008007 	andeq	r8, r0, r7
3000ab68:	0000001f 	andeq	r0, r0, pc, lsl r0
3000ab6c:	0000001e 	andeq	r0, r0, lr, lsl r0
3000ab70:	0000001c 	andeq	r0, r0, ip, lsl r0
	...
3000abc4:	000c1800 	andeq	r1, ip, r0, lsl #16
3000abc8:	000c1800 	andeq	r1, ip, r0, lsl #16
3000abcc:	e00f1800 	and	r1, pc, r0, lsl #16
3000abd0:	00fc1f00 	rsceqs	r1, ip, r0, lsl #30
3000abd4:	000cf803 	andeq	pc, ip, r3, lsl #16
3000abd8:	000c1800 	andeq	r1, ip, r0, lsl #16
3000abdc:	000c1800 	andeq	r1, ip, r0, lsl #16
3000abe0:	000c1800 	andeq	r1, ip, r0, lsl #16
3000abe4:	000c1800 	andeq	r1, ip, r0, lsl #16
3000abe8:	e00f1800 	and	r1, pc, r0, lsl #16
3000abec:	00fc1f00 	rsceqs	r1, ip, r0, lsl #30
3000abf0:	000cf803 	andeq	pc, ip, r3, lsl #16
3000abf4:	000c1800 	andeq	r1, ip, r0, lsl #16
3000abf8:	000c1800 	andeq	r1, ip, r0, lsl #16
	...
3000ac48:	80070000 	andhi	r0, r7, r0
3000ac4c:	c0077800 	andgt	r7, r7, r0, lsl #16
3000ac50:	4006fc00 	andmi	pc, r6, r0, lsl #24
3000ac54:	20000e01 	andcs	r0, r0, r1, lsl #28
3000ac58:	20000703 	andcs	r0, r0, r3, lsl #14
3000ac5c:	20800302 	addcs	r0, r0, r2, lsl #6
3000ac60:	fcffff0f 	ldc2l	15, cr15, [pc], #60
3000ac64:	20c00102 	sbccs	r0, r0, r2, lsl #2
3000ac68:	60e00002 	rscvs	r0, r0, r2
3000ac6c:	40703001 	rsbmis	r3, r0, r1
3000ac70:	803ff001 	eorhis	pc, pc, r1
3000ac74:	001ff000 	andeqs	pc, pc, r0
	...
3000acc0:	0000fe00 	andeq	pc, r0, r0, lsl #28
3000acc4:	0000ff01 	andeq	pc, r0, r1, lsl #30
3000acc8:	00800103 	addeq	r0, r0, r3, lsl #2
3000accc:	60800002 	addvs	r0, r0, r2
3000acd0:	c0810103 	addgt	r0, r1, r3, lsl #2
3000acd4:	0007ff01 	andeq	pc, r7, r1, lsl #30
3000acd8:	0018fe00 	andeqs	pc, r8, r0, lsl #28
3000acdc:	00e00000 	rsceq	r0, r0, r0
3000ace0:	00bf0300 	adceqs	r0, pc, r0, lsl #6
3000ace4:	c0ff0c00 	rscgts	r0, pc, r0, lsl #24
3000ace8:	60807100 	addvs	r7, r0, r0, lsl #2
3000acec:	2000c101 	andcs	ip, r0, r1, lsl #2
3000acf0:	60800103 	addvs	r0, r0, r3, lsl #2
3000acf4:	c0ff0000 	rscgts	r0, pc, r0
3000acf8:	003f0000 	eoreqs	r0, pc, r0
	...
3000ad40:	001f0000 	andeqs	r0, pc, r0
3000ad44:	c07f0000 	rsbgts	r0, pc, r0
3000ad48:	c0c0fc00 	sbcgt	pc, r0, r0, lsl #24
3000ad4c:	6080ff01 	addvs	pc, r0, r1, lsl #30
3000ad50:	20e00303 	rsccs	r0, r0, r3, lsl #6
3000ad54:	20780202 	rsbcss	r0, r8, r2, lsl #4
3000ad58:	201e0602 	andcss	r0, lr, r2, lsl #12
3000ad5c:	4007fc03 	andmi	pc, r7, r3, lsl #24
3000ad60:	8003f001 	andhi	pc, r3, r1
3000ad64:	c0030100 	andgt	r0, r3, r0, lsl #2
3000ad68:	601c0100 	andvss	r0, ip, r0, lsl #2
3000ad6c:	20e00100 	rsccs	r0, r0, r0, lsl #2
3000ad70:	20000100 	andcs	r0, r0, r0, lsl #2
3000ad74:	40000100 	andmi	r0, r0, r0, lsl #2
3000ad78:	80010000 	andhi	r0, r1, r0
	...
3000adc4:	00002000 	andeq	r2, r0, r0
3000adc8:	0000601c 	andeq	r6, r0, ip, lsl r0
3000adcc:	0000401c 	andeq	r4, r0, ip, lsl r0
3000add0:	0000801f 	andeq	r8, r0, pc, lsl r0
3000add4:	0000000f 	andeq	r0, r0, pc
	...
3000ae5c:	00f80700 	rsceqs	r0, r8, r0, lsl #14
3000ae60:	00ff3f00 	rsceqs	r3, pc, r0, lsl #30
3000ae64:	c0077800 	andgt	r7, r7, r0, lsl #16
3000ae68:	e000c001 	and	ip, r0, r1
3000ae6c:	30000003 	andcc	r0, r0, r3
3000ae70:	08000004 	stmeqda	r0, {r2}
3000ae74:	04000008 	streq	r0, [r0], #-8
3000ae78:	02000010 	andeq	r0, r0, #16	; 0x10
	...
3000aec4:	02000010 	andeq	r0, r0, #16	; 0x10
3000aec8:	04000008 	streq	r0, [r0], #-8
3000aecc:	08000004 	stmeqda	r0, {r2}
3000aed0:	30000003 	andcc	r0, r0, r3
3000aed4:	e000c001 	and	ip, r0, r1
3000aed8:	c0077800 	andgt	r7, r7, r0, lsl #16
3000aedc:	00ff3f00 	rsceqs	r3, pc, r0, lsl #30
3000aee0:	00f80700 	rsceqs	r0, r8, r0, lsl #14
	...
3000af48:	00180c00 	andeqs	r0, r8, r0, lsl #24
3000af4c:	00380e00 	eoreqs	r0, r8, r0, lsl #28
3000af50:	00380e00 	eoreqs	r0, r8, r0, lsl #28
3000af54:	00300600 	eoreqs	r0, r0, r0, lsl #12
3000af58:	00600300 	rsbeq	r0, r0, r0, lsl #6
3000af5c:	80436100 	subhi	r6, r3, r0, lsl #2
3000af60:	80ffff00 	rschis	pc, pc, r0, lsl #30
3000af64:	00436100 	subeq	r6, r3, r0, lsl #2
3000af68:	00600300 	rsbeq	r0, r0, r0, lsl #6
3000af6c:	00300600 	eoreqs	r0, r0, r0, lsl #12
3000af70:	00380e00 	eoreqs	r0, r8, r0, lsl #28
3000af74:	00380e00 	eoreqs	r0, r8, r0, lsl #28
3000af78:	00180c00 	andeqs	r0, r8, r0, lsl #24
	...
3000afc8:	00800000 	addeq	r0, r0, r0
3000afcc:	00800000 	addeq	r0, r0, r0
3000afd0:	00800000 	addeq	r0, r0, r0
3000afd4:	00800000 	addeq	r0, r0, r0
3000afd8:	00800000 	addeq	r0, r0, r0
3000afdc:	00800000 	addeq	r0, r0, r0
3000afe0:	00ff7f00 	rsceqs	r7, pc, r0, lsl #30
3000afe4:	00800000 	addeq	r0, r0, r0
3000afe8:	00800000 	addeq	r0, r0, r0
3000afec:	00800000 	addeq	r0, r0, r0
3000aff0:	00800000 	addeq	r0, r0, r0
3000aff4:	00800000 	addeq	r0, r0, r0
3000aff8:	00800000 	addeq	r0, r0, r0
	...
3000b044:	01000000 	tsteq	r0, r0
3000b048:	e3000000 	tst	r0, #0	; 0x0
3000b04c:	e2000000 	and	r0, r0, #0	; 0x0
3000b050:	fc000000 	stc2	0, cr0, [r0], {0}
3000b054:	78000000 	stmvcda	r0, {}
	...
3000b0c4:	00800000 	addeq	r0, r0, r0
3000b0c8:	00800000 	addeq	r0, r0, r0
3000b0cc:	00800000 	addeq	r0, r0, r0
3000b0d0:	00800000 	addeq	r0, r0, r0
3000b0d4:	00800000 	addeq	r0, r0, r0
3000b0d8:	00800000 	addeq	r0, r0, r0
3000b0dc:	00800000 	addeq	r0, r0, r0
3000b0e0:	00800000 	addeq	r0, r0, r0
3000b0e4:	00800000 	addeq	r0, r0, r0
3000b0e8:	00800000 	addeq	r0, r0, r0
3000b0ec:	00800000 	addeq	r0, r0, r0
3000b0f0:	00800000 	addeq	r0, r0, r0
3000b0f4:	00800000 	addeq	r0, r0, r0
3000b0f8:	00800000 	addeq	r0, r0, r0
	...
3000b148:	c0000000 	andgt	r0, r0, r0
3000b14c:	e0010000 	and	r0, r1, r0
3000b150:	e0010000 	and	r0, r1, r0
3000b154:	c0000000 	andgt	r0, r0, r0
	...
3000b1c4:	0c000000 	stceq	0, cr0, [r0], {0}
3000b1c8:	38000000 	stmccda	r0, {}
3000b1cc:	e0000000 	and	r0, r0, r0
3000b1d0:	80030000 	andhi	r0, r3, r0
3000b1d4:	000e0000 	andeq	r0, lr, r0
3000b1d8:	00380000 	eoreqs	r0, r8, r0
3000b1dc:	00e00000 	rsceq	r0, r0, r0
3000b1e0:	00800300 	addeq	r0, r0, r0, lsl #6
3000b1e4:	00000e00 	andeq	r0, r0, r0, lsl #28
3000b1e8:	00003800 	andeq	r3, r0, r0, lsl #16
3000b1ec:	0000e000 	andeq	lr, r0, r0
3000b1f0:	00008003 	andeq	r8, r0, r3
3000b1f4:	0000000e 	andeq	r0, r0, lr
3000b1f8:	00000018 	andeq	r0, r0, r8, lsl r0
	...
3000b248:	00f80f00 	rsceqs	r0, r8, r0, lsl #30
3000b24c:	00ff7f00 	rsceqs	r7, pc, r0, lsl #30
3000b250:	8007f000 	andhi	pc, r7, r0
3000b254:	c0008001 	andgt	r8, r0, r1
3000b258:	60000003 	andvs	r0, r0, r3
3000b25c:	20000002 	andcs	r0, r0, r2
3000b260:	20000002 	andcs	r0, r0, r2
3000b264:	20000002 	andcs	r0, r0, r2
3000b268:	60000003 	andvs	r0, r0, r3
3000b26c:	c0008001 	andgt	r8, r0, r1
3000b270:	8003e000 	andhi	lr, r3, r0
3000b274:	00ff7f00 	rsceqs	r7, pc, r0, lsl #30
3000b278:	00f80f00 	rsceqs	r0, r8, r0, lsl #30
	...
3000b2cc:	20008000 	andcs	r8, r0, r0
3000b2d0:	20008000 	andcs	r8, r0, r0
3000b2d4:	20008000 	andcs	r8, r0, r0
3000b2d8:	60008000 	andvs	r8, r0, r0
3000b2dc:	e0ffff01 	rscs	pc, pc, r1, lsl #30
3000b2e0:	e0ffff03 	rscs	pc, pc, r3, lsl #30
3000b2e4:	60000000 	andvs	r0, r0, r0
3000b2e8:	20000000 	andcs	r0, r0, r0
3000b2ec:	20000000 	andcs	r0, r0, r0
3000b2f0:	20000000 	andcs	r0, r0, r0
	...
3000b348:	e0007800 	and	r7, r0, r0, lsl #16
3000b34c:	60019800 	andvs	r9, r1, r0, lsl #16
3000b350:	60020001 	andvs	r0, r2, r1
3000b354:	60040002 	andvs	r0, r4, r2
3000b358:	60080002 	andvs	r0, r8, r2
3000b35c:	60100002 	andvss	r0, r0, r2
3000b360:	60200002 	eorvs	r0, r0, r2
3000b364:	60400002 	subvs	r0, r0, r2
3000b368:	60800003 	addvs	r0, r0, r3
3000b36c:	60008301 	andvs	r8, r0, r1, lsl #6
3000b370:	e000fe01 	and	pc, r0, r1, lsl #28
3000b374:	80077c00 	andhi	r7, r7, r0, lsl #24
	...
3000b3c8:	8007f000 	andhi	pc, r7, r0
3000b3cc:	c007f001 	andgt	pc, r7, r1
3000b3d0:	40000001 	andmi	r0, r0, r1
3000b3d4:	20000002 	andcs	r0, r0, r2
3000b3d8:	20000102 	andcs	r0, r0, r2, lsl #2
3000b3dc:	20000102 	andcs	r0, r0, r2, lsl #2
3000b3e0:	20000102 	andcs	r0, r0, r2, lsl #2
3000b3e4:	20800303 	addcs	r0, r0, r3, lsl #6
3000b3e8:	40808601 	addmi	r8, r0, r1, lsl #12
3000b3ec:	c0c0fc01 	sbcgt	pc, r0, r1, lsl #24
3000b3f0:	807f7800 	rsbhis	r7, pc, r0, lsl #16
3000b3f4:	001e0000 	andeqs	r0, lr, r0
	...
3000b444:	00080000 	andeq	r0, r8, r0
3000b448:	00380000 	eoreqs	r0, r8, r0
3000b44c:	00480000 	subeq	r0, r8, r0
3000b450:	00880100 	addeq	r0, r8, r0, lsl #2
3000b454:	00080600 	andeq	r0, r8, r0, lsl #12
3000b458:	10080c00 	andne	r0, r8, r0, lsl #24
3000b45c:	10083000 	andne	r3, r8, r0
3000b460:	10084000 	andne	r4, r8, r0
3000b464:	f0ffff01 	rscnvs	pc, pc, r1, lsl #30
3000b468:	f0ffff03 	rscnvs	pc, pc, r3, lsl #30
3000b46c:	f0ffff03 	rscnvs	pc, pc, r3, lsl #30
3000b470:	10080000 	andne	r0, r8, r0
3000b474:	10080000 	andne	r0, r8, r0
3000b478:	10080000 	andne	r0, r8, r0
	...
3000b4c8:	80070000 	andhi	r0, r7, r0
3000b4cc:	40861f00 	addmi	r1, r6, r0, lsl #30
3000b4d0:	2000e103 	andcs	lr, r0, r3, lsl #2
3000b4d4:	20000203 	andcs	r0, r0, r3, lsl #4
3000b4d8:	20000403 	andcs	r0, r0, r3, lsl #8
3000b4dc:	20000403 	andcs	r0, r0, r3, lsl #8
3000b4e0:	20000403 	andcs	r0, r0, r3, lsl #8
3000b4e4:	20000403 	andcs	r0, r0, r3, lsl #8
3000b4e8:	40000603 	andmi	r0, r0, r3, lsl #12
3000b4ec:	c0010303 	andgt	r0, r1, r3, lsl #6
3000b4f0:	80ff0103 	rschis	r0, pc, r3, lsl #2
3000b4f4:	007e0003 	rsbeqs	r0, lr, r3
	...
3000b548:	00fc0700 	rsceqs	r0, ip, r0, lsl #14
3000b54c:	00ff3f00 	rsceqs	r3, pc, r0, lsl #30
3000b550:	80c37000 	sbchi	r7, r3, r0
3000b554:	c0808100 	addgt	r8, r0, r0, lsl #2
3000b558:	60000101 	andvs	r0, r0, r1, lsl #2
3000b55c:	20000203 	andcs	r0, r0, r3, lsl #4
3000b560:	20000202 	andcs	r0, r0, r2, lsl #4
3000b564:	20000202 	andcs	r0, r0, r2, lsl #4
3000b568:	20000202 	andcs	r0, r0, r2, lsl #4
3000b56c:	40000302 	andmi	r0, r0, r2, lsl #6
3000b570:	c080c101 	addgt	ip, r0, r1, lsl #2
3000b574:	80ffc000 	rschis	ip, pc, r0
3000b578:	007e0000 	rsbeqs	r0, lr, r0
	...
3000b5c8:	0000f000 	andeq	pc, r0, r0
3000b5cc:	0000c003 	andeq	ip, r0, r3
3000b5d0:	00008003 	andeq	r8, r0, r3
3000b5d4:	00000003 	andeq	r0, r0, r3
3000b5d8:	e0070003 	and	r0, r7, r3
3000b5dc:	e03f0003 	eors	r0, pc, r3
3000b5e0:	00c00103 	sbceq	r0, r0, r3, lsl #2
3000b5e4:	00000603 	andeq	r0, r0, r3, lsl #12
3000b5e8:	00001803 	andeq	r1, r0, r3, lsl #16
3000b5ec:	00006003 	andeq	r6, r0, r3
3000b5f0:	00008003 	andeq	r8, r0, r3
3000b5f4:	00000003 	andeq	r0, r0, r3
	...
3000b644:	001f0000 	andeqs	r0, pc, r0
3000b648:	803f7800 	eorhis	r7, pc, r0, lsl #16
3000b64c:	c060fc00 	rsbgt	pc, r0, r0, lsl #24
3000b650:	40c08e01 	sbcmi	r8, r0, r1, lsl #28
3000b654:	20800703 	addcs	r0, r0, r3, lsl #14
3000b658:	20000302 	andcs	r0, r0, r2, lsl #6
3000b65c:	20800102 	addcs	r0, r0, r2, lsl #2
3000b660:	20800102 	addcs	r0, r0, r2, lsl #2
3000b664:	20c00102 	sbccs	r0, r0, r2, lsl #2
3000b668:	40e00103 	rscmi	r0, r0, r3, lsl #2
3000b66c:	c0708601 	rsbgts	r8, r0, r1, lsl #12
3000b670:	803ffc00 	eorhis	pc, pc, r0, lsl #24
3000b674:	001f7800 	andeqs	r7, pc, r0, lsl #16
	...
3000b6c4:	00003f00 	andeq	r3, r0, r0, lsl #30
3000b6c8:	c081ff00 	addgt	pc, r1, r0, lsl #30
3000b6cc:	c0c1c001 	sbcgt	ip, r1, r1
3000b6d0:	20600001 	rsbcs	r0, r0, r1
3000b6d4:	20200002 	eorcs	r0, r0, r2
3000b6d8:	20200002 	eorcs	r0, r0, r2
3000b6dc:	20200002 	eorcs	r0, r0, r2
3000b6e0:	60200002 	eorvs	r0, r0, r2
3000b6e4:	c0400002 	subgt	r0, r0, r2
3000b6e8:	80c10001 	sbchi	r0, r1, r1
3000b6ec:	008fc100 	addeq	ip, pc, r0, lsl #2
3000b6f0:	00fe7f00 	rsceqs	r7, lr, r0, lsl #30
3000b6f4:	00f01f00 	rsceqs	r1, r0, r0, lsl #30
	...
3000b758:	c0000300 	andgt	r0, r0, r0, lsl #6
3000b75c:	e0810700 	add	r0, r1, r0, lsl #14
3000b760:	e0810700 	add	r0, r1, r0, lsl #14
3000b764:	c0000300 	andgt	r0, r0, r0, lsl #6
	...
3000b7d8:	66000600 	strvs	r0, [r0], -r0, lsl #12
3000b7dc:	78000600 	stmvcda	r0, {r9, sl}
	...
3000b848:	00800000 	addeq	r0, r0, r0
3000b84c:	00c00100 	sbceq	r0, r0, r0, lsl #2
3000b850:	00600300 	rsbeq	r0, r0, r0, lsl #6
3000b854:	00300600 	eoreqs	r0, r0, r0, lsl #12
3000b858:	00180c00 	andeqs	r0, r8, r0, lsl #24
3000b85c:	000c1800 	andeq	r1, ip, r0, lsl #16
3000b860:	00063000 	andeq	r3, r6, r0
3000b864:	00036000 	andeq	r6, r3, r0
3000b868:	8001c000 	andhi	ip, r1, r0
3000b86c:	40000001 	andmi	r0, r0, r1
3000b870:	20000002 	andcs	r0, r0, r2
3000b874:	10000004 	andne	r0, r0, r4
	...
3000b8c4:	00100400 	andeqs	r0, r0, r0, lsl #8
3000b8c8:	00100400 	andeqs	r0, r0, r0, lsl #8
3000b8cc:	00100400 	andeqs	r0, r0, r0, lsl #8
3000b8d0:	00100400 	andeqs	r0, r0, r0, lsl #8
3000b8d4:	00100400 	andeqs	r0, r0, r0, lsl #8
3000b8d8:	00100400 	andeqs	r0, r0, r0, lsl #8
3000b8dc:	00100400 	andeqs	r0, r0, r0, lsl #8
3000b8e0:	00100400 	andeqs	r0, r0, r0, lsl #8
3000b8e4:	00100400 	andeqs	r0, r0, r0, lsl #8
3000b8e8:	00100400 	andeqs	r0, r0, r0, lsl #8
3000b8ec:	00100400 	andeqs	r0, r0, r0, lsl #8
3000b8f0:	00100400 	andeqs	r0, r0, r0, lsl #8
3000b8f4:	00100400 	andeqs	r0, r0, r0, lsl #8
3000b8f8:	00100400 	andeqs	r0, r0, r0, lsl #8
	...
3000b948:	10000004 	andne	r0, r0, r4
3000b94c:	20000002 	andcs	r0, r0, r2
3000b950:	40000001 	andmi	r0, r0, r1
3000b954:	8001c000 	andhi	ip, r1, r0
3000b958:	00036000 	andeq	r6, r3, r0
3000b95c:	00063000 	andeq	r3, r6, r0
3000b960:	000c1800 	andeq	r1, ip, r0, lsl #16
3000b964:	00180c00 	andeqs	r0, r8, r0, lsl #24
3000b968:	00300600 	eoreqs	r0, r0, r0, lsl #12
3000b96c:	00600300 	rsbeq	r0, r0, r0, lsl #6
3000b970:	00c00100 	sbceq	r0, r0, r0, lsl #2
3000b974:	00800000 	addeq	r0, r0, r0
	...
3000b9c8:	00007800 	andeq	r7, r0, r0, lsl #16
3000b9cc:	0000f801 	andeq	pc, r0, r1, lsl #16
3000b9d0:	00003802 	andeq	r3, r0, r2, lsl #16
3000b9d4:	00000002 	andeq	r0, r0, r2
3000b9d8:	c0000004 	andgt	r0, r0, r4
3000b9dc:	e0790004 	rsbs	r0, r9, r4
3000b9e0:	e0810004 	add	r0, r1, r4
3000b9e4:	c0000104 	andgt	r0, r0, r4, lsl #2
3000b9e8:	00000304 	andeq	r0, r0, r4, lsl #6
3000b9ec:	00000202 	andeq	r0, r0, r2, lsl #4
3000b9f0:	00000603 	andeq	r0, r0, r3, lsl #12
3000b9f4:	0000fc01 	andeq	pc, r0, r1, lsl #24
3000b9f8:	0000f800 	andeq	pc, r0, r0, lsl #16
	...
3000ba44:	00f80f00 	rsceqs	r0, r8, r0, lsl #30
3000ba48:	00fe3f00 	rsceqs	r3, lr, r0, lsl #30
3000ba4c:	80077000 	andhi	r7, r7, r0
3000ba50:	c000c000 	andgt	ip, r0, r0
3000ba54:	40f80101 	rscmis	r0, r8, r1, lsl #2
3000ba58:	20fc0703 	rsccss	r0, ip, r3, lsl #14
3000ba5c:	20041e02 	andcs	r1, r4, r2, lsl #28
3000ba60:	20083002 	andcs	r3, r8, r2
3000ba64:	20302002 	eorcss	r2, r0, r2
3000ba68:	20fc3f02 	rsccss	r3, ip, r2, lsl #30
3000ba6c:	40043f01 	andmi	r3, r4, r1, lsl #30
3000ba70:	c00c8001 	andgt	r8, ip, r1
3000ba74:	8031e000 	eorhis	lr, r1, r0
3000ba78:	00c21f00 	sbceq	r1, r2, r0, lsl #30
	...
3000bac0:	20000000 	andcs	r0, r0, r0
3000bac4:	60000000 	andvs	r0, r0, r0
3000bac8:	e0030000 	and	r0, r3, r0
3000bacc:	203e0000 	eorcss	r0, lr, r0
3000bad0:	20e00300 	rsccs	r0, r0, r0, lsl #6
3000bad4:	00203e00 	eoreq	r3, r0, r0, lsl #28
3000bad8:	0020e003 	eoreq	lr, r0, r3
3000badc:	00208003 	eoreq	r8, r0, r3
3000bae0:	0020fc07 	eoreq	pc, r0, r7, lsl #24
3000bae4:	00e03f00 	rsceq	r3, r0, r0, lsl #30
3000bae8:	20fe0300 	rsccss	r0, lr, r0, lsl #6
3000baec:	e03f0000 	eors	r0, pc, r0
3000baf0:	e0010000 	and	r0, r1, r0
3000baf4:	20000000 	andcs	r0, r0, r0
3000baf8:	20000000 	andcs	r0, r0, r0
	...
3000bb44:	20000002 	andcs	r0, r0, r2
3000bb48:	20000002 	andcs	r0, r0, r2
3000bb4c:	e0ffff03 	rscs	pc, pc, r3, lsl #30
3000bb50:	e0ffff03 	rscs	pc, pc, r3, lsl #30
3000bb54:	20000102 	andcs	r0, r0, r2, lsl #2
3000bb58:	20000102 	andcs	r0, r0, r2, lsl #2
3000bb5c:	20000102 	andcs	r0, r0, r2, lsl #2
3000bb60:	20000102 	andcs	r0, r0, r2, lsl #2
3000bb64:	20000102 	andcs	r0, r0, r2, lsl #2
3000bb68:	20000303 	andcs	r0, r0, r3, lsl #6
3000bb6c:	60808601 	addvs	r8, r0, r1, lsl #12
3000bb70:	c0c0fc01 	sbcgt	pc, r0, r1, lsl #24
3000bb74:	807ff800 	rsbhis	pc, pc, r0, lsl #16
3000bb78:	001f0000 	andeqs	r0, pc, r0
	...
3000bbc4:	00f80700 	rsceqs	r0, r8, r0, lsl #14
3000bbc8:	00ff3f00 	rsceqs	r3, pc, r0, lsl #30
3000bbcc:	80077000 	andhi	r7, r7, r0
3000bbd0:	c000c000 	andgt	ip, r0, r0
3000bbd4:	40000001 	andmi	r0, r0, r1
3000bbd8:	20000003 	andcs	r0, r0, r3
3000bbdc:	20000002 	andcs	r0, r0, r2
3000bbe0:	20000002 	andcs	r0, r0, r2
3000bbe4:	20000002 	andcs	r0, r0, r2
3000bbe8:	20000002 	andcs	r0, r0, r2
3000bbec:	40000001 	andmi	r0, r0, r1
3000bbf0:	c0008001 	andgt	r8, r0, r1
3000bbf4:	8001c003 	andhi	ip, r1, r3
3000bbf8:	00063000 	andeq	r3, r6, r0
	...
3000bc44:	20000002 	andcs	r0, r0, r2
3000bc48:	20000002 	andcs	r0, r0, r2
3000bc4c:	e0ffff03 	rscs	pc, pc, r3, lsl #30
3000bc50:	e0ffff03 	rscs	pc, pc, r3, lsl #30
3000bc54:	20000002 	andcs	r0, r0, r2
3000bc58:	20000002 	andcs	r0, r0, r2
3000bc5c:	20000002 	andcs	r0, r0, r2
3000bc60:	20000002 	andcs	r0, r0, r2
3000bc64:	60000003 	andvs	r0, r0, r3
3000bc68:	40000001 	andmi	r0, r0, r1
3000bc6c:	c0008001 	andgt	r8, r0, r1
3000bc70:	8007f000 	andhi	pc, r7, r0
3000bc74:	00fe7f00 	rsceqs	r7, lr, r0, lsl #30
3000bc78:	00f80f00 	rsceqs	r0, r8, r0, lsl #30
	...
3000bcc4:	20000002 	andcs	r0, r0, r2
3000bcc8:	20000002 	andcs	r0, r0, r2
3000bccc:	e0ffff03 	rscs	pc, pc, r3, lsl #30
3000bcd0:	e0ffff03 	rscs	pc, pc, r3, lsl #30
3000bcd4:	20000102 	andcs	r0, r0, r2, lsl #2
3000bcd8:	20000102 	andcs	r0, r0, r2, lsl #2
3000bcdc:	20000102 	andcs	r0, r0, r2, lsl #2
3000bce0:	20000102 	andcs	r0, r0, r2, lsl #2
3000bce4:	20000102 	andcs	r0, r0, r2, lsl #2
3000bce8:	20800302 	addcs	r0, r0, r2, lsl #6
3000bcec:	20e00f02 	rsccs	r0, r0, r2, lsl #30
3000bcf0:	60000003 	andvs	r0, r0, r3
3000bcf4:	e000c003 	and	ip, r0, r3
3000bcf8:	00036000 	andeq	r6, r3, r0
	...
3000bd44:	20000002 	andcs	r0, r0, r2
3000bd48:	20000002 	andcs	r0, r0, r2
3000bd4c:	e0ffff03 	rscs	pc, pc, r3, lsl #30
3000bd50:	e0ffff03 	rscs	pc, pc, r3, lsl #30
3000bd54:	20000102 	andcs	r0, r0, r2, lsl #2
3000bd58:	20000102 	andcs	r0, r0, r2, lsl #2
3000bd5c:	00000102 	andeq	r0, r0, r2, lsl #2
3000bd60:	00000102 	andeq	r0, r0, r2, lsl #2
3000bd64:	00000102 	andeq	r0, r0, r2, lsl #2
3000bd68:	00000102 	andeq	r0, r0, r2, lsl #2
3000bd6c:	00800302 	addeq	r0, r0, r2, lsl #6
3000bd70:	00e00f03 	rsceq	r0, r0, r3, lsl #30
3000bd74:	00000003 	andeq	r0, r0, r3
3000bd78:	0000c003 	andeq	ip, r0, r3
3000bd7c:	00006000 	andeq	r6, r0, r0
	...
3000bdc4:	00f80700 	rsceqs	r0, r8, r0, lsl #14
3000bdc8:	00fe3f00 	rsceqs	r3, lr, r0, lsl #30
3000bdcc:	80077000 	andhi	r7, r7, r0
3000bdd0:	c001c001 	andgt	ip, r1, r1
3000bdd4:	40000001 	andmi	r0, r0, r1
3000bdd8:	20000003 	andcs	r0, r0, r3
3000bddc:	20000002 	andcs	r0, r0, r2
3000bde0:	20000002 	andcs	r0, r0, r2
3000bde4:	20000002 	andcs	r0, r0, r2
3000bde8:	20200001 	eorcs	r0, r0, r1
3000bdec:	40200001 	eormi	r0, r0, r1
3000bdf0:	803fc003 	eorhis	ip, pc, r3
3000bdf4:	803f3000 	eorhis	r3, pc, r0
3000bdf8:	00200000 	eoreq	r0, r0, r0
3000bdfc:	00200000 	eoreq	r0, r0, r0
	...
3000be40:	20000002 	andcs	r0, r0, r2
3000be44:	20000002 	andcs	r0, r0, r2
3000be48:	e0ffff03 	rscs	pc, pc, r3, lsl #30
3000be4c:	e0ffff03 	rscs	pc, pc, r3, lsl #30
3000be50:	20800002 	addcs	r0, r0, r2
3000be54:	20800002 	addcs	r0, r0, r2
3000be58:	00800000 	addeq	r0, r0, r0
3000be5c:	00800000 	addeq	r0, r0, r0
3000be60:	00800000 	addeq	r0, r0, r0
3000be64:	20800002 	addcs	r0, r0, r2
3000be68:	20800002 	addcs	r0, r0, r2
3000be6c:	e0ffff03 	rscs	pc, pc, r3, lsl #30
3000be70:	e0ffff03 	rscs	pc, pc, r3, lsl #30
3000be74:	20000002 	andcs	r0, r0, r2
3000be78:	20000002 	andcs	r0, r0, r2
	...
3000becc:	20000002 	andcs	r0, r0, r2
3000bed0:	20000002 	andcs	r0, r0, r2
3000bed4:	20000002 	andcs	r0, r0, r2
3000bed8:	20000002 	andcs	r0, r0, r2
3000bedc:	e0ffff03 	rscs	pc, pc, r3, lsl #30
3000bee0:	e0ffff03 	rscs	pc, pc, r3, lsl #30
3000bee4:	20000002 	andcs	r0, r0, r2
3000bee8:	20000002 	andcs	r0, r0, r2
3000beec:	20000002 	andcs	r0, r0, r2
3000bef0:	20000002 	andcs	r0, r0, r2
	...
3000bf44:	0e000000 	cdpeq	0, 0, cr0, cr0, cr0, {0}
3000bf48:	0f000000 	swieq	0x00000000
3000bf4c:	0f000000 	swieq	0x00000000
3000bf50:	01000000 	tsteq	r0, r0
3000bf54:	01000002 	tsteq	r0, r2
3000bf58:	01000002 	tsteq	r0, r2
3000bf5c:	03000002 	tsteq	r0, #2	; 0x2
3000bf60:	06000002 	streq	r0, [r0], -r2
3000bf64:	fcffff03 	ldc2l	15, cr15, [pc], #12
3000bf68:	f8ffff03 	ldmnvia	pc!, {r0, r1, r8, r9, sl, fp, ip, sp, lr, pc}^
3000bf6c:	00000002 	andeq	r0, r0, r2
3000bf70:	00000002 	andeq	r0, r0, r2
3000bf74:	00000002 	andeq	r0, r0, r2
3000bf78:	00000002 	andeq	r0, r0, r2
	...
3000bfc4:	20000002 	andcs	r0, r0, r2
3000bfc8:	20000002 	andcs	r0, r0, r2
3000bfcc:	e0ffff03 	rscs	pc, pc, r3, lsl #30
3000bfd0:	e0ffff03 	rscs	pc, pc, r3, lsl #30
3000bfd4:	20c00002 	sbccs	r0, r0, r2
3000bfd8:	20000102 	andcs	r0, r0, r2, lsl #2
3000bfdc:	00800700 	addeq	r0, r0, r0, lsl #14
3000bfe0:	00e00f00 	rsceq	r0, r0, r0, lsl #30
3000bfe4:	00f83000 	rsceqs	r3, r8, r0
3000bfe8:	203e6002 	eorcss	r6, lr, r2
3000bfec:	200f8003 	andcs	r8, pc, r3
3000bff0:	e0030003 	and	r0, r3, r3
3000bff4:	e0000002 	and	r0, r0, r2
3000bff8:	20000002 	andcs	r0, r0, r2
3000bffc:	20000000 	andcs	r0, r0, r0
	...
3000c044:	20000002 	andcs	r0, r0, r2
3000c048:	20000002 	andcs	r0, r0, r2
3000c04c:	e0ffff03 	rscs	pc, pc, r3, lsl #30
3000c050:	e0ffff03 	rscs	pc, pc, r3, lsl #30
3000c054:	20000002 	andcs	r0, r0, r2
3000c058:	20000002 	andcs	r0, r0, r2
3000c05c:	20000000 	andcs	r0, r0, r0
3000c060:	20000000 	andcs	r0, r0, r0
3000c064:	20000000 	andcs	r0, r0, r0
3000c068:	20000000 	andcs	r0, r0, r0
3000c06c:	20000000 	andcs	r0, r0, r0
3000c070:	60000000 	andvs	r0, r0, r0
3000c074:	e0000000 	and	r0, r0, r0
3000c078:	00030000 	andeq	r0, r3, r0
	...
3000c0c0:	20000002 	andcs	r0, r0, r2
3000c0c4:	20000002 	andcs	r0, r0, r2
3000c0c8:	e0ffff03 	rscs	pc, pc, r3, lsl #30
3000c0cc:	2000e003 	andcs	lr, r0, r3
3000c0d0:	2000ff03 	andcs	pc, r0, r3, lsl #30
3000c0d4:	00f01f00 	rsceqs	r1, r0, r0, lsl #30
3000c0d8:	80ff0100 	rschis	r0, pc, r0, lsl #2
3000c0dc:	e00f0000 	and	r0, pc, r0
3000c0e0:	001e0000 	andeqs	r0, lr, r0
3000c0e4:	00e00300 	rsceq	r0, r0, r0, lsl #6
3000c0e8:	20003e00 	andcs	r3, r0, r0, lsl #28
3000c0ec:	2000e003 	andcs	lr, r0, r3
3000c0f0:	e0ffff03 	rscs	pc, pc, r3, lsl #30
3000c0f4:	e0ffff03 	rscs	pc, pc, r3, lsl #30
3000c0f8:	20000002 	andcs	r0, r0, r2
3000c0fc:	20000002 	andcs	r0, r0, r2
	...
3000c140:	20000002 	andcs	r0, r0, r2
3000c144:	20000002 	andcs	r0, r0, r2
3000c148:	e0ffff03 	rscs	pc, pc, r3, lsl #30
3000c14c:	20008003 	andcs	r8, r0, r3
3000c150:	2000f003 	andcs	pc, r0, r3
3000c154:	0000fc00 	andeq	pc, r0, r0, lsl #24
3000c158:	00001f00 	andeq	r1, r0, r0, lsl #30
3000c15c:	00c00700 	sbceq	r0, r0, r0, lsl #14
3000c160:	00f00100 	rsceqs	r0, r0, r0, lsl #2
3000c164:	007c0000 	rsbeqs	r0, ip, r0
3000c168:	801f0002 	andhis	r0, pc, r2
3000c16c:	e0070002 	and	r0, r7, r2
3000c170:	e0ffff03 	rscs	pc, pc, r3, lsl #30
3000c174:	00000002 	andeq	r0, r0, r2
3000c178:	00000002 	andeq	r0, r0, r2
	...
3000c1c4:	00f80f00 	rsceqs	r0, r8, r0, lsl #30
3000c1c8:	00fe3f00 	rsceqs	r3, lr, r0, lsl #30
3000c1cc:	8007f000 	andhi	pc, r7, r0
3000c1d0:	c0008001 	andgt	r8, r0, r1
3000c1d4:	40000001 	andmi	r0, r0, r1
3000c1d8:	20000002 	andcs	r0, r0, r2
3000c1dc:	20000002 	andcs	r0, r0, r2
3000c1e0:	20000002 	andcs	r0, r0, r2
3000c1e4:	20000002 	andcs	r0, r0, r2
3000c1e8:	40000001 	andmi	r0, r0, r1
3000c1ec:	c0008001 	andgt	r8, r0, r1
3000c1f0:	8003f000 	andhi	pc, r3, r0
3000c1f4:	00fe3f00 	rsceqs	r3, lr, r0, lsl #30
3000c1f8:	00f80f00 	rsceqs	r0, r8, r0, lsl #30
	...
3000c244:	20000002 	andcs	r0, r0, r2
3000c248:	20000002 	andcs	r0, r0, r2
3000c24c:	e0ffff03 	rscs	pc, pc, r3, lsl #30
3000c250:	e0ffff03 	rscs	pc, pc, r3, lsl #30
3000c254:	20800002 	addcs	r0, r0, r2
3000c258:	20800002 	addcs	r0, r0, r2
3000c25c:	00800002 	addeq	r0, r0, r2
3000c260:	00800002 	addeq	r0, r0, r2
3000c264:	00800002 	addeq	r0, r0, r2
3000c268:	00800002 	addeq	r0, r0, r2
3000c26c:	00800103 	addeq	r0, r0, r3, lsl #2
3000c270:	00008301 	andeq	r8, r0, r1, lsl #6
3000c274:	0000fe00 	andeq	pc, r0, r0, lsl #28
3000c278:	00007c00 	andeq	r7, r0, r0, lsl #24
	...
3000c2c4:	00f80f00 	rsceqs	r0, r8, r0, lsl #30
3000c2c8:	00ff7f00 	rsceqs	r7, pc, r0, lsl #30
3000c2cc:	8003f000 	andhi	pc, r3, r0
3000c2d0:	c0018001 	andgt	r8, r1, r1
3000c2d4:	40060001 	andmi	r0, r6, r1
3000c2d8:	20040002 	andcs	r0, r4, r2
3000c2dc:	20040002 	andcs	r0, r4, r2
3000c2e0:	20060002 	andcs	r0, r6, r2
3000c2e4:	e0030002 	and	r0, r3, r2
3000c2e8:	f8000001 	stmnvda	r0, {r0}
3000c2ec:	5c008001 	stcpl	0, cr8, [r0], {1}
3000c2f0:	8c03e000 	stchi	0, cr14, [r3], {0}
3000c2f4:	0cff3f00 	ldceql	15, cr3, [pc]
3000c2f8:	18fc0f00 	ldmneia	ip!, {r8, r9, sl, fp}^
	...
3000c344:	20000002 	andcs	r0, r0, r2
3000c348:	20000002 	andcs	r0, r0, r2
3000c34c:	e0ffff03 	rscs	pc, pc, r3, lsl #30
3000c350:	e0ffff03 	rscs	pc, pc, r3, lsl #30
3000c354:	20000102 	andcs	r0, r0, r2, lsl #2
3000c358:	20000102 	andcs	r0, r0, r2, lsl #2
3000c35c:	00800102 	addeq	r0, r0, r2, lsl #2
3000c360:	00e00102 	rsceq	r0, r0, r2, lsl #2
3000c364:	00fc0102 	rsceqs	r0, ip, r2, lsl #2
3000c368:	803f0303 	eorhis	r0, pc, r3, lsl #6
3000c36c:	e0078601 	and	r8, r7, r1, lsl #12
3000c370:	e000fc01 	and	pc, r0, r1, lsl #24
3000c374:	2000f800 	andcs	pc, r0, r0, lsl #16
3000c378:	20000000 	andcs	r0, r0, r0
	...
3000c3c8:	00067800 	andeq	r7, r6, r0, lsl #16
3000c3cc:	e001fe00 	and	pc, r1, r0, lsl #28
3000c3d0:	c0008601 	andgt	r8, r0, r1, lsl #12
3000c3d4:	40000303 	andmi	r0, r0, r3, lsl #6
3000c3d8:	20000302 	andcs	r0, r0, r2, lsl #6
3000c3dc:	20800102 	addcs	r0, r0, r2, lsl #2
3000c3e0:	20800102 	addcs	r0, r0, r2, lsl #2
3000c3e4:	20c00102 	sbccs	r0, r0, r2, lsl #2
3000c3e8:	20c00002 	sbccs	r0, r0, r2
3000c3ec:	60e00001 	rscvs	r0, r0, r1
3000c3f0:	c0708001 	rsbgts	r8, r0, r1
3000c3f4:	803fe003 	eorhis	lr, pc, r3
3000c3f8:	001f0000 	andeqs	r0, pc, r0
	...
3000c444:	00006000 	andeq	r6, r0, r0
3000c448:	00008003 	andeq	r8, r0, r3
3000c44c:	00000003 	andeq	r0, r0, r3
3000c450:	00000002 	andeq	r0, r0, r2
3000c454:	20000002 	andcs	r0, r0, r2
3000c458:	20000002 	andcs	r0, r0, r2
3000c45c:	e0ffff03 	rscs	pc, pc, r3, lsl #30
3000c460:	e0ffff03 	rscs	pc, pc, r3, lsl #30
3000c464:	20000002 	andcs	r0, r0, r2
3000c468:	20000002 	andcs	r0, r0, r2
3000c46c:	00000002 	andeq	r0, r0, r2
3000c470:	00000002 	andeq	r0, r0, r2
3000c474:	00008003 	andeq	r8, r0, r3
3000c478:	0000e000 	andeq	lr, r0, r0
	...
3000c4c0:	00000002 	andeq	r0, r0, r2
3000c4c4:	00000002 	andeq	r0, r0, r2
3000c4c8:	00ffff03 	rsceqs	pc, pc, r3, lsl #30
3000c4cc:	c0ffff03 	rscgts	pc, pc, r3, lsl #30
3000c4d0:	40000002 	andmi	r0, r0, r2
3000c4d4:	60000002 	andvs	r0, r0, r2
3000c4d8:	20000000 	andcs	r0, r0, r0
3000c4dc:	20000000 	andcs	r0, r0, r0
3000c4e0:	20000000 	andcs	r0, r0, r0
3000c4e4:	20000000 	andcs	r0, r0, r0
3000c4e8:	40000002 	andmi	r0, r0, r2
3000c4ec:	80000002 	andhi	r0, r0, r2
3000c4f0:	00ffff03 	rsceqs	pc, pc, r3, lsl #30
3000c4f4:	00000002 	andeq	r0, r0, r2
3000c4f8:	00000002 	andeq	r0, r0, r2
	...
3000c544:	00000002 	andeq	r0, r0, r2
3000c548:	00000002 	andeq	r0, r0, r2
3000c54c:	0000c003 	andeq	ip, r0, r3
3000c550:	0000fc03 	andeq	pc, r0, r3, lsl #24
3000c554:	00c03f02 	sbceq	r3, r0, r2, lsl #30
3000c558:	00f80300 	rsceqs	r0, r8, r0, lsl #6
3000c55c:	807f0000 	rsbhis	r0, pc, r0
3000c560:	e0070000 	and	r0, r7, r0
3000c564:	80070000 	andhi	r0, r7, r0
3000c568:	00780000 	rsbeqs	r0, r8, r0
3000c56c:	00c00302 	sbceq	r0, r0, r2, lsl #6
3000c570:	00003c02 	andeq	r3, r0, r2, lsl #24
3000c574:	0000c003 	andeq	ip, r0, r3
3000c578:	00000002 	andeq	r0, r0, r2
3000c57c:	00000002 	andeq	r0, r0, r2
	...
3000c5c0:	00000002 	andeq	r0, r0, r2
3000c5c4:	0000c003 	andeq	ip, r0, r3
3000c5c8:	0080ff03 	addeq	pc, r0, r3, lsl #30
3000c5cc:	00fe3f02 	rsceqs	r3, lr, r2, lsl #30
3000c5d0:	e07f0002 	rsbs	r0, pc, r2
3000c5d4:	000f0000 	andeq	r0, pc, r0
3000c5d8:	00f00002 	rsceqs	r0, r0, r2
3000c5dc:	0000ef03 	andeq	lr, r0, r3, lsl #30
3000c5e0:	0080ff03 	addeq	pc, r0, r3, lsl #30
3000c5e4:	00fe0f02 	rsceqs	r0, lr, r2, lsl #30
3000c5e8:	e03f0000 	eors	r0, pc, r0
3000c5ec:	001f0000 	andeqs	r0, pc, r0
3000c5f0:	00e00702 	rsceq	r0, r0, r2, lsl #14
3000c5f4:	0000f803 	andeq	pc, r0, r3, lsl #16
3000c5f8:	00000003 	andeq	r0, r0, r3
3000c5fc:	00000002 	andeq	r0, r0, r2
	...
3000c644:	20000002 	andcs	r0, r0, r2
3000c648:	20000002 	andcs	r0, r0, r2
3000c64c:	e0008003 	and	r8, r0, r3
3000c650:	2003f003 	andcs	pc, r3, r3
3000c654:	200cfc02 	andcs	pc, ip, r2, lsl #24
3000c658:	00301f02 	eoreqs	r1, r0, r2, lsl #30
3000c65c:	00c00700 	sbceq	r0, r0, r0, lsl #14
3000c660:	00f00700 	rsceqs	r0, r0, r0, lsl #14
3000c664:	007c1802 	rsbeqs	r1, ip, r2, lsl #16
3000c668:	201f6002 	andcss	r6, pc, r2
3000c66c:	e0038003 	and	r8, r3, r3
3000c670:	e0000002 	and	r0, r0, r2
3000c674:	20000002 	andcs	r0, r0, r2
3000c678:	20000000 	andcs	r0, r0, r0
	...
3000c6c4:	00000002 	andeq	r0, r0, r2
3000c6c8:	00000003 	andeq	r0, r0, r3
3000c6cc:	0000c003 	andeq	ip, r0, r3
3000c6d0:	0000f803 	andeq	pc, r0, r3, lsl #16
3000c6d4:	20003e02 	andcs	r3, r0, r2, lsl #28
3000c6d8:	20c00f02 	sbccs	r0, r0, r2, lsl #30
3000c6dc:	e0ff0100 	rscs	r0, pc, r0, lsl #2
3000c6e0:	e07f0000 	rsbs	r0, pc, r0
3000c6e4:	20800300 	addcs	r0, r0, r0, lsl #6
3000c6e8:	20001c02 	andcs	r1, r0, r2, lsl #24
3000c6ec:	00007002 	andeq	r7, r0, r2
3000c6f0:	00008003 	andeq	r8, r0, r3
3000c6f4:	00000002 	andeq	r0, r0, r2
3000c6f8:	00000002 	andeq	r0, r0, r2
	...
3000c744:	20000000 	andcs	r0, r0, r0
3000c748:	e0006000 	and	r6, r0, r0
3000c74c:	e0038003 	and	r8, r3, r3
3000c750:	a00f0003 	andge	r0, pc, r3
3000c754:	203e0002 	eorcss	r0, lr, r2
3000c758:	20f80002 	rsccss	r0, r8, r2
3000c75c:	20e00302 	rsccs	r0, r0, r2, lsl #6
3000c760:	20800f02 	addcs	r0, r0, r2, lsl #30
3000c764:	20003e02 	andcs	r3, r0, r2, lsl #28
3000c768:	20007802 	andcs	r7, r0, r2, lsl #16
3000c76c:	6000e003 	andvs	lr, r0, r3
3000c770:	e0008003 	and	r8, r0, r3
3000c774:	00030002 	andeq	r0, r3, r2
	...
3000c7d8:	fcffff1f 	ldc2l	15, cr15, [pc], #124
3000c7dc:	04000010 	streq	r0, [r0], #-16
3000c7e0:	04000010 	streq	r0, [r0], #-16
3000c7e4:	04000010 	streq	r0, [r0], #-16
3000c7e8:	04000010 	streq	r0, [r0], #-16
3000c7ec:	04000010 	streq	r0, [r0], #-16
3000c7f0:	04000010 	streq	r0, [r0], #-16
3000c7f4:	04000010 	streq	r0, [r0], #-16
	...
3000c84c:	00000007 	andeq	r0, r0, r7
3000c850:	0000c003 	andeq	ip, r0, r3
3000c854:	00007800 	andeq	r7, r0, r0, lsl #16
3000c858:	00001e00 	andeq	r1, r0, r0, lsl #28
3000c85c:	00c00300 	sbceq	r0, r0, r0, lsl #6
3000c860:	00f00000 	rsceqs	r0, r0, r0
3000c864:	001e0000 	andeqs	r0, lr, r0
3000c868:	80070000 	andhi	r0, r7, r0
3000c86c:	f0000000 	andnv	r0, r0, r0
3000c870:	3c000000 	stccc	0, cr0, [r0], {0}
3000c874:	06000000 	streq	r0, [r0], -r0
	...
3000c8c8:	04000010 	streq	r0, [r0], #-16
3000c8cc:	04000010 	streq	r0, [r0], #-16
3000c8d0:	04000010 	streq	r0, [r0], #-16
3000c8d4:	04000010 	streq	r0, [r0], #-16
3000c8d8:	04000010 	streq	r0, [r0], #-16
3000c8dc:	04000010 	streq	r0, [r0], #-16
3000c8e0:	04000010 	streq	r0, [r0], #-16
3000c8e4:	fcffff1f 	ldc2l	15, cr15, [pc], #124
	...
3000c950:	00000002 	andeq	r0, r0, r2
3000c954:	00000004 	andeq	r0, r0, r4
3000c958:	00000008 	andeq	r0, r0, r8
3000c95c:	00000018 	andeq	r0, r0, r8, lsl r0
3000c960:	00000010 	andeq	r0, r0, r0, lsl r0
3000c964:	00000018 	andeq	r0, r0, r8, lsl r0
3000c968:	00000018 	andeq	r0, r0, r8, lsl r0
3000c96c:	00000004 	andeq	r0, r0, r4
3000c970:	00000002 	andeq	r0, r0, r2
	...
3000c9c0:	01000000 	tsteq	r0, r0
3000c9c4:	01000000 	tsteq	r0, r0
3000c9c8:	01000000 	tsteq	r0, r0
3000c9cc:	01000000 	tsteq	r0, r0
3000c9d0:	01000000 	tsteq	r0, r0
3000c9d4:	01000000 	tsteq	r0, r0
3000c9d8:	01000000 	tsteq	r0, r0
3000c9dc:	01000000 	tsteq	r0, r0
3000c9e0:	01000000 	tsteq	r0, r0
3000c9e4:	01000000 	tsteq	r0, r0
3000c9e8:	01000000 	tsteq	r0, r0
3000c9ec:	01000000 	tsteq	r0, r0
3000c9f0:	01000000 	tsteq	r0, r0
3000c9f4:	01000000 	tsteq	r0, r0
3000c9f8:	01000000 	tsteq	r0, r0
3000c9fc:	01000000 	tsteq	r0, r0
	...
3000ca4c:	00000010 	andeq	r0, r0, r0, lsl r0
3000ca50:	00000010 	andeq	r0, r0, r0, lsl r0
3000ca54:	00000010 	andeq	r0, r0, r0, lsl r0
3000ca58:	00000018 	andeq	r0, r0, r8, lsl r0
3000ca5c:	00000008 	andeq	r0, r0, r8
3000ca60:	00000004 	andeq	r0, r0, r4
	...
3000cac4:	80030000 	andhi	r0, r3, r0
3000cac8:	c08f0100 	addgt	r0, pc, r0, lsl #2
3000cacc:	608c0300 	addvs	r0, ip, r0, lsl #6
3000cad0:	20180600 	andcss	r0, r8, r0, lsl #12
3000cad4:	20100400 	andcss	r0, r0, r0, lsl #8
3000cad8:	20100400 	andcss	r0, r0, r0, lsl #8
3000cadc:	20200400 	eorcs	r0, r0, r0, lsl #8
3000cae0:	40200400 	eormi	r0, r0, r0, lsl #8
3000cae4:	40200600 	eormi	r0, r0, r0, lsl #12
3000cae8:	c0ff0300 	rscgts	r0, pc, r0, lsl #6
3000caec:	e0ff0100 	rscs	r0, pc, r0, lsl #2
3000caf0:	20000000 	andcs	r0, r0, r0
3000caf4:	20000000 	andcs	r0, r0, r0
3000caf8:	c0000000 	andgt	r0, r0, r0
	...
3000cb44:	00000002 	andeq	r0, r0, r2
3000cb48:	00000002 	andeq	r0, r0, r2
3000cb4c:	e0ffff03 	rscs	pc, pc, r3, lsl #30
3000cb50:	c0ffff07 	rscgts	pc, pc, r7, lsl #30
3000cb54:	c0800100 	addgt	r0, r0, r0, lsl #2
3000cb58:	60000200 	andvs	r0, r0, r0, lsl #4
3000cb5c:	20000200 	andcs	r0, r0, r0, lsl #4
3000cb60:	20000400 	andcs	r0, r0, r0, lsl #8
3000cb64:	20000400 	andcs	r0, r0, r0, lsl #8
3000cb68:	20000400 	andcs	r0, r0, r0, lsl #8
3000cb6c:	40000600 	andmi	r0, r0, r0, lsl #12
3000cb70:	c0000300 	andgt	r0, r0, r0, lsl #6
3000cb74:	80ff0100 	rschis	r0, pc, r0, lsl #2
3000cb78:	00fe0000 	rsceqs	r0, lr, r0
	...
3000cbc8:	007e0000 	rsbeqs	r0, lr, r0
3000cbcc:	80ff0100 	rschis	r0, pc, r0, lsl #2
3000cbd0:	c0810300 	addgt	r0, r1, r0, lsl #6
3000cbd4:	40000200 	andmi	r0, r0, r0, lsl #4
3000cbd8:	20000600 	andcs	r0, r0, r0, lsl #12
3000cbdc:	20000400 	andcs	r0, r0, r0, lsl #8
3000cbe0:	20000400 	andcs	r0, r0, r0, lsl #8
3000cbe4:	20000400 	andcs	r0, r0, r0, lsl #8
3000cbe8:	20000600 	andcs	r0, r0, r0, lsl #12
3000cbec:	40c00300 	sbcmi	r0, r0, r0, lsl #6
3000cbf0:	80c00100 	sbchi	r0, r0, r0, lsl #2
3000cbf4:	00030000 	andeq	r0, r3, r0
	...
3000cc48:	007e0000 	rsbeqs	r0, lr, r0
3000cc4c:	80ff0100 	rschis	r0, pc, r0, lsl #2
3000cc50:	c0800300 	addgt	r0, r0, r0, lsl #6
3000cc54:	60000600 	andvs	r0, r0, r0, lsl #12
3000cc58:	20000400 	andcs	r0, r0, r0, lsl #8
3000cc5c:	20000400 	andcs	r0, r0, r0, lsl #8
3000cc60:	20000400 	andcs	r0, r0, r0, lsl #8
3000cc64:	40000402 	andmi	r0, r0, r2, lsl #8
3000cc68:	80000202 	andhi	r0, r0, r2, lsl #4
3000cc6c:	e0ffff03 	rscs	pc, pc, r3, lsl #30
3000cc70:	c0ffff07 	rscgts	pc, pc, r7, lsl #30
3000cc74:	40000000 	andmi	r0, r0, r0
3000cc78:	40000000 	andmi	r0, r0, r0
	...
3000ccc8:	007e0000 	rsbeqs	r0, lr, r0
3000cccc:	80ff0100 	rschis	r0, pc, r0, lsl #2
3000ccd0:	c0110300 	andgts	r0, r1, r0, lsl #6
3000ccd4:	40100200 	andmis	r0, r0, r0, lsl #4
3000ccd8:	60100400 	andvss	r0, r0, r0, lsl #8
3000ccdc:	20100400 	andcss	r0, r0, r0, lsl #8
3000cce0:	20100400 	andcss	r0, r0, r0, lsl #8
3000cce4:	20100400 	andcss	r0, r0, r0, lsl #8
3000cce8:	20100600 	andcss	r0, r0, r0, lsl #12
3000ccec:	40100300 	andmis	r0, r0, r0, lsl #6
3000ccf0:	c0f00100 	rscgts	r0, r0, r0, lsl #2
3000ccf4:	00710000 	rsbeqs	r0, r1, r0
	...
3000cd48:	00000400 	andeq	r0, r0, r0, lsl #8
3000cd4c:	20000400 	andcs	r0, r0, r0, lsl #8
3000cd50:	20000400 	andcs	r0, r0, r0, lsl #8
3000cd54:	20000400 	andcs	r0, r0, r0, lsl #8
3000cd58:	e0ff7f00 	rscs	r7, pc, r0, lsl #30
3000cd5c:	e0ffff01 	rscs	pc, pc, r1, lsl #30
3000cd60:	20000401 	andcs	r0, r0, r1, lsl #8
3000cd64:	20000403 	andcs	r0, r0, r3, lsl #8
3000cd68:	20000402 	andcs	r0, r0, r2, lsl #8
3000cd6c:	20000402 	andcs	r0, r0, r2, lsl #8
3000cd70:	00000402 	andeq	r0, r0, r2, lsl #8
3000cd74:	00000002 	andeq	r0, r0, r2
3000cd78:	0000c001 	andeq	ip, r0, r1
3000cd7c:	0000c001 	andeq	ip, r0, r1
	...
3000cdc8:	1c000000 	stcne	0, cr0, [r0], {0}
3000cdcc:	3ee30000 	cdpcc	0, 14, cr0, cr3, cr0, {0}
3000cdd0:	c2ff0300 	rscgts	r0, pc, #0	; 0x0
3000cdd4:	c30c0200 	tstgt	ip, #0	; 0x0
3000cdd8:	c1040400 	tstgt	r4, r0, lsl #8
3000cddc:	c1040400 	tstgt	r4, r0, lsl #8
3000cde0:	c1040400 	tstgt	r4, r0, lsl #8
3000cde4:	c1040400 	tstgt	r4, r0, lsl #8
3000cde8:	c10c0600 	tstgt	ip, r0, lsl #12
3000cdec:	c3f80300 	mvngts	r0, #0	; 0x0
3000cdf0:	62f00500 	rscvss	r0, r0, #0	; 0x0
3000cdf4:	7e000600 	cfmadd32vc	mvax0, mvfx0, mvfx0, mvfx0
3000cdf8:	3c000600 	stccc	6, cr0, [r0], {0}
	...
3000ce44:	20000002 	andcs	r0, r0, r2
3000ce48:	20000002 	andcs	r0, r0, r2
3000ce4c:	e0ffff03 	rscs	pc, pc, r3, lsl #30
3000ce50:	e0ffff07 	rscs	pc, pc, r7, lsl #30
3000ce54:	20000100 	andcs	r0, r0, r0, lsl #2
3000ce58:	20000200 	andcs	r0, r0, r0, lsl #4
3000ce5c:	00000600 	andeq	r0, r0, r0, lsl #12
3000ce60:	00000400 	andeq	r0, r0, r0, lsl #8
3000ce64:	00000400 	andeq	r0, r0, r0, lsl #8
3000ce68:	20000400 	andcs	r0, r0, r0, lsl #8
3000ce6c:	20000600 	andcs	r0, r0, r0, lsl #12
3000ce70:	e0ff0300 	rscs	r0, pc, r0, lsl #6
3000ce74:	e0ff0100 	rscs	r0, pc, r0, lsl #2
3000ce78:	20000000 	andcs	r0, r0, r0
3000ce7c:	20000000 	andcs	r0, r0, r0
	...
3000cecc:	20000400 	andcs	r0, r0, r0, lsl #8
3000ced0:	20000400 	andcs	r0, r0, r0, lsl #8
3000ced4:	20000400 	andcs	r0, r0, r0, lsl #8
3000ced8:	20000400 	andcs	r0, r0, r0, lsl #8
3000cedc:	e0ff8703 	rscs	r8, pc, r3, lsl #14
3000cee0:	e0ff8f03 	rscs	r8, pc, r3, lsl #30
3000cee4:	20008003 	andcs	r8, r0, r3
3000cee8:	20000000 	andcs	r0, r0, r0
3000ceec:	20000000 	andcs	r0, r0, r0
3000cef0:	20000000 	andcs	r0, r0, r0
	...
3000cf4c:	06000000 	streq	r0, [r0], -r0
3000cf50:	07000000 	streq	r0, [r0, -r0]
3000cf54:	01000000 	tsteq	r0, r0
3000cf58:	01000000 	tsteq	r0, r0
3000cf5c:	01000400 	tsteq	r0, r0, lsl #8
3000cf60:	01000400 	tsteq	r0, r0, lsl #8
3000cf64:	03000400 	tsteq	r0, #0	; 0x0
3000cf68:	06000400 	streq	r0, [r0], -r0, lsl #8
3000cf6c:	fcff8703 	ldc2l	7, cr8, [pc], #12
3000cf70:	f8ff8f03 	ldmnvia	pc!, {r0, r1, r8, r9, sl, fp, pc}^
3000cf74:	00008003 	andeq	r8, r0, r3
	...
3000cfc4:	20000002 	andcs	r0, r0, r2
3000cfc8:	20000002 	andcs	r0, r0, r2
3000cfcc:	e0ffff03 	rscs	pc, pc, r3, lsl #30
3000cfd0:	e0ffff07 	rscs	pc, pc, r7, lsl #30
3000cfd4:	20080000 	andcs	r0, r8, r0
3000cfd8:	20100000 	andcss	r0, r0, r0
3000cfdc:	00300000 	eoreqs	r0, r0, r0
3000cfe0:	00fc0000 	rsceqs	r0, ip, r0
3000cfe4:	008e0500 	addeq	r0, lr, r0, lsl #10
3000cfe8:	a0070700 	andge	r0, r7, r0, lsl #14
3000cfec:	e0010600 	and	r0, r1, r0, lsl #12
3000cff0:	e0000400 	and	r0, r0, r0, lsl #8
3000cff4:	20000400 	andcs	r0, r0, r0, lsl #8
3000cff8:	20000000 	andcs	r0, r0, r0
	...
3000d04c:	20000002 	andcs	r0, r0, r2
3000d050:	20000002 	andcs	r0, r0, r2
3000d054:	20000002 	andcs	r0, r0, r2
3000d058:	20000002 	andcs	r0, r0, r2
3000d05c:	e0ffff03 	rscs	pc, pc, r3, lsl #30
3000d060:	e0ffff07 	rscs	pc, pc, r7, lsl #30
3000d064:	20000000 	andcs	r0, r0, r0
3000d068:	20000000 	andcs	r0, r0, r0
3000d06c:	20000000 	andcs	r0, r0, r0
3000d070:	20000000 	andcs	r0, r0, r0
	...
3000d0c4:	20000400 	andcs	r0, r0, r0, lsl #8
3000d0c8:	e0ff0700 	rscs	r0, pc, r0, lsl #14
3000d0cc:	e0ff0f00 	rscs	r0, pc, r0, lsl #30
3000d0d0:	20000200 	andcs	r0, r0, r0, lsl #4
3000d0d4:	00000400 	andeq	r0, r0, r0, lsl #8
3000d0d8:	20000400 	andcs	r0, r0, r0, lsl #8
3000d0dc:	e0ff0700 	rscs	r0, pc, r0, lsl #14
3000d0e0:	e0ff0300 	rscs	r0, pc, r0, lsl #6
3000d0e4:	20000200 	andcs	r0, r0, r0, lsl #4
3000d0e8:	00000400 	andeq	r0, r0, r0, lsl #8
3000d0ec:	20000400 	andcs	r0, r0, r0, lsl #8
3000d0f0:	e0ff0700 	rscs	r0, pc, r0, lsl #14
3000d0f4:	e0ff0300 	rscs	r0, pc, r0, lsl #6
3000d0f8:	20000000 	andcs	r0, r0, r0
	...
3000d144:	20000400 	andcs	r0, r0, r0, lsl #8
3000d148:	20000400 	andcs	r0, r0, r0, lsl #8
3000d14c:	e0ff0700 	rscs	r0, pc, r0, lsl #14
3000d150:	e0ff0f00 	rscs	r0, pc, r0, lsl #30
3000d154:	20000100 	andcs	r0, r0, r0, lsl #2
3000d158:	20000200 	andcs	r0, r0, r0, lsl #4
3000d15c:	00000200 	andeq	r0, r0, r0, lsl #4
3000d160:	00000400 	andeq	r0, r0, r0, lsl #8
3000d164:	00000400 	andeq	r0, r0, r0, lsl #8
3000d168:	20000400 	andcs	r0, r0, r0, lsl #8
3000d16c:	20000600 	andcs	r0, r0, r0, lsl #12
3000d170:	e0ff0300 	rscs	r0, pc, r0, lsl #6
3000d174:	e0ff0100 	rscs	r0, pc, r0, lsl #2
3000d178:	20000000 	andcs	r0, r0, r0
3000d17c:	20000000 	andcs	r0, r0, r0
	...
3000d1c8:	007e0000 	rsbeqs	r0, lr, r0
3000d1cc:	80ff0000 	rschis	r0, pc, r0
3000d1d0:	c0810300 	addgt	r0, r1, r0, lsl #6
3000d1d4:	40000200 	andmi	r0, r0, r0, lsl #4
3000d1d8:	20000600 	andcs	r0, r0, r0, lsl #12
3000d1dc:	20000400 	andcs	r0, r0, r0, lsl #8
3000d1e0:	20000400 	andcs	r0, r0, r0, lsl #8
3000d1e4:	20000400 	andcs	r0, r0, r0, lsl #8
3000d1e8:	20000600 	andcs	r0, r0, r0, lsl #12
3000d1ec:	40000200 	andmi	r0, r0, r0, lsl #4
3000d1f0:	c0810300 	addgt	r0, r1, r0, lsl #6
3000d1f4:	80ff0100 	rschis	r0, pc, r0, lsl #2
3000d1f8:	007e0000 	rsbeqs	r0, lr, r0
	...
3000d244:	01000400 	tsteq	r0, r0, lsl #8
3000d248:	01000400 	tsteq	r0, r0, lsl #8
3000d24c:	ffff0700 	swinv	0x00ff0700
3000d250:	ffff0f00 	swinv	0x00ff0f00
3000d254:	c1000100 	tstgt	r0, r0, lsl #2
3000d258:	41000200 	tstmi	r0, r0, lsl #4
3000d25c:	20000400 	andcs	r0, r0, r0, lsl #8
3000d260:	20000400 	andcs	r0, r0, r0, lsl #8
3000d264:	20000400 	andcs	r0, r0, r0, lsl #8
3000d268:	20000400 	andcs	r0, r0, r0, lsl #8
3000d26c:	40000600 	andmi	r0, r0, r0, lsl #12
3000d270:	c0010300 	andgt	r0, r1, r0, lsl #6
3000d274:	80ff0100 	rschis	r0, pc, r0, lsl #2
3000d278:	007e0000 	rsbeqs	r0, lr, r0
	...
3000d2c8:	007e0000 	rsbeqs	r0, lr, r0
3000d2cc:	80ff0100 	rschis	r0, pc, r0, lsl #2
3000d2d0:	c0800300 	addgt	r0, r0, r0, lsl #6
3000d2d4:	60000200 	andvs	r0, r0, r0, lsl #4
3000d2d8:	20000400 	andcs	r0, r0, r0, lsl #8
3000d2dc:	20000400 	andcs	r0, r0, r0, lsl #8
3000d2e0:	20000400 	andcs	r0, r0, r0, lsl #8
3000d2e4:	20000400 	andcs	r0, r0, r0, lsl #8
3000d2e8:	41000200 	tstmi	r0, r0, lsl #4
3000d2ec:	c1000300 	tstgt	r0, r0, lsl #6
3000d2f0:	ffff0300 	swinv	0x00ff0300
3000d2f4:	ffff0700 	swinv	0x00ff0700
3000d2f8:	01000000 	tsteq	r0, r0
3000d2fc:	01000000 	tsteq	r0, r0
	...
3000d344:	20000400 	andcs	r0, r0, r0, lsl #8
3000d348:	20000400 	andcs	r0, r0, r0, lsl #8
3000d34c:	20000400 	andcs	r0, r0, r0, lsl #8
3000d350:	20000400 	andcs	r0, r0, r0, lsl #8
3000d354:	e0ff0f00 	rscs	r0, pc, r0, lsl #30
3000d358:	e0ff0f00 	rscs	r0, pc, r0, lsl #30
3000d35c:	20c00000 	sbccs	r0, r0, r0
3000d360:	20000100 	andcs	r0, r0, r0, lsl #2
3000d364:	20000200 	andcs	r0, r0, r0, lsl #4
3000d368:	20000600 	andcs	r0, r0, r0, lsl #12
3000d36c:	00000400 	andeq	r0, r0, r0, lsl #8
3000d370:	00000400 	andeq	r0, r0, r0, lsl #8
3000d374:	00000700 	andeq	r0, r0, r0, lsl #14
3000d378:	00000300 	andeq	r0, r0, r0, lsl #6
	...
3000d3c8:	e0030000 	and	r0, r3, r0
3000d3cc:	e0c00100 	sbc	r0, r0, r0, lsl #2
3000d3d0:	40e00300 	rscmi	r0, r0, r0, lsl #6
3000d3d4:	20300600 	eorcss	r0, r0, r0, lsl #12
3000d3d8:	20300400 	eorcss	r0, r0, r0, lsl #8
3000d3dc:	20180400 	andcss	r0, r8, r0, lsl #8
3000d3e0:	20180400 	andcss	r0, r8, r0, lsl #8
3000d3e4:	20180400 	andcss	r0, r8, r0, lsl #8
3000d3e8:	200c0400 	andcs	r0, ip, r0, lsl #8
3000d3ec:	600c0200 	andvs	r0, ip, r0, lsl #4
3000d3f0:	c0070300 	andgt	r0, r7, r0, lsl #6
3000d3f4:	80830700 	addhi	r0, r3, r0, lsl #14
	...
3000d448:	00000400 	andeq	r0, r0, r0, lsl #8
3000d44c:	00000400 	andeq	r0, r0, r0, lsl #8
3000d450:	00000400 	andeq	r0, r0, r0, lsl #8
3000d454:	00000c00 	andeq	r0, r0, r0, lsl #24
3000d458:	80ff1f00 	rschis	r1, pc, r0, lsl #30
3000d45c:	c0ffff00 	rscgts	pc, pc, r0, lsl #30
3000d460:	60000400 	andvs	r0, r0, r0, lsl #8
3000d464:	20000400 	andcs	r0, r0, r0, lsl #8
3000d468:	20000400 	andcs	r0, r0, r0, lsl #8
3000d46c:	20000400 	andcs	r0, r0, r0, lsl #8
3000d470:	40000400 	andmi	r0, r0, r0, lsl #8
3000d474:	80010000 	andhi	r0, r1, r0
	...
3000d4c4:	00000400 	andeq	r0, r0, r0, lsl #8
3000d4c8:	00000400 	andeq	r0, r0, r0, lsl #8
3000d4cc:	80ff0700 	rschis	r0, pc, r0, lsl #14
3000d4d0:	c0ff0f00 	rscgts	r0, pc, r0, lsl #30
3000d4d4:	60000000 	andvs	r0, r0, r0
3000d4d8:	20000000 	andcs	r0, r0, r0
3000d4dc:	20000000 	andcs	r0, r0, r0
3000d4e0:	20000000 	andcs	r0, r0, r0
3000d4e4:	20000000 	andcs	r0, r0, r0
3000d4e8:	40000400 	andmi	r0, r0, r0, lsl #8
3000d4ec:	80000400 	andhi	r0, r0, r0, lsl #8
3000d4f0:	e0ff0700 	rscs	r0, pc, r0, lsl #14
3000d4f4:	c0ff0f00 	rscgts	r0, pc, r0, lsl #30
3000d4f8:	40000000 	andmi	r0, r0, r0
3000d4fc:	40000000 	andmi	r0, r0, r0
	...
3000d544:	00000400 	andeq	r0, r0, r0, lsl #8
3000d548:	00000400 	andeq	r0, r0, r0, lsl #8
3000d54c:	00800700 	addeq	r0, r0, r0, lsl #14
3000d550:	00f00700 	rsceqs	r0, r0, r0, lsl #14
3000d554:	00fe0400 	rsceqs	r0, lr, r0, lsl #8
3000d558:	c01f0400 	andgts	r0, pc, r0, lsl #8
3000d55c:	e0030000 	and	r0, r3, r0
3000d560:	80030000 	andhi	r0, r3, r0
3000d564:	001c0000 	andeqs	r0, ip, r0
3000d568:	00600400 	rsbeq	r0, r0, r0, lsl #8
3000d56c:	00800700 	addeq	r0, r0, r0, lsl #14
3000d570:	00000600 	andeq	r0, r0, r0, lsl #12
3000d574:	00000400 	andeq	r0, r0, r0, lsl #8
	...
3000d5c0:	00000400 	andeq	r0, r0, r0, lsl #8
3000d5c4:	00000600 	andeq	r0, r0, r0, lsl #12
3000d5c8:	00c00700 	sbceq	r0, r0, r0, lsl #14
3000d5cc:	00fc0700 	rsceqs	r0, ip, r0, lsl #14
3000d5d0:	803f0400 	eorhis	r0, pc, r0, lsl #8
3000d5d4:	e0030000 	and	r0, r3, r0
3000d5d8:	800f0400 	andhi	r0, pc, r0, lsl #8
3000d5dc:	00f00600 	rsceqs	r0, r0, r0, lsl #12
3000d5e0:	00f00700 	rsceqs	r0, r0, r0, lsl #14
3000d5e4:	80ff0700 	rschis	r0, pc, r0, lsl #14
3000d5e8:	e00f0400 	and	r0, pc, r0, lsl #8
3000d5ec:	80030000 	andhi	r0, r3, r0
3000d5f0:	003c0400 	eoreqs	r0, ip, r0, lsl #8
3000d5f4:	00c00700 	sbceq	r0, r0, r0, lsl #14
3000d5f8:	00000600 	andeq	r0, r0, r0, lsl #12
3000d5fc:	00000400 	andeq	r0, r0, r0, lsl #8
	...
3000d644:	20000000 	andcs	r0, r0, r0
3000d648:	20000400 	andcs	r0, r0, r0, lsl #8
3000d64c:	60000400 	andvs	r0, r0, r0, lsl #8
3000d650:	e0000700 	and	r0, r0, r0, lsl #14
3000d654:	20830700 	addcs	r0, r3, r0, lsl #14
3000d658:	00e60700 	rsceq	r0, r6, r0, lsl #14
3000d65c:	00f80400 	rsceqs	r0, r8, r0, lsl #8
3000d660:	003c0000 	eoreqs	r0, ip, r0
3000d664:	205e0400 	subcss	r0, lr, r0, lsl #8
3000d668:	a0870500 	addge	r0, r7, r0, lsl #10
3000d66c:	e0010600 	and	r0, r1, r0, lsl #12
3000d670:	60000400 	andvs	r0, r0, r0, lsl #8
3000d674:	20000400 	andcs	r0, r0, r0, lsl #8
3000d678:	20000000 	andcs	r0, r0, r0
	...
3000d6c4:	00000400 	andeq	r0, r0, r0, lsl #8
3000d6c8:	03000400 	tsteq	r0, #0	; 0x0
3000d6cc:	03000700 	tsteq	r0, #0	; 0x0
3000d6d0:	01e00700 	mvneq	r0, r0, lsl #14
3000d6d4:	01f80400 	mvneqs	r0, r0, lsl #8
3000d6d8:	021f0400 	andeqs	r0, pc, #0	; 0x0
3000d6dc:	fc070000 	stc2	0, cr0, [r7], {0}
3000d6e0:	e0000000 	and	r0, r0, r0
3000d6e4:	00070000 	andeq	r0, r7, r0
3000d6e8:	00380400 	eoreqs	r0, r8, r0, lsl #8
3000d6ec:	00c00700 	sbceq	r0, r0, r0, lsl #14
3000d6f0:	00000600 	andeq	r0, r0, r0, lsl #12
3000d6f4:	00000400 	andeq	r0, r0, r0, lsl #8
3000d6f8:	00000400 	andeq	r0, r0, r0, lsl #8
	...
3000d748:	60800700 	addvs	r0, r0, r0, lsl #14
3000d74c:	e0000600 	and	r0, r0, r0, lsl #12
3000d750:	e0030400 	and	r0, r3, r0, lsl #8
3000d754:	a0070400 	andge	r0, r7, r0, lsl #8
3000d758:	200e0400 	andcs	r0, lr, r0, lsl #8
3000d75c:	203c0400 	eorcss	r0, ip, r0, lsl #8
3000d760:	20700400 	rsbcss	r0, r0, r0, lsl #8
3000d764:	20e00500 	rsccs	r0, r0, r0, lsl #10
3000d768:	20800700 	addcs	r0, r0, r0, lsl #14
3000d76c:	60000700 	andvs	r0, r0, r0, lsl #14
3000d770:	e0000400 	and	r0, r0, r0, lsl #8
3000d774:	80030000 	andhi	r0, r3, r0
	...
3000d7dc:	00800000 	addeq	r0, r0, r0
3000d7e0:	00800000 	addeq	r0, r0, r0
3000d7e4:	00400100 	subeq	r0, r0, r0, lsl #2
3000d7e8:	f83ffe07 	ldmnvda	pc!, {r0, r1, r2, r9, sl, fp, ip, sp, lr, pc}
3000d7ec:	04000008 	streq	r0, [r0], #-8
3000d7f0:	02000010 	andeq	r0, r0, #16	; 0x10
3000d7f4:	02000010 	andeq	r0, r0, #16	; 0x10
	...
3000d860:	ffffffff 	swinv	0x00ffffff
	...
3000d8c8:	02000010 	andeq	r0, r0, #16	; 0x10
3000d8cc:	02000010 	andeq	r0, r0, #16	; 0x10
3000d8d0:	04000008 	streq	r0, [r0], #-8
3000d8d4:	f83ffe07 	ldmnvda	pc!, {r0, r1, r2, r9, sl, fp, ip, sp, lr, pc}
3000d8d8:	00400100 	subeq	r0, r0, r0, lsl #2
3000d8dc:	00800000 	addeq	r0, r0, r0
3000d8e0:	00800000 	addeq	r0, r0, r0
	...
3000d944:	00000018 	andeq	r0, r0, r8, lsl r0
3000d948:	00000030 	andeq	r0, r0, r0, lsr r0
3000d94c:	00000040 	andeq	r0, r0, r0, asr #32
3000d950:	00000040 	andeq	r0, r0, r0, asr #32
3000d954:	00000040 	andeq	r0, r0, r0, asr #32
3000d958:	00000020 	andeq	r0, r0, r0, lsr #32
3000d95c:	00000030 	andeq	r0, r0, r0, lsr r0
3000d960:	00000008 	andeq	r0, r0, r8
3000d964:	00000004 	andeq	r0, r0, r4
3000d968:	00000002 	andeq	r0, r0, r2
3000d96c:	00000002 	andeq	r0, r0, r2
3000d970:	00000002 	andeq	r0, r0, r2
3000d974:	0000000c 	andeq	r0, r0, ip
3000d978:	00000018 	andeq	r0, r0, r8, lsl r0
	...

3000d9c0 <oled_asc2_8x16>:
	...
3000d9d0:	f8000000 	stmnvda	r0, {}
3000d9d4:	00000000 	andeq	r0, r0, r0
3000d9d8:	33000000 	tstcc	r0, #0	; 0x0
3000d9dc:	00000030 	andeq	r0, r0, r0, lsr r0
3000d9e0:	060c1000 	streq	r1, [ip], -r0
3000d9e4:	00060c10 	andeq	r0, r6, r0, lsl ip
	...
3000d9f0:	4078c040 	rsbmis	ip, r8, r0, asr #32
3000d9f4:	004078c0 	subeq	r7, r0, r0, asr #17
3000d9f8:	04043f04 	streq	r3, [r4], #-3844
3000d9fc:	0004043f 	andeq	r0, r4, pc, lsr r4
3000da00:	fc887000 	stc2	0, cr7, [r8], {0}
3000da04:	00003008 	andeq	r3, r0, r8
3000da08:	ff201800 	swinv	0x00201800
3000da0c:	00001e21 	andeq	r1, r0, r1, lsr #28
3000da10:	00f008f0 	ldreqsh	r0, [r0], #128
3000da14:	000018e0 	andeq	r1, r0, r0, ror #17
3000da18:	031c2100 	tsteq	ip, #0	; 0x0
3000da1c:	001e211e 	andeqs	r2, lr, lr, lsl r1
3000da20:	8808f000 	stmhida	r8, {ip, sp, lr, pc}
3000da24:	00000070 	andeq	r0, r0, r0, ror r0
3000da28:	2423211e 	strcst	r2, [r3], #-286
3000da2c:	10212719 	eorne	r2, r1, r9, lsl r7
3000da30:	000e1610 	andeq	r1, lr, r0, lsl r6
	...
3000da40:	e0000000 	and	r0, r0, r0
3000da44:	00020418 	andeq	r0, r2, r8, lsl r4
3000da48:	07000000 	streq	r0, [r0, -r0]
3000da4c:	00402018 	subeq	r2, r0, r8, lsl r0
3000da50:	18040200 	stmneda	r4, {r9}
3000da54:	000000e0 	andeq	r0, r0, r0, ror #1
3000da58:	18204000 	stmneda	r0!, {lr}
3000da5c:	00000007 	andeq	r0, r0, r7
3000da60:	f0804040 	addnv	r4, r0, r0, asr #32
3000da64:	00404080 	subeq	r4, r0, r0, lsl #1
3000da68:	0f010202 	swieq	0x00010202
3000da6c:	00020201 	andeq	r0, r2, r1, lsl #4
3000da70:	f0000000 	andnv	r0, r0, r0
3000da74:	00000000 	andeq	r0, r0, r0
3000da78:	1f010101 	swine	0x00010101
3000da7c:	00010101 	andeq	r0, r1, r1, lsl #2
	...
3000da88:	0070b080 	rsbeqs	fp, r0, r0, lsl #1
	...
3000da98:	01010100 	tsteq	r1, r0, lsl #2
3000da9c:	01010101 	tsteq	r1, r1, lsl #2
	...
3000daa8:	00303000 	eoreqs	r3, r0, r0
	...
3000dab4:	04186080 	ldreq	r6, [r8], #-128
3000dab8:	06186000 	ldreq	r6, [r8], -r0
3000dabc:	00000001 	andeq	r0, r0, r1
3000dac0:	0810e000 	ldmeqda	r0, {sp, lr, pc}
3000dac4:	00e01008 	rsceq	r1, r0, r8
3000dac8:	20100f00 	andcss	r0, r0, r0, lsl #30
3000dacc:	000f1020 	andeq	r1, pc, r0, lsr #32
3000dad0:	f8101000 	ldmnvda	r0, {ip}
3000dad4:	00000000 	andeq	r0, r0, r0
3000dad8:	3f202000 	swicc	0x00202000
3000dadc:	00002020 	andeq	r2, r0, r0, lsr #32
3000dae0:	08087000 	stmeqda	r8, {ip, sp, lr}
3000dae4:	00708808 	rsbeqs	r8, r0, r8, lsl #16
3000dae8:	24283000 	strcst	r3, [r8]
3000daec:	00302122 	eoreqs	r2, r0, r2, lsr #2
3000daf0:	88083000 	stmhida	r8, {ip, sp}
3000daf4:	00304888 	eoreqs	r4, r0, r8, lsl #17
3000daf8:	20201800 	eorcs	r1, r0, r0, lsl #16
3000dafc:	000e1120 	andeq	r1, lr, r0, lsr #2
3000db00:	20c00000 	sbccs	r0, r0, r0
3000db04:	0000f810 	andeq	pc, r0, r0, lsl r8
3000db08:	24040700 	strcs	r0, [r4], #-1792
3000db0c:	00243f24 	eoreq	r3, r4, r4, lsr #30
3000db10:	8808f800 	stmhida	r8, {fp, ip, sp, lr, pc}
3000db14:	00080888 	andeq	r0, r8, r8, lsl #17
3000db18:	20211900 	eorcs	r1, r1, r0, lsl #18
3000db1c:	000e1120 	andeq	r1, lr, r0, lsr #2
3000db20:	8810e000 	ldmhida	r0, {sp, lr, pc}
3000db24:	00001888 	andeq	r1, r0, r8, lsl #17
3000db28:	20110f00 	andcss	r0, r1, r0, lsl #30
3000db2c:	000e1120 	andeq	r1, lr, r0, lsr #2
3000db30:	08083800 	stmeqda	r8, {fp, ip, sp}
3000db34:	000838c8 	andeq	r3, r8, r8, asr #17
3000db38:	3f000000 	swicc	0x00000000
3000db3c:	00000000 	andeq	r0, r0, r0
3000db40:	08887000 	stmeqia	r8, {ip, sp, lr}
3000db44:	00708808 	rsbeqs	r8, r0, r8, lsl #16
3000db48:	21221c00 	teqcs	r2, r0, lsl #24
3000db4c:	001c2221 	andeqs	r2, ip, r1, lsr #4
3000db50:	0810e000 	ldmeqda	r0, {sp, lr, pc}
3000db54:	00e01008 	rsceq	r1, r0, r8
3000db58:	22310000 	eorcss	r0, r1, #0	; 0x0
3000db5c:	000f1122 	andeq	r1, pc, r2, lsr #2
3000db60:	c0000000 	andgt	r0, r0, r0
3000db64:	000000c0 	andeq	r0, r0, r0, asr #1
3000db68:	30000000 	andcc	r0, r0, r0
3000db6c:	00000030 	andeq	r0, r0, r0, lsr r0
3000db70:	80000000 	andhi	r0, r0, r0
3000db74:	00000000 	andeq	r0, r0, r0
3000db78:	60800000 	addvs	r0, r0, r0
3000db7c:	00000000 	andeq	r0, r0, r0
3000db80:	40800000 	addmi	r0, r0, r0
3000db84:	00081020 	andeq	r1, r8, r0, lsr #32
3000db88:	04020100 	streq	r0, [r2], #-256
3000db8c:	00201008 	eoreq	r1, r0, r8
3000db90:	40404040 	submi	r4, r0, r0, asr #32
3000db94:	00404040 	subeq	r4, r0, r0, asr #32
3000db98:	04040404 	streq	r0, [r4], #-1028
3000db9c:	00040404 	andeq	r0, r4, r4, lsl #8
3000dba0:	20100800 	andcss	r0, r0, r0, lsl #16
3000dba4:	00008040 	andeq	r8, r0, r0, asr #32
3000dba8:	08102000 	ldmeqda	r0, {sp}
3000dbac:	00010204 	andeq	r0, r1, r4, lsl #4
3000dbb0:	08487000 	stmeqda	r8, {ip, sp, lr}^
3000dbb4:	00f00808 	rsceqs	r0, r0, r8, lsl #16
3000dbb8:	30000000 	andcc	r0, r0, r0
3000dbbc:	00000136 	andeq	r0, r0, r6, lsr r1
3000dbc0:	28c830c0 	stmcsia	r8, {r6, r7, ip, sp}^
3000dbc4:	00e010e8 	rsceq	r1, r0, r8, ror #1
3000dbc8:	24271807 	strcst	r1, [r7], #-2055
3000dbcc:	000b1423 	andeq	r1, fp, r3, lsr #8
3000dbd0:	38c00000 	stmccia	r0, {}^
3000dbd4:	000000e0 	andeq	r0, r0, r0, ror #1
3000dbd8:	02233c20 	eoreq	r3, r3, #8192	; 0x2000
3000dbdc:	20382702 	eorcss	r2, r8, r2, lsl #14
3000dbe0:	8888f808 	stmhiia	r8, {r3, fp, ip, sp, lr, pc}
3000dbe4:	00007088 	andeq	r7, r0, r8, lsl #1
3000dbe8:	20203f20 	eorcs	r3, r0, r0, lsr #30
3000dbec:	000e1120 	andeq	r1, lr, r0, lsr #2
3000dbf0:	080830c0 	stmeqda	r8, {r6, r7, ip, sp}
3000dbf4:	00380808 	eoreqs	r0, r8, r8, lsl #16
3000dbf8:	20201807 	eorcs	r1, r0, r7, lsl #16
3000dbfc:	00081020 	andeq	r1, r8, r0, lsr #32
3000dc00:	0808f808 	stmeqda	r8, {r3, fp, ip, sp, lr, pc}
3000dc04:	00e01008 	rsceq	r1, r0, r8
3000dc08:	20203f20 	eorcs	r3, r0, r0, lsr #30
3000dc0c:	000f1020 	andeq	r1, pc, r0, lsr #32
3000dc10:	8888f808 	stmhiia	r8, {r3, fp, ip, sp, lr, pc}
3000dc14:	001008e8 	andeqs	r0, r0, r8, ror #17
3000dc18:	20203f20 	eorcs	r3, r0, r0, lsr #30
3000dc1c:	00182023 	andeqs	r2, r8, r3, lsr #32
3000dc20:	8888f808 	stmhiia	r8, {r3, fp, ip, sp, lr, pc}
3000dc24:	001008e8 	andeqs	r0, r0, r8, ror #17
3000dc28:	00203f20 	eoreq	r3, r0, r0, lsr #30
3000dc2c:	00000003 	andeq	r0, r0, r3
3000dc30:	080830c0 	stmeqda	r8, {r6, r7, ip, sp}
3000dc34:	00003808 	andeq	r3, r0, r8, lsl #16
3000dc38:	20201807 	eorcs	r1, r0, r7, lsl #16
3000dc3c:	00021e22 	andeq	r1, r2, r2, lsr #28
3000dc40:	0008f808 	andeq	pc, r8, r8, lsl #16
3000dc44:	08f80800 	ldmeqia	r8!, {fp}^
3000dc48:	01213f20 	teqeq	r1, r0, lsr #30
3000dc4c:	203f2101 	eorcss	r2, pc, r1, lsl #2
3000dc50:	f8080800 	stmnvda	r8, {fp}
3000dc54:	00000808 	andeq	r0, r0, r8, lsl #16
3000dc58:	3f202000 	swicc	0x00202000
3000dc5c:	00002020 	andeq	r2, r0, r0, lsr #32
3000dc60:	08080000 	stmeqda	r8, {}
3000dc64:	000808f8 	streqd	r0, [r8], -r8
3000dc68:	808080c0 	addhi	r8, r0, r0, asr #1
3000dc6c:	0000007f 	andeq	r0, r0, pc, ror r0
3000dc70:	c088f808 	addgt	pc, r8, r8, lsl #16
3000dc74:	00081828 	andeq	r1, r8, r8, lsr #16
3000dc78:	01203f20 	teqeq	r0, r0, lsr #30
3000dc7c:	00203826 	eoreq	r3, r0, r6, lsr #16
3000dc80:	0008f808 	andeq	pc, r8, r8, lsl #16
3000dc84:	00000000 	andeq	r0, r0, r0
3000dc88:	20203f20 	eorcs	r3, r0, r0, lsr #30
3000dc8c:	00302020 	eoreqs	r2, r0, r0, lsr #32
3000dc90:	00f8f808 	rsceqs	pc, r8, r8, lsl #16
3000dc94:	0008f8f8 	streqd	pc, [r8], -r8
3000dc98:	3f003f20 	swicc	0x00003f20
3000dc9c:	00203f00 	eoreq	r3, r0, r0, lsl #30
3000dca0:	c030f808 	eorgts	pc, r0, r8, lsl #16
3000dca4:	08f80800 	ldmeqia	r8!, {fp}^
3000dca8:	00203f20 	eoreq	r3, r0, r0, lsr #30
3000dcac:	003f1807 	eoreqs	r1, pc, r7, lsl #16
3000dcb0:	080810e0 	stmeqda	r8, {r5, r6, r7, ip}
3000dcb4:	00e01008 	rsceq	r1, r0, r8
3000dcb8:	2020100f 	eorcs	r1, r0, pc
3000dcbc:	000f1020 	andeq	r1, pc, r0, lsr #32
3000dcc0:	0808f808 	stmeqda	r8, {r3, fp, ip, sp, lr, pc}
3000dcc4:	00f00808 	rsceqs	r0, r0, r8, lsl #16
3000dcc8:	01213f20 	teqeq	r1, r0, lsr #30
3000dccc:	00000101 	andeq	r0, r0, r1, lsl #2
3000dcd0:	080810e0 	stmeqda	r8, {r5, r6, r7, ip}
3000dcd4:	00e01008 	rsceq	r1, r0, r8
3000dcd8:	2424180f 	strcst	r1, [r4], #-2063
3000dcdc:	004f5038 	subeq	r5, pc, r8, lsr r0
3000dce0:	8888f808 	stmhiia	r8, {r3, fp, ip, sp, lr, pc}
3000dce4:	00708888 	rsbeqs	r8, r0, r8, lsl #17
3000dce8:	00203f20 	eoreq	r3, r0, r0, lsr #30
3000dcec:	20300c03 	eorcss	r0, r0, r3, lsl #24
3000dcf0:	08887000 	stmeqia	r8, {ip, sp, lr}
3000dcf4:	00380808 	eoreqs	r0, r8, r8, lsl #16
3000dcf8:	21203800 	teqcs	r0, r0, lsl #16
3000dcfc:	001c2221 	andeqs	r2, ip, r1, lsr #4
3000dd00:	f8080818 	stmnvda	r8, {r3, r4, fp}
3000dd04:	00180808 	andeqs	r0, r8, r8, lsl #16
3000dd08:	3f200000 	swicc	0x00200000
3000dd0c:	00000020 	andeq	r0, r0, r0, lsr #32
3000dd10:	0008f808 	andeq	pc, r8, r8, lsl #16
3000dd14:	08f80800 	ldmeqia	r8!, {fp}^
3000dd18:	20201f00 	eorcs	r1, r0, r0, lsl #30
3000dd1c:	001f2020 	andeqs	r2, pc, r0, lsr #32
3000dd20:	00887808 	addeq	r7, r8, r8, lsl #16
3000dd24:	0838c800 	ldmeqda	r8!, {fp, lr, pc}
3000dd28:	38070000 	stmccda	r7, {}
3000dd2c:	0000010e 	andeq	r0, r0, lr, lsl #2
3000dd30:	f80008f8 	stmnvda	r0, {r3, r4, r5, r6, r7, fp}
3000dd34:	00f80800 	rsceqs	r0, r8, r0, lsl #16
3000dd38:	00073c03 	andeq	r3, r7, r3, lsl #24
3000dd3c:	00033c07 	andeq	r3, r3, r7, lsl #24
3000dd40:	80681808 	rsbhi	r1, r8, r8, lsl #16
3000dd44:	08186880 	ldmeqda	r8, {r7, fp, sp, lr}
3000dd48:	032c3020 	teqeq	ip, #32	; 0x20
3000dd4c:	20302c03 	eorcss	r2, r0, r3, lsl #24
3000dd50:	00c83808 	sbceq	r3, r8, r8, lsl #16
3000dd54:	000838c8 	andeq	r3, r8, r8, asr #17
3000dd58:	3f200000 	swicc	0x00200000
3000dd5c:	00000020 	andeq	r0, r0, r0, lsr #32
3000dd60:	08080810 	stmeqda	r8, {r4, fp}
3000dd64:	000838c8 	andeq	r3, r8, r8, asr #17
3000dd68:	21263820 	teqcs	r6, r0, lsr #16
3000dd6c:	00182020 	andeqs	r2, r8, r0, lsr #32
3000dd70:	fe000000 	cdp2	0, 0, cr0, cr0, cr0, {0}
3000dd74:	00020202 	andeq	r0, r2, r2, lsl #4
3000dd78:	7f000000 	swivc	0x00000000
3000dd7c:	00404040 	subeq	r4, r0, r0, asr #32
3000dd80:	c0300c00 	eorgts	r0, r0, r0, lsl #24
3000dd84:	00000000 	andeq	r0, r0, r0
3000dd88:	01000000 	tsteq	r0, r0
3000dd8c:	00c03806 	sbceq	r3, r0, r6, lsl #16
3000dd90:	02020200 	andeq	r0, r2, #0	; 0x0
3000dd94:	000000fe 	streqd	r0, [r0], -lr
3000dd98:	40404000 	submi	r4, r0, r0
3000dd9c:	0000007f 	andeq	r0, r0, pc, ror r0
3000dda0:	02040000 	andeq	r0, r4, #0	; 0x0
3000dda4:	00040202 	andeq	r0, r4, r2, lsl #4
	...
3000ddb8:	80808080 	addhi	r8, r0, r0, lsl #1
3000ddbc:	80808080 	addhi	r8, r0, r0, lsl #1
3000ddc0:	04020200 	streq	r0, [r2], #-512
	...
3000ddd0:	80800000 	addhi	r0, r0, r0
3000ddd4:	00008080 	andeq	r8, r0, r0, lsl #1
3000ddd8:	22241900 	eorcs	r1, r4, #0	; 0x0
3000dddc:	203f2222 	eorcss	r2, pc, r2, lsr #4
3000dde0:	8000f808 	andhi	pc, r0, r8, lsl #16
3000dde4:	00000080 	andeq	r0, r0, r0, lsl #1
3000dde8:	20113f00 	andcss	r3, r1, r0, lsl #30
3000ddec:	000e1120 	andeq	r1, lr, r0, lsr #2
3000ddf0:	80000000 	andhi	r0, r0, r0
3000ddf4:	00008080 	andeq	r8, r0, r0, lsl #1
3000ddf8:	20110e00 	andcss	r0, r1, r0, lsl #28
3000ddfc:	00112020 	andeqs	r2, r1, r0, lsr #32
3000de00:	80000000 	andhi	r0, r0, r0
3000de04:	00f88880 	rsceqs	r8, r8, r0, lsl #17
3000de08:	20110e00 	andcss	r0, r1, r0, lsl #28
3000de0c:	203f1020 	eorcss	r1, pc, r0, lsr #32
3000de10:	80800000 	addhi	r0, r0, r0
3000de14:	00008080 	andeq	r8, r0, r0, lsl #1
3000de18:	22221f00 	eorcs	r1, r2, #0	; 0x0
3000de1c:	00132222 	andeqs	r2, r3, r2, lsr #4
3000de20:	f0808000 	addnv	r8, r0, r0
3000de24:	18888888 	stmneia	r8, {r3, r7, fp, pc}
3000de28:	3f202000 	swicc	0x00202000
3000de2c:	00002020 	andeq	r2, r0, r0, lsr #32
3000de30:	80800000 	addhi	r0, r0, r0
3000de34:	00808080 	addeq	r8, r0, r0, lsl #1
3000de38:	94946b00 	ldrls	r6, [r4], #2816
3000de3c:	00609394 	streqb	r9, [r0], #-52
3000de40:	8000f808 	andhi	pc, r0, r8, lsl #16
3000de44:	00008080 	andeq	r8, r0, r0, lsl #1
3000de48:	00213f20 	eoreq	r3, r1, r0, lsr #30
3000de4c:	203f2000 	eorcss	r2, pc, r0
3000de50:	98988000 	ldmlsia	r8, {pc}
3000de54:	00000000 	andeq	r0, r0, r0
3000de58:	3f202000 	swicc	0x00202000
3000de5c:	00002020 	andeq	r2, r0, r0, lsr #32
3000de60:	80000000 	andhi	r0, r0, r0
3000de64:	00009898 	muleq	r0, r8, r8
3000de68:	8080c000 	addhi	ip, r0, r0
3000de6c:	00007f80 	andeq	r7, r0, r0, lsl #31
3000de70:	0000f808 	andeq	pc, r0, r8, lsl #16
3000de74:	00808080 	addeq	r8, r0, r0, lsl #1
3000de78:	02243f20 	eoreq	r3, r4, #128	; 0x80
3000de7c:	0020302d 	eoreq	r3, r0, sp, lsr #32
3000de80:	f8080800 	stmnvda	r8, {fp}
3000de84:	00000000 	andeq	r0, r0, r0
3000de88:	3f202000 	swicc	0x00202000
3000de8c:	00002020 	andeq	r2, r0, r0, lsr #32
3000de90:	80808080 	addhi	r8, r0, r0, lsl #1
3000de94:	00808080 	addeq	r8, r0, r0, lsl #1
3000de98:	00203f20 	eoreq	r3, r0, r0, lsr #30
3000de9c:	3f00203f 	swicc	0x0000203f
3000dea0:	80008080 	andhi	r8, r0, r0, lsl #1
3000dea4:	00008080 	andeq	r8, r0, r0, lsl #1
3000dea8:	00213f20 	eoreq	r3, r1, r0, lsr #30
3000deac:	203f2000 	eorcss	r2, pc, r0
3000deb0:	80800000 	addhi	r0, r0, r0
3000deb4:	00008080 	andeq	r8, r0, r0, lsl #1
3000deb8:	20201f00 	eorcs	r1, r0, r0, lsl #30
3000debc:	001f2020 	andeqs	r2, pc, r0, lsr #32
3000dec0:	80008080 	andhi	r8, r0, r0, lsl #1
3000dec4:	00000080 	andeq	r0, r0, r0, lsl #1
3000dec8:	20a1ff80 	adccs	pc, r1, r0, lsl #31
3000decc:	000e1120 	andeq	r1, lr, r0, lsr #2
3000ded0:	80000000 	andhi	r0, r0, r0
3000ded4:	00808080 	addeq	r8, r0, r0, lsl #1
3000ded8:	20110e00 	andcss	r0, r1, r0, lsl #28
3000dedc:	80ffa020 	rschis	sl, pc, r0, lsr #32
3000dee0:	00808080 	addeq	r8, r0, r0, lsl #1
3000dee4:	00808080 	addeq	r8, r0, r0, lsl #1
3000dee8:	213f2020 	teqcs	pc, r0, lsr #32
3000deec:	00010020 	andeq	r0, r1, r0, lsr #32
3000def0:	80800000 	addhi	r0, r0, r0
3000def4:	00808080 	addeq	r8, r0, r0, lsl #1
3000def8:	24243300 	strcst	r3, [r4], #-768
3000defc:	00192424 	andeqs	r2, r9, r4, lsr #8
3000df00:	e0808000 	add	r8, r0, r0
3000df04:	00008080 	andeq	r8, r0, r0, lsl #1
3000df08:	1f000000 	swine	0x00000000
3000df0c:	00002020 	andeq	r2, r0, r0, lsr #32
3000df10:	00008080 	andeq	r8, r0, r0, lsl #1
3000df14:	00808000 	addeq	r8, r0, r0
3000df18:	20201f00 	eorcs	r1, r0, r0, lsl #30
3000df1c:	203f1020 	eorcss	r1, pc, r0, lsr #32
3000df20:	00808080 	addeq	r8, r0, r0, lsl #1
3000df24:	80808000 	addhi	r8, r0, r0
3000df28:	300e0100 	andcc	r0, lr, r0, lsl #2
3000df2c:	00010608 	andeq	r0, r1, r8, lsl #12
3000df30:	80008080 	andhi	r8, r0, r0, lsl #1
3000df34:	80808000 	addhi	r8, r0, r0
3000df38:	030c300f 	tsteq	ip, #15	; 0xf
3000df3c:	000f300c 	andeq	r3, pc, ip
3000df40:	00808000 	addeq	r8, r0, r0
3000df44:	00808080 	addeq	r8, r0, r0, lsl #1
3000df48:	2e312000 	cdpcs	0, 3, cr2, cr1, cr0, {0}
3000df4c:	0020310e 	eoreq	r3, r0, lr, lsl #2
3000df50:	00808080 	addeq	r8, r0, r0, lsl #1
3000df54:	80808000 	addhi	r8, r0, r0
3000df58:	708e8180 	addvc	r8, lr, r0, lsl #3
3000df5c:	00010618 	andeq	r0, r1, r8, lsl r6
3000df60:	80808000 	addhi	r8, r0, r0
3000df64:	00808080 	addeq	r8, r0, r0, lsl #1
3000df68:	2c302100 	ldfcss	f2, [r0]
3000df6c:	00302122 	eoreqs	r2, r0, r2, lsr #2
3000df70:	00000000 	andeq	r0, r0, r0
3000df74:	02027c80 	andeq	r7, r2, #32768	; 0x8000
3000df78:	00000000 	andeq	r0, r0, r0
3000df7c:	40403f00 	submi	r3, r0, r0, lsl #30
3000df80:	00000000 	andeq	r0, r0, r0
3000df84:	000000ff 	streqd	r0, [r0], -pc
3000df88:	00000000 	andeq	r0, r0, r0
3000df8c:	000000ff 	streqd	r0, [r0], -pc
3000df90:	7c020200 	sfmvc	f0, 4, [r2], {0}
3000df94:	00000080 	andeq	r0, r0, r0, lsl #1
3000df98:	3f404000 	swicc	0x00404000
3000df9c:	00000000 	andeq	r0, r0, r0
3000dfa0:	01010600 	tsteq	r1, r0, lsl #12
3000dfa4:	04040202 	streq	r0, [r4], #-514
	...
3000dfb0:	3fb00000 	swicc	0x00b00000
3000dfb4:	00000000 	andeq	r0, r0, r0
3000dfb8:	3fc00000 	swicc	0x00c00000
3000dfbc:	00000000 	andeq	r0, r0, r0
3000dfc0:	3fd00000 	swicc	0x00d00000
3000dfc4:	00000000 	andeq	r0, r0, r0
3000dfc8:	3fe00000 	swicc	0x00e00000
3000dfcc:	00000000 	andeq	r0, r0, r0
3000dfd0:	3ff00000 	swicc	0x00f00000	; IMB
3000dfd4:	00000000 	andeq	r0, r0, r0
3000dfd8:	40000000 	andmi	r0, r0, r0
3000dfdc:	00000000 	andeq	r0, r0, r0
3000dfe0:	40100000 	andmis	r0, r0, r0
3000dfe4:	00000000 	andeq	r0, r0, r0
3000dfe8:	40200000 	eormi	r0, r0, r0
3000dfec:	00000000 	andeq	r0, r0, r0
3000dff0:	40300000 	eormis	r0, r0, r0
3000dff4:	00000000 	andeq	r0, r0, r0
3000dff8:	40400000 	submi	r0, r0, r0
3000dffc:	00000000 	andeq	r0, r0, r0
3000e000:	40500000 	submis	r0, r0, r0
3000e004:	00000000 	andeq	r0, r0, r0

3000e008 <__FUNCTION__.0>:
3000e008:	64616552 	strvsbt	r6, [r1], #-1362
3000e00c:	61647249 	cmnvs	r4, r9, asr #4
3000e010:	0063654e 	rsbeq	r6, r3, lr, asr #10
Disassembly of section .rodata.str1.4:

3000e014 <.rodata.str1.4>:
3000e014:	656b616d 	strvsb	r6, [fp, #-365]!
3000e018:	20202072 	eorcs	r2, r0, r2, ror r0
3000e01c:	20206469 	eorcs	r6, r0, r9, ror #8
3000e020:	7830203d 	ldmvcda	r0!, {r0, r2, r3, r4, r5, sp}
3000e024:	0d0a7825 	stceq	8, cr7, [sl, #-148]
3000e028:	00000000 	andeq	r0, r0, r0
3000e02c:	69766564 	ldmvsdb	r6!, {r2, r5, r6, r8, sl, sp, lr}^
3000e030:	20206563 	eorcs	r6, r0, r3, ror #10
3000e034:	20206469 	eorcs	r6, r0, r9, ror #8
3000e038:	7830203d 	ldmvcda	r0!, {r0, r2, r3, r4, r5, sp}
3000e03c:	0d0a7825 	stceq	8, cr7, [sl, #-148]
3000e040:	00000000 	andeq	r0, r0, r0
3000e044:	20647233 	rsbcs	r7, r4, r3, lsr r2
3000e048:	65747962 	ldrvsb	r7, [r4, #-2402]!
3000e04c:	20202020 	eorcs	r2, r0, r0, lsr #32
3000e050:	7830203d 	ldmvcda	r0!, {r0, r2, r3, r4, r5, sp}
3000e054:	0d0a7825 	stceq	8, cr7, [sl, #-148]
3000e058:	00000000 	andeq	r0, r0, r0
3000e05c:	20687434 	rsbcs	r7, r8, r4, lsr r4
3000e060:	65747962 	ldrvsb	r7, [r4, #-2402]!
3000e064:	20202020 	eorcs	r2, r0, r0, lsr #32
3000e068:	7830203d 	ldmvcda	r0!, {r0, r2, r3, r4, r5, sp}
3000e06c:	0d0a7825 	stceq	8, cr7, [sl, #-148]
3000e070:	00000000 	andeq	r0, r0, r0
3000e074:	65676170 	strvsb	r6, [r7, #-368]!
3000e078:	69732020 	ldmvsdb	r3!, {r5, sp}^
3000e07c:	2020657a 	eorcs	r6, r0, sl, ror r5
3000e080:	6425203d 	strvst	r2, [r5], #-61
3000e084:	0a626b20 	beq	318a8d0c <_end+0x18973cc>
3000e088:	0000000d 	andeq	r0, r0, sp
3000e08c:	636f6c62 	cmnvs	pc, #25088	; 0x6200
3000e090:	6973206b 	ldmvsdb	r3!, {r0, r1, r3, r5, r6, sp}^
3000e094:	2020657a 	eorcs	r6, r0, sl, ror r5
3000e098:	6425203d 	strvst	r2, [r5], #-61
3000e09c:	0a626b20 	beq	318a8d24 <_end+0x18973e4>
3000e0a0:	0000000d 	andeq	r0, r0, sp
3000e0a4:	20687435 	rsbcs	r7, r8, r5, lsr r4
3000e0a8:	65747962 	ldrvsb	r7, [r4, #-2402]!
3000e0ac:	20202020 	eorcs	r2, r0, r0, lsr #32
3000e0b0:	7830203d 	ldmvcda	r0!, {r0, r2, r3, r4, r5, sp}
3000e0b4:	0d0a7825 	stceq	8, cr7, [sl, #-148]
3000e0b8:	00000000 	andeq	r0, r0, r0
3000e0bc:	646e616e 	strvsbt	r6, [lr], #-366
3000e0c0:	6172655f 	cmnvs	r2, pc, asr r5
3000e0c4:	65206573 	strvs	r6, [r0, #-1395]!
3000e0c8:	202c7272 	eorcs	r7, ip, r2, ror r2
3000e0cc:	72646461 	rsbvc	r6, r4, #1627389952	; 0x61000000
3000e0d0:	20736920 	rsbcss	r6, r3, r0, lsr #18
3000e0d4:	20746f6e 	rsbcss	r6, r4, lr, ror #30
3000e0d8:	636f6c62 	cmnvs	pc, #25088	; 0x6200
3000e0dc:	6c61206b 	stcvsl	0, cr2, [r1], #-428
3000e0e0:	0a6e6769 	beq	31ba7e8c <_end+0x1b9654c>
3000e0e4:	0000000d 	andeq	r0, r0, sp
3000e0e8:	646e616e 	strvsbt	r6, [lr], #-366
3000e0ec:	6172655f 	cmnvs	r2, pc, asr r5
3000e0f0:	65206573 	strvs	r6, [r0, #-1395]!
3000e0f4:	202c7272 	eorcs	r7, ip, r2, ror r2
3000e0f8:	206e656c 	rsbcs	r6, lr, ip, ror #10
3000e0fc:	6e207369 	cdpvs	3, 2, cr7, cr0, cr9, {3}
3000e100:	6220746f 	eorvs	r7, r0, #1862270976	; 0x6f000000
3000e104:	6b636f6c 	blvs	318e9ebc <_end+0x18d857c>
3000e108:	696c6120 	stmvsdb	ip!, {r5, r8, sp, lr}^
3000e10c:	0d0a6e67 	stceq	14, cr6, [sl, #-412]
3000e110:	00000000 	andeq	r0, r0, r0
3000e114:	65746e45 	ldrvsb	r6, [r4, #-3653]!
3000e118:	68742072 	ldmvsda	r4!, {r1, r4, r5, r6, sp}^
3000e11c:	64612065 	strvsbt	r2, [r1], #-101
3000e120:	73657264 	cmnvc	r5, #1073741830	; 0x40000006
3000e124:	6f742073 	swivs	0x00742073
3000e128:	61657220 	cmnvs	r5, r0, lsr #4
3000e12c:	00203a64 	eoreq	r3, r0, r4, ror #20
3000e130:	61746144 	cmnvs	r4, r4, asr #2
3000e134:	0a203a20 	beq	3081c9bc <_end+0x80b07c>
3000e138:	0000000d 	andeq	r0, r0, sp
3000e13c:	78323025 	ldmvcda	r2!, {r0, r2, r5, ip, sp}
3000e140:	00000020 	andeq	r0, r0, r0, lsr #32
3000e144:	3b202020 	blcc	308161cc <_end+0x80488c>
3000e148:	00000020 	andeq	r0, r0, r0, lsr #32
3000e14c:	65746e45 	ldrvsb	r6, [r4, #-3653]!
3000e150:	68742072 	ldmvsda	r4!, {r1, r4, r5, r6, sp}^
3000e154:	64612065 	strvsbt	r2, [r1], #-101
3000e158:	73657264 	cmnvc	r5, #1073741830	; 0x40000006
3000e15c:	666f2073 	undefined
3000e160:	63657320 	cmnvs	r5, #-2147483648	; 0x80000000
3000e164:	20726f74 	rsbcss	r6, r2, r4, ror pc
3000e168:	65206f74 	strvs	r6, [r0, #-3956]!
3000e16c:	65736172 	ldrvsb	r6, [r3, #-370]!
3000e170:	0000203a 	andeq	r2, r0, sl, lsr r0
3000e174:	73617265 	cmnvc	r1, #1342177286	; 0x50000006
3000e178:	20676e69 	rsbcs	r6, r7, r9, ror #28
3000e17c:	0a2e2e2e 	beq	30b99a3c <_end+0xb880fc>
3000e180:	0000000d 	andeq	r0, r0, sp
3000e184:	65746e45 	ldrvsb	r6, [r4, #-3653]!
3000e188:	68742072 	ldmvsda	r4!, {r1, r4, r5, r6, sp}^
3000e18c:	64612065 	strvsbt	r2, [r1], #-101
3000e190:	73657264 	cmnvc	r5, #1073741830	; 0x40000006
3000e194:	666f2073 	undefined
3000e198:	63657320 	cmnvs	r5, #-2147483648	; 0x80000000
3000e19c:	20726f74 	rsbcss	r6, r2, r4, ror pc
3000e1a0:	77206f74 	undefined
3000e1a4:	65746972 	ldrvsb	r6, [r4, #-2418]!
3000e1a8:	0000203a 	andeq	r2, r0, sl, lsr r0
3000e1ac:	65746e45 	ldrvsb	r6, [r4, #-3653]!
3000e1b0:	68742072 	ldmvsda	r4!, {r1, r4, r5, r6, sp}^
3000e1b4:	74732065 	ldrvcbt	r2, [r3], #-101
3000e1b8:	676e6972 	undefined
3000e1bc:	206f7420 	rsbcs	r7, pc, r0, lsr #8
3000e1c0:	74697277 	strvcbt	r7, [r9], #-631
3000e1c4:	00203a65 	eoreq	r3, r0, r5, ror #20
3000e1c8:	74697277 	strvcbt	r7, [r9], #-631
3000e1cc:	20676e69 	rsbcs	r6, r7, r9, ror #28
3000e1d0:	0a2e2e2e 	beq	30b99a90 <_end+0xb88150>
3000e1d4:	0000000d 	andeq	r0, r0, sp
3000e1d8:	444e414e 	strmib	r4, [lr], #-334
3000e1dc:	53455420 	cmppl	r5, #536870912	; 0x20000000
3000e1e0:	00000054 	andeq	r0, r0, r4, asr r0
3000e1e4:	656b616d 	strvsb	r6, [fp, #-365]!
3000e1e8:	20202072 	eorcs	r2, r0, r2, ror r0
3000e1ec:	20206469 	eorcs	r6, r0, r9, ror #8
3000e1f0:	7830203d 	ldmvcda	r0!, {r0, r2, r3, r4, r5, sp}
3000e1f4:	00000000 	andeq	r0, r0, r0
3000e1f8:	69766564 	ldmvsdb	r6!, {r2, r5, r6, r8, sl, sp, lr}^
3000e1fc:	20206563 	eorcs	r6, r0, r3, ror #10
3000e200:	20206469 	eorcs	r6, r0, r9, ror #8
3000e204:	7830203d 	ldmvcda	r0!, {r0, r2, r3, r4, r5, sp}
3000e208:	00000000 	andeq	r0, r0, r0
3000e20c:	20647233 	rsbcs	r7, r4, r3, lsr r2
3000e210:	65747962 	ldrvsb	r7, [r4, #-2402]!
3000e214:	20202020 	eorcs	r2, r0, r0, lsr #32
3000e218:	7830203d 	ldmvcda	r0!, {r0, r2, r3, r4, r5, sp}
3000e21c:	00000000 	andeq	r0, r0, r0
3000e220:	20687434 	rsbcs	r7, r8, r4, lsr r4
3000e224:	65747962 	ldrvsb	r7, [r4, #-2402]!
3000e228:	20202020 	eorcs	r2, r0, r0, lsr #32
3000e22c:	7830203d 	ldmvcda	r0!, {r0, r2, r3, r4, r5, sp}
3000e230:	00000000 	andeq	r0, r0, r0
3000e234:	65676170 	strvsb	r6, [r7, #-368]!
3000e238:	69732020 	ldmvsdb	r3!, {r5, sp}^
3000e23c:	2020657a 	eorcs	r6, r0, sl, ror r5
3000e240:	0000203d 	andeq	r2, r0, sp, lsr r0
3000e244:	0000626b 	andeq	r6, r0, fp, ror #4
3000e248:	636f6c62 	cmnvs	pc, #25088	; 0x6200
3000e24c:	6973206b 	ldmvsdb	r3!, {r0, r1, r3, r5, r6, sp}^
3000e250:	2020657a 	eorcs	r6, r0, sl, ror r5
3000e254:	0000203d 	andeq	r2, r0, sp, lsr r0
3000e258:	20687435 	rsbcs	r7, r8, r5, lsr r4
3000e25c:	65747962 	ldrvsb	r7, [r4, #-2402]!
3000e260:	20202020 	eorcs	r2, r0, r0, lsr #32
3000e264:	7830203d 	ldmvcda	r0!, {r0, r2, r3, r4, r5, sp}
3000e268:	00000000 	andeq	r0, r0, r0
3000e26c:	79206649 	stmvcdb	r0!, {r0, r3, r6, r9, sl, sp, lr}
3000e270:	7720756f 	strvc	r7, [r0, -pc, ror #10]!
3000e274:	20746e61 	rsbcss	r6, r4, r1, ror #28
3000e278:	74206f74 	strvct	r6, [r0], #-3956
3000e27c:	20747365 	rsbcss	r7, r4, r5, ror #6
3000e280:	20656874 	rsbcs	r6, r5, r4, ror r8
3000e284:	646e616e 	strvsbt	r6, [lr], #-366
3000e288:	61657220 	cmnvs	r5, r0, lsr #4
3000e28c:	72772d64 	rsbvcs	r2, r7, #6400	; 0x1900
3000e290:	20657469 	rsbcs	r7, r5, r9, ror #8
3000e294:	636e7566 	cmnvs	lr, #427819008	; 0x19800000
3000e298:	6e6f6974 	mcrvs	9, 3, r6, cr15, cr4, {3}
3000e29c:	6c70202c 	ldcvsl	0, cr2, [r0], #-176
3000e2a0:	65736165 	ldrvsb	r6, [r3, #-357]!
3000e2a4:	6e6f6320 	cdpvs	3, 6, cr6, cr15, cr0, {1}
3000e2a8:	7463656e 	strvcbt	r6, [r3], #-1390
3000e2ac:	206f7420 	rsbcs	r7, pc, r0, lsr #8
3000e2b0:	20656874 	rsbcs	r6, r5, r4, ror r8
3000e2b4:	73204350 	teqvc	r0, #1073741825	; 0x40000001
3000e2b8:	61697265 	cmnvs	r9, r5, ror #4
3000e2bc:	6f70206c 	swivs	0x0070206c
3000e2c0:	74207472 	strvct	r7, [r0], #-1138
3000e2c4:	206c6f6f 	rsbcs	r6, ip, pc, ror #30
3000e2c8:	20646e61 	rsbcs	r6, r4, r1, ror #28
3000e2cc:	652d6572 	strvs	r6, [sp, #-1394]!
3000e2d0:	7265746e 	rsbvc	r7, r5, #1845493760	; 0x6e000000
3000e2d4:	69687420 	stmvsdb	r8!, {r5, sl, ip, sp, lr}^
3000e2d8:	61702073 	cmnvs	r0, r3, ror r0
3000e2dc:	002e6567 	eoreq	r6, lr, r7, ror #10
3000e2e0:	45544f4e 	ldrmib	r4, [r4, #-3918]
3000e2e4:	0000003a 	andeq	r0, r0, sl, lsr r0
3000e2e8:	61656c50 	cmnvs	r5, r0, asr ip
3000e2ec:	63206573 	teqvs	r0, #482344960	; 0x1cc00000
3000e2f0:	66657261 	strvsbt	r7, [r5], -r1, ror #4
3000e2f4:	796c6c75 	stmvcdb	ip!, {r0, r2, r4, r5, r6, sl, fp, sp, lr}^
3000e2f8:	72657020 	rsbvc	r7, r5, #32	; 0x20
3000e2fc:	00000000 	andeq	r0, r0, r0
3000e300:	6d726f66 	ldcvsl	15, cr6, [r2, #-408]!
3000e304:	65687420 	strvsb	r7, [r8, #-1056]!
3000e308:	61726520 	cmnvs	r2, r0, lsr #10
3000e30c:	61206573 	teqvs	r0, r3, ror r5
3000e310:	7720646e 	strvc	r6, [r0, -lr, ror #8]!
3000e314:	65746972 	ldrvsb	r6, [r4, #-2418]!
3000e318:	00000000 	andeq	r0, r0, r0
3000e31c:	7265706f 	rsbvc	r7, r5, #111	; 0x6f
3000e320:	6f697461 	swivs	0x00697461
3000e324:	202c736e 	eorcs	r7, ip, lr, ror #6
3000e328:	6568746f 	strvsb	r7, [r8, #-1135]!
3000e32c:	73697772 	cmnvc	r9, #29884416	; 0x1c80000
3000e330:	68742065 	ldmvsda	r4!, {r0, r2, r5, r6, sp}^
3000e334:	00000000 	andeq	r0, r0, r0
3000e338:	72702065 	rsbvcs	r2, r0, #101	; 0x65
3000e33c:	6172676f 	cmnvs	r2, pc, ror #14
3000e340:	616d206d 	cmnvs	sp, sp, rrx
3000e344:	69642079 	stmvsdb	r4!, {r0, r3, r4, r5, r6, sp}^
3000e348:	00002165 	andeq	r2, r0, r5, ror #2
3000e34c:	20202020 	eorcs	r2, r0, r0, lsr #32
3000e350:	20202020 	eorcs	r2, r0, r0, lsr #32
3000e354:	20202020 	eorcs	r2, r0, r0, lsr #32
3000e358:	646e614e 	strvsbt	r6, [lr], #-334
3000e35c:	616c4620 	cmnvs	ip, r0, lsr #12
3000e360:	54206873 	strplt	r6, [r0], #-2163
3000e364:	0a747365 	beq	31d2b100 <_end+0x1d197c0>
3000e368:	0000000d 	andeq	r0, r0, sp
3000e36c:	205d735b 	subcss	r7, sp, fp, asr r3
3000e370:	6e616353 	mcrvs	3, 3, r6, cr1, cr3, {2}
3000e374:	6e616e20 	cdpvs	14, 6, cr6, cr1, cr0, {1}
3000e378:	6c662064 	stcvsl	0, cr2, [r6], #-400
3000e37c:	0a687361 	beq	31a2b108 <_end+0x1a197c8>
3000e380:	0000000d 	andeq	r0, r0, sp
3000e384:	205d655b 	subcss	r6, sp, fp, asr r5
3000e388:	73617245 	cmnvc	r1, #1342177284	; 0x50000004
3000e38c:	616e2065 	cmnvs	lr, r5, rrx
3000e390:	6620646e 	strvst	r6, [r0], -lr, ror #8
3000e394:	6873616c 	ldmvsda	r3!, {r2, r3, r5, r6, r8, sp, lr}^
3000e398:	00000d0a 	andeq	r0, r0, sl, lsl #26
3000e39c:	205d775b 	subcss	r7, sp, fp, asr r7
3000e3a0:	74697257 	strvcbt	r7, [r9], #-599
3000e3a4:	616e2065 	cmnvs	lr, r5, rrx
3000e3a8:	6620646e 	strvst	r6, [r0], -lr, ror #8
3000e3ac:	6873616c 	ldmvsda	r3!, {r2, r3, r5, r6, r8, sp, lr}^
3000e3b0:	00000d0a 	andeq	r0, r0, sl, lsl #26
3000e3b4:	205d725b 	subcss	r7, sp, fp, asr r2
3000e3b8:	64616552 	strvsbt	r6, [r1], #-1362
3000e3bc:	6e616e20 	cdpvs	14, 6, cr6, cr1, cr0, {1}
3000e3c0:	6c662064 	stcvsl	0, cr2, [r6], #-400
3000e3c4:	0a687361 	beq	31a2b150 <_end+0x1a19810>
3000e3c8:	0000000d 	andeq	r0, r0, sp
3000e3cc:	205d715b 	subcss	r7, sp, fp, asr r1
3000e3d0:	74697571 	strvcbt	r7, [r9], #-1393
3000e3d4:	00000d0a 	andeq	r0, r0, sl, lsl #26
3000e3d8:	65746e45 	ldrvsb	r6, [r4, #-3653]!
3000e3dc:	65732072 	ldrvsb	r2, [r3, #-114]!
3000e3e0:	7463656c 	strvcbt	r6, [r3], #-1388
3000e3e4:	3a6e6f69 	bcc	31baa190 <_end+0x1b98850>
3000e3e8:	00000020 	andeq	r0, r0, r0, lsr #32
3000e3ec:	53200d0a 	teqpl	r0, #640	; 0x280
3000e3f0:	74726174 	ldrvcbt	r6, [r2], #-372
3000e3f4:	6e757220 	cdpvs	2, 7, cr7, cr5, cr0, {1}
3000e3f8:	676e696e 	strvsb	r6, [lr, -lr, ror #18]!
3000e3fc:	0d0a2021 	stceq	0, cr2, [sl, #-132]
3000e400:	00000000 	andeq	r0, r0, r0
3000e404:	0a636261 	beq	318e6d90 <_end+0x18d5450>
3000e408:	0000000d 	andeq	r0, r0, sp
3000e40c:	0a333231 	beq	30cdacd8 <_end+0xcc9398>
3000e410:	0000000d 	andeq	r0, r0, sp
3000e414:	65637845 	strvsb	r7, [r3, #-2117]!
3000e418:	6f697470 	swivs	0x00697470
3000e41c:	6320216e 	teqvs	r0, #-2147483621	; 0x8000001b
3000e420:	20727370 	rsbcss	r7, r2, r0, ror r3
3000e424:	0000203d 	andeq	r2, r0, sp, lsr r0
3000e428:	20495753 	subcs	r5, r9, r3, asr r7
3000e42c:	206c6176 	rsbcs	r6, ip, r6, ror r1
3000e430:	0000203d 	andeq	r2, r0, sp, lsr r0
3000e434:	2044454c 	subcs	r4, r4, ip, asr #10
3000e438:	74736554 	ldrvcbt	r6, [r3], #-1364
3000e43c:	00000000 	andeq	r0, r0, r0
3000e440:	2059454b 	subcss	r4, r9, fp, asr #10
3000e444:	74736554 	ldrvcbt	r6, [r3], #-1364
3000e448:	00000000 	andeq	r0, r0, r0
3000e44c:	2044434c 	subcs	r4, r4, ip, asr #6
3000e450:	74736554 	ldrvcbt	r6, [r3], #-1364
3000e454:	00000000 	andeq	r0, r0, r0
3000e458:	20535420 	subcss	r5, r3, r0, lsr #8
3000e45c:	74736554 	ldrvcbt	r6, [r3], #-1364
3000e460:	00000000 	andeq	r0, r0, r0
3000e464:	20433249 	subcs	r3, r3, r9, asr #4
3000e468:	74736554 	ldrvcbt	r6, [r3], #-1364
3000e46c:	00000000 	andeq	r0, r0, r0
3000e470:	20495053 	subcs	r5, r9, r3, asr r0
3000e474:	74736554 	ldrvcbt	r6, [r3], #-1364
3000e478:	00000000 	andeq	r0, r0, r0
3000e47c:	20524449 	subcss	r4, r2, r9, asr #8
3000e480:	74736554 	ldrvcbt	r6, [r3], #-1364
3000e484:	00000000 	andeq	r0, r0, r0
3000e488:	31544844 	cmpcc	r4, r4, asr #16
3000e48c:	74736554 	ldrvcbt	r6, [r3], #-1364
3000e490:	00000000 	andeq	r0, r0, r0
3000e494:	38315344 	ldmccda	r1!, {r2, r6, r8, r9, ip, lr}
3000e498:	74736554 	ldrvcbt	r6, [r3], #-1364
3000e49c:	00000000 	andeq	r0, r0, r0
3000e4a0:	38333030 	ldmccda	r3!, {r4, r5, ip, sp}
3000e4a4:	74736554 	ldrvcbt	r6, [r3], #-1364
3000e4a8:	00000000 	andeq	r0, r0, r0
3000e4ac:	20524f4e 	subcss	r4, r2, lr, asr #30
3000e4b0:	74736554 	ldrvcbt	r6, [r3], #-1364
3000e4b4:	00000000 	andeq	r0, r0, r0
3000e4b8:	444e414e 	strmib	r4, [lr], #-334
3000e4bc:	74736554 	ldrvcbt	r6, [r3], #-1364
3000e4c0:	00000000 	andeq	r0, r0, r0
3000e4c4:	54455220 	strplb	r5, [r5], #-544
3000e4c8:	204e5255 	subcs	r5, lr, r5, asr r2
3000e4cc:	00000000 	andeq	r0, r0, r0
3000e4d0:	63756f54 	cmnvs	r5, #336	; 0x150
3000e4d4:	72632068 	rsbvc	r2, r3, #104	; 0x68
3000e4d8:	2073736f 	rsbcss	r7, r3, pc, ror #6
3000e4dc:	63206f74 	teqvs	r0, #464	; 0x1d0
3000e4e0:	62696c61 	rsbvs	r6, r9, #24832	; 0x6100
3000e4e4:	65746172 	ldrvsb	r6, [r4, #-370]!
3000e4e8:	756f7420 	strvcb	r7, [pc, #-1056]!	; 3000e0d0 <__FUNCTION__.0+0xc8>
3000e4ec:	63736863 	cmnvs	r3, #6488064	; 0x630000
3000e4f0:	6e656572 	mcrvs	5, 3, r6, cr5, cr2, {3}
3000e4f4:	00000000 	andeq	r0, r0, r0
3000e4f8:	696c6143 	stmvsdb	ip!, {r0, r1, r6, r8, sp, lr}^
3000e4fc:	74617262 	strvcbt	r7, [r1], #-610
3000e500:	206e6f69 	rsbcs	r6, lr, r9, ror #30
3000e504:	6c696166 	stfvse	f6, [r9], #-408
3000e508:	202c6465 	eorcs	r6, ip, r5, ror #8
3000e50c:	61656c50 	cmnvs	r5, r0, asr ip
3000e510:	74206573 	strvct	r6, [r0], #-1395
3000e514:	61207972 	teqvs	r0, r2, ror r9
3000e518:	6e696167 	powvsez	f6, f1, f7
3000e51c:	00000021 	andeq	r0, r0, r1, lsr #32
3000e520:	20214b4f 	eorcs	r4, r1, pc, asr #22
3000e524:	696c6143 	stmvsdb	ip!, {r0, r1, r6, r8, sp, lr}^
3000e528:	74617262 	strvcbt	r7, [r1], #-610
3000e52c:	206e6f69 	rsbcs	r6, lr, r9, ror #30
3000e530:	75697254 	strvcb	r7, [r9, #-596]!
3000e534:	6168706d 	cmnvs	r8, sp, rrx
3000e538:	796c746e 	stmvcdb	ip!, {r1, r2, r3, r5, r6, sl, ip, sp, lr}^
3000e53c:	00002120 	andeq	r2, r0, r0, lsr #2
3000e540:	74655320 	strvcbt	r5, [r5], #-800
3000e544:	61437354 	cmpvs	r3, r4, asr r3
3000e548:	7262696c 	rsbvc	r6, r2, #1769472	; 0x1b0000
3000e54c:	50657461 	rsbpl	r7, r5, r1, ror #8
3000e550:	6d617261 	sfmvs	f7, 2, [r1, #-388]!
3000e554:	000d0a73 	andeq	r0, sp, r3, ror sl
3000e558:	54746547 	ldrplbt	r6, [r4], #-1351
3000e55c:	49747365 	ldmmidb	r4!, {r0, r2, r5, r6, r8, r9, ip, sp, lr}^
3000e560:	206d6574 	rsbcs	r6, sp, r4, ror r5
3000e564:	203d2078 	eorcss	r2, sp, r8, ror r0
3000e568:	792c6425 	stmvcdb	ip!, {r0, r2, r5, sl, sp, lr}
3000e56c:	25203d20 	strcs	r3, [r0, #-3360]!
3000e570:	000d0a64 	andeq	r0, sp, r4, ror #20
3000e574:	54746547 	ldrplbt	r6, [r4], #-1351
3000e578:	49747365 	ldmmidb	r4!, {r0, r2, r5, r6, r8, r9, ip, sp, lr}^
3000e57c:	206d6574 	rsbcs	r6, sp, r4, ror r5
3000e580:	746e4369 	strvcbt	r4, [lr], #-873
3000e584:	25203d20 	strcs	r3, [r0, #-3360]!
3000e588:	000d0a64 	andeq	r0, sp, r4, ror #20
3000e58c:	636c6557 	cmnvs	ip, #364904448	; 0x15c00000
3000e590:	20656d6f 	rsbcs	r6, r5, pc, ror #26
3000e594:	74206f74 	strvct	r6, [r0], #-3956
3000e598:	70206568 	eorvc	r6, r0, r8, ror #10
3000e59c:	656a6f72 	strvsb	r6, [sl, #-3954]!
3000e5a0:	73207463 	teqvc	r0, #1660944384	; 0x63000000
3000e5a4:	3a776f68 	bcc	31dea34c <_end+0x1dd8a0c>
3000e5a8:	325a4a20 	subccs	r4, sl, #131072	; 0x20000
3000e5ac:	76303434 	undefined
3000e5b0:	75662032 	strvcb	r2, [r6, #-50]!
3000e5b4:	6d206c6c 	stcvs	12, cr6, [r0, #-432]!
3000e5b8:	6c75646f 	cfldrdvs	mvd6, [r5], #-444
3000e5bc:	65742065 	ldrvsb	r2, [r4, #-101]!
3000e5c0:	00007473 	andeq	r7, r0, r3, ror r4
3000e5c4:	68747541 	ldmvsda	r4!, {r0, r6, r8, sl, ip, sp, lr}^
3000e5c8:	203a726f 	eorcss	r7, sl, pc, ror #4
3000e5cc:	4369654c 	cmnmi	r9, #318767104	; 0x13000000
3000e5d0:	6e617568 	cdpvs	5, 6, cr7, cr1, cr8, {3}
3000e5d4:	00000000 	andeq	r0, r0, r0
3000e5d8:	203a5151 	eorcss	r5, sl, r1, asr r1
3000e5dc:	38333937 	ldmccda	r3!, {r0, r1, r2, r4, r5, r8, fp, ip, sp}
3000e5e0:	32353530 	eorccs	r3, r5, #201326592	; 0xc000000
3000e5e4:	00000036 	andeq	r0, r0, r6, lsr r0
3000e5e8:	69616d45 	stmvsdb	r1!, {r0, r2, r6, r8, sl, fp, sp, lr}^
3000e5ec:	73203a6c 	teqvc	r0, #442368	; 0x6c000
3000e5f0:	63616761 	cmnvs	r1, #25427968	; 0x1840000
3000e5f4:	5f797469 	swipl	0x00797469
3000e5f8:	3140636c 	cmpcc	r0, ip, ror #6
3000e5fc:	632e3336 	teqvs	lr, #-671088640	; 0xd8000000
3000e600:	00006d6f 	andeq	r6, r0, pc, ror #26
3000e604:	68746947 	ldmvsda	r4!, {r0, r1, r2, r6, r8, fp, sp, lr}^
3000e608:	203a6275 	eorcss	r6, sl, r5, ror r2
3000e60c:	40746967 	rsbmis	r6, r4, r7, ror #18
3000e610:	68746967 	ldmvsda	r4!, {r0, r1, r2, r5, r6, r8, fp, sp, lr}^
3000e614:	632e6275 	teqvs	lr, #1342177287	; 0x50000007
3000e618:	733a6d6f 	teqvc	sl, #7104	; 0x1bc0
3000e61c:	63616761 	cmnvs	r1, #25427968	; 0x1840000
3000e620:	2d797469 	cfldrdcs	mvd7, [r9, #-420]!
3000e624:	6369656c 	cmnvs	r9, #452984832	; 0x1b000000
3000e628:	6e617568 	cdpvs	5, 6, cr7, cr1, cr8, {3}
3000e62c:	0000002f 	andeq	r0, r0, pc, lsr #32
3000e630:	20202020 	eorcs	r2, r0, r0, lsr #32
3000e634:	20202020 	eorcs	r2, r0, r0, lsr #32
3000e638:	5f6c6c41 	swipl	0x006c6c41
3000e63c:	75646f4d 	strvcb	r6, [r4, #-3917]!
3000e640:	5f73656c 	swipl	0x0073656c
3000e644:	74736554 	ldrvcbt	r6, [r3], #-1364
3000e648:	6f5f6465 	swivs	0x005f6465
3000e64c:	5a4a5f66 	bpl	312a63ec <_end+0x1294aac>
3000e650:	30343432 	eorccs	r3, r4, r2, lsr r4
3000e654:	7469672e 	strvcbt	r6, [r9], #-1838
3000e658:	00000000 	andeq	r0, r0, r0
3000e65c:	2c776f4e 	ldccsl	15, cr6, [r7], #-312
3000e660:	6a6f7250 	bvs	31beafa8 <_end+0x1bd9668>
3000e664:	20746365 	rsbcss	r6, r4, r5, ror #6
3000e668:	776f6873 	undefined
3000e66c:	61747320 	cmnvs	r4, r0, lsr #6
3000e670:	20737472 	rsbcss	r7, r3, r2, ror r4
3000e674:	68676972 	stmvsda	r7!, {r1, r4, r5, r6, r8, fp, sp, lr}^
3000e678:	77612074 	undefined
3000e67c:	2e2e7961 	cdpcs	9, 2, cr7, cr14, cr1, {3}
3000e680:	2e2e2e2e 	cdpcs	14, 2, cr2, cr14, cr14, {1}
3000e684:	00000000 	andeq	r0, r0, r0
3000e688:	6e69614d 	powvsem	f6, f1, #5.0
3000e68c:	65676150 	strvsb	r6, [r7, #-336]!
3000e690:	00000000 	andeq	r0, r0, r0
3000e694:	2d495053 	stccsl	0, cr5, [r9, #-332]
3000e698:	73616c46 	cmnvc	r1, #17920	; 0x4600
3000e69c:	4c4f2f68 	mcrrmi	15, 6, r2, pc, cr8
3000e6a0:	54204445 	strplt	r4, [r0], #-1093
3000e6a4:	00545345 	subeqs	r5, r4, r5, asr #6
3000e6a8:	6369656c 	cmnvs	r9, #452984832	; 0x1b000000
3000e6ac:	6e617568 	cdpvs	5, 6, cr7, cr1, cr8, {3}
3000e6b0:	6173202c 	cmnvs	r3, ip, lsr #32
3000e6b4:	69636167 	stmvsdb	r3!, {r0, r1, r2, r5, r6, r8, sp, lr}^
3000e6b8:	6c5f7974 	mrrcvs	9, 7, r7, pc, cr4
3000e6bc:	36314063 	ldrcct	r4, [r1], -r3, rrx
3000e6c0:	6f632e33 	swivs	0x00632e33
3000e6c4:	0000006d 	andeq	r0, r0, sp, rrx
3000e6c8:	20495053 	subcs	r5, r9, r3, asr r0
3000e6cc:	73616c46 	cmnvc	r1, #17920	; 0x4600
3000e6d0:	203a2068 	eorcss	r2, sl, r8, rrx
3000e6d4:	2044494d 	subcs	r4, r4, sp, asr #18
3000e6d8:	7830203d 	ldmvcda	r0!, {r0, r2, r3, r4, r5, sp}
3000e6dc:	78323025 	ldmvcda	r2!, {r0, r2, r5, ip, sp}
3000e6e0:	4950202c 	ldmmidb	r0, {r2, r3, r5, sp}^
3000e6e4:	203d2044 	eorcss	r2, sp, r4, asr #32
3000e6e8:	30257830 	eorcc	r7, r5, r0, lsr r8
3000e6ec:	0d0a7832 	stceq	8, cr7, [sl, #-200]
3000e6f0:	00000000 	andeq	r0, r0, r0
3000e6f4:	20756f59 	rsbcss	r6, r5, r9, asr pc
3000e6f8:	206e6163 	rsbcs	r6, lr, r3, ror #2
3000e6fc:	6c656566 	cfstr64vs	mvdx6, [r5], #-408
3000e700:	65726620 	ldrvsb	r6, [r2, #-1568]!
3000e704:	6f742065 	swivs	0x00742065
3000e708:	00000000 	andeq	r0, r0, r0
3000e70c:	74736574 	ldrvcbt	r6, [r3], #-1396
3000e710:	65687420 	strvsb	r7, [r8, #-1056]!
3000e714:	61657220 	cmnvs	r5, r0, lsr #4
3000e718:	6e612064 	cdpvs	0, 6, cr2, cr1, cr4, {3}
3000e71c:	72772064 	rsbvcs	r2, r7, #100	; 0x64
3000e720:	20657469 	rsbcs	r7, r5, r9, ror #8
3000e724:	00000066 	andeq	r0, r0, r6, rrx
3000e728:	74636e75 	strvcbt	r6, [r3], #-3701
3000e72c:	736e6f69 	cmnvc	lr, #420	; 0x1a4
3000e730:	74697720 	strvcbt	r7, [r9], #-1824
3000e734:	74756f68 	ldrvcbt	r6, [r5], #-3944
3000e738:	796e6120 	stmvcdb	lr!, {r5, r8, sp, lr}^
3000e73c:	706d6920 	rsbvc	r6, sp, r0, lsr #18
3000e740:	00000000 	andeq	r0, r0, r0
3000e744:	20746361 	rsbcss	r6, r4, r1, ror #6
3000e748:	74206e6f 	strvct	r6, [r0], #-3695
3000e74c:	70206568 	eorvc	r6, r0, r8, ror #10
3000e750:	72676f72 	rsbvc	r6, r7, #456	; 0x1c8
3000e754:	00216d61 	eoreq	r6, r1, r1, ror #26
3000e758:	79206649 	stmvcdb	r0!, {r0, r3, r6, r9, sl, sp, lr}
3000e75c:	7720756f 	strvc	r7, [r0, -pc, ror #10]!
3000e760:	20746e61 	rsbcss	r6, r4, r1, ror #28
3000e764:	74206f74 	strvct	r6, [r0], #-3956
3000e768:	20747365 	rsbcss	r7, r4, r5, ror #6
3000e76c:	2d495053 	stccsl	0, cr5, [r9, #-332]
3000e770:	73616c46 	cmnvc	r1, #17920	; 0x4600
3000e774:	65722068 	ldrvsb	r2, [r2, #-104]!
3000e778:	772d6461 	strvc	r6, [sp, -r1, ror #8]!
3000e77c:	65746972 	ldrvsb	r6, [r4, #-2418]!
3000e780:	6e756620 	cdpvs	6, 7, cr6, cr5, cr0, {1}
3000e784:	6f697463 	swivs	0x00697463
3000e788:	70202c6e 	eorvc	r2, r0, lr, ror #24
3000e78c:	7361656c 	cmnvc	r1, #452984832	; 0x1b000000
3000e790:	6f632065 	swivs	0x00632065
3000e794:	63656e6e 	cmnvs	r5, #1760	; 0x6e0
3000e798:	6f742074 	swivs	0x00742074
3000e79c:	20435020 	subcs	r5, r3, r0, lsr #32
3000e7a0:	69726573 	ldmvsdb	r2!, {r0, r1, r4, r5, r6, r8, sl, sp, lr}^
3000e7a4:	70206c61 	eorvc	r6, r0, r1, ror #24
3000e7a8:	2074726f 	rsbcss	r7, r4, pc, ror #4
3000e7ac:	6c6f6f74 	stcvsl	15, cr6, [pc], #-464
3000e7b0:	646e6120 	strvsbt	r6, [lr], #-288
3000e7b4:	2d657220 	sfmcs	f7, 2, [r5, #-128]!
3000e7b8:	65746e65 	ldrvsb	r6, [r4, #-3685]!
3000e7bc:	68742072 	ldmvsda	r4!, {r1, r4, r5, r6, sp}^
3000e7c0:	70207369 	eorvc	r7, r0, r9, ror #6
3000e7c4:	2e656761 	cdpcs	7, 6, cr6, cr5, cr1, {3}
3000e7c8:	00000000 	andeq	r0, r0, r0
3000e7cc:	205d775b 	subcss	r7, sp, fp, asr r7
3000e7d0:	74697257 	strvcbt	r7, [r9], #-599
3000e7d4:	50532065 	subpls	r2, r3, r5, rrx
3000e7d8:	6c462d49 	mcrrvs	13, 4, r2, r6, cr9
3000e7dc:	0a687361 	beq	31a2b568 <_end+0x1a19c28>
3000e7e0:	0000000d 	andeq	r0, r0, sp
3000e7e4:	205d725b 	subcss	r7, sp, fp, asr r2
3000e7e8:	64616552 	strvsbt	r6, [r1], #-1362
3000e7ec:	49505320 	ldmmidb	r0, {r5, r8, r9, ip, lr}^
3000e7f0:	616c462d 	cmnvs	ip, sp, lsr #12
3000e7f4:	0d0a6873 	stceq	8, cr6, [sl, #-460]
3000e7f8:	00000000 	andeq	r0, r0, r0
3000e7fc:	205d655b 	subcss	r6, sp, fp, asr r5
3000e800:	73617245 	cmnvc	r1, #1342177284	; 0x50000004
3000e804:	50532065 	subpls	r2, r3, r5, rrx
3000e808:	6c462d49 	mcrrvs	13, 4, r2, r6, cr9
3000e80c:	0a687361 	beq	31a2b598 <_end+0x1a19c58>
3000e810:	0000000d 	andeq	r0, r0, sp
3000e814:	20656854 	rsbcs	r6, r5, r4, asr r8
3000e818:	72726f63 	rsbvcs	r6, r2, #396	; 0x18c
3000e81c:	6f707365 	swivs	0x00707365
3000e820:	6e69646e 	cdpvs	4, 6, cr6, cr9, cr14, {3}
3000e824:	6f6d2067 	swivs	0x006d2067
3000e828:	656c7564 	strvsb	r7, [ip, #-1380]!
3000e82c:	69616620 	stmvsdb	r1!, {r5, r9, sl, sp, lr}^
3000e830:	2064656c 	rsbcs	r6, r4, ip, ror #10
3000e834:	63206f74 	teqvs	r0, #464	; 0x1d0
3000e838:	656e6e6f 	strvsb	r6, [lr, #-3695]!
3000e83c:	70207463 	eorvc	r7, r0, r3, ror #8
3000e840:	65706f72 	ldrvsb	r6, [r0, #-3954]!
3000e844:	21796c72 	cmncs	r9, r2, ror ip
3000e848:	00002121 	andeq	r2, r0, r1, lsr #2
3000e84c:	775b0d0a 	ldrvcb	r0, [fp, -sl, lsl #26]
3000e850:	7257205d 	subvcs	r2, r7, #93	; 0x5d
3000e854:	20657469 	rsbcs	r7, r5, r9, ror #8
3000e858:	2d495053 	stccsl	0, cr5, [r9, #-332]
3000e85c:	73616c46 	cmnvc	r1, #17920	; 0x4600
3000e860:	000d0a68 	andeq	r0, sp, r8, ror #20
3000e864:	20727473 	rsbcss	r7, r2, r3, ror r4
3000e868:	7325203d 	teqvc	r5, #61	; 0x3d
3000e86c:	00000d0a 	andeq	r0, r0, sl, lsl #26
3000e870:	646e6576 	strvsbt	r6, [lr], #-1398
3000e874:	6920726f 	stmvsdb	r0!, {r0, r1, r2, r3, r5, r6, r9, ip, sp, lr}
3000e878:	203d2064 	eorcss	r2, sp, r4, rrx
3000e87c:	78257830 	stmvcda	r5!, {r4, r5, fp, ip, sp, lr}
3000e880:	6564202c 	strvsb	r2, [r4, #-44]!
3000e884:	65636976 	strvsb	r6, [r3, #-2422]!
3000e888:	20646920 	rsbcs	r6, r4, r0, lsr #18
3000e88c:	7830203d 	ldmvcda	r0!, {r0, r2, r3, r4, r5, sp}
3000e890:	202c7825 	eorcs	r7, ip, r5, lsr #16
3000e894:	20726f6e 	rsbcss	r6, r2, lr, ror #30
3000e898:	657a6973 	ldrvsb	r6, [sl, #-2419]!
3000e89c:	30203d20 	eorcc	r3, r0, r0, lsr #26
3000e8a0:	2c782578 	cfldr64cs	mvdx2, [r8], #-480
3000e8a4:	4d642520 	cfstr64mi	mvdx2, [r4, #-128]!
3000e8a8:	00000d0a 	andeq	r0, r0, sl, lsl #26
3000e8ac:	636f6c42 	cmnvs	pc, #16896	; 0x4200
3000e8b0:	65532f6b 	ldrvsb	r2, [r3, #-3947]
3000e8b4:	726f7463 	rsbvc	r7, pc, #1660944384	; 0x63000000
3000e8b8:	61747320 	cmnvs	r4, r0, lsr #6
3000e8bc:	41207472 	teqmi	r0, r2, ror r4
3000e8c0:	65726464 	ldrvsb	r6, [r2, #-1124]!
3000e8c4:	0a3a7373 	beq	30eab698 <_end+0xe99d58>
3000e8c8:	0000000d 	andeq	r0, r0, sp
3000e8cc:	20524f4e 	subcss	r4, r2, lr, asr #30
3000e8d0:	54534554 	ldrplb	r4, [r3], #-1364
3000e8d4:	00000000 	andeq	r0, r0, r0
3000e8d8:	646e6576 	strvsbt	r6, [lr], #-1398
3000e8dc:	6920726f 	stmvsdb	r0!, {r0, r1, r2, r3, r5, r6, r9, ip, sp, lr}
3000e8e0:	3d202064 	stccc	0, cr2, [r0, #-400]!
3000e8e4:	78302020 	ldmvcda	r0!, {r5, sp}
3000e8e8:	00000000 	andeq	r0, r0, r0
3000e8ec:	69766564 	ldmvsdb	r6!, {r2, r5, r6, r8, sl, sp, lr}^
3000e8f0:	69206563 	stmvsdb	r0!, {r0, r1, r5, r6, r8, sl, sp, lr}
3000e8f4:	3d202064 	stccc	0, cr2, [r0, #-400]!
3000e8f8:	78302020 	ldmvcda	r0!, {r5, sp}
3000e8fc:	00000000 	andeq	r0, r0, r0
3000e900:	20726f6e 	rsbcss	r6, r2, lr, ror #30
3000e904:	7a697320 	bvc	31a6b58c <_end+0x1a59c4c>
3000e908:	3d202065 	stccc	0, cr2, [r0, #-404]!
3000e90c:	78302020 	ldmvcda	r0!, {r5, sp}
3000e910:	00000000 	andeq	r0, r0, r0
3000e914:	65747962 	ldrvsb	r7, [r4, #-2402]!
3000e918:	0000202c 	andeq	r2, r0, ip, lsr #32
3000e91c:	20726f6e 	rsbcss	r6, r2, lr, ror #30
3000e920:	7a697320 	bvc	31a6b5a8 <_end+0x1a59c68>
3000e924:	3d202065 	stccc	0, cr2, [r0, #-404]!
3000e928:	20202020 	eorcs	r2, r0, r0, lsr #32
3000e92c:	00000000 	andeq	r0, r0, r0
3000e930:	0000004d 	andeq	r0, r0, sp, asr #32
3000e934:	79206649 	stmvcdb	r0!, {r0, r3, r6, r9, sl, sp, lr}
3000e938:	7720756f 	strvc	r7, [r0, -pc, ror #10]!
3000e93c:	20746e61 	rsbcss	r6, r4, r1, ror #28
3000e940:	74206f74 	strvct	r6, [r0], #-3956
3000e944:	20747365 	rsbcss	r7, r4, r5, ror #6
3000e948:	20656874 	rsbcs	r6, r5, r4, ror r8
3000e94c:	20726f6e 	rsbcss	r6, r2, lr, ror #30
3000e950:	64616572 	strvsbt	r6, [r1], #-1394
3000e954:	6972772d 	ldmvsdb	r2!, {r0, r2, r3, r5, r8, r9, sl, ip, sp, lr}^
3000e958:	66206574 	undefined
3000e95c:	74636e75 	strvcbt	r6, [r3], #-3701
3000e960:	2c6e6f69 	stccsl	15, cr6, [lr], #-420
3000e964:	656c7020 	strvsb	r7, [ip, #-32]!
3000e968:	20657361 	rsbcs	r7, r5, r1, ror #6
3000e96c:	6e6e6f63 	cdpvs	15, 6, cr6, cr14, cr3, {3}
3000e970:	20746365 	rsbcss	r6, r4, r5, ror #6
3000e974:	74206f74 	strvct	r6, [r0], #-3956
3000e978:	50206568 	eorpl	r6, r0, r8, ror #10
3000e97c:	65732043 	ldrvsb	r2, [r3, #-67]!
3000e980:	6c616972 	stcvsl	9, cr6, [r1], #-456
3000e984:	726f7020 	rsbvc	r7, pc, #32	; 0x20
3000e988:	6f742074 	swivs	0x00742074
3000e98c:	61206c6f 	teqvs	r0, pc, ror #24
3000e990:	7220646e 	eorvc	r6, r0, #1845493760	; 0x6e000000
3000e994:	6e652d65 	cdpvs	13, 6, cr2, cr5, cr5, {3}
3000e998:	20726574 	rsbcss	r6, r2, r4, ror r5
3000e99c:	73696874 	cmnvc	r9, #7602176	; 0x740000
3000e9a0:	67617020 	strvsb	r7, [r1, -r0, lsr #32]!
3000e9a4:	00002e65 	andeq	r2, r0, r5, ror #28
3000e9a8:	20202020 	eorcs	r2, r0, r0, lsr #32
3000e9ac:	4e202020 	cdpmi	0, 2, cr2, cr0, cr0, {1}
3000e9b0:	4620726f 	strmit	r7, [r0], -pc, ror #4
3000e9b4:	6873616c 	ldmvsda	r3!, {r2, r3, r5, r6, r8, sp, lr}^
3000e9b8:	73655420 	cmnvc	r5, #536870912	; 0x20000000
3000e9bc:	000d0a74 	andeq	r0, sp, r4, ror sl
3000e9c0:	205d735b 	subcss	r7, sp, fp, asr r3
3000e9c4:	6e616353 	mcrvs	3, 3, r6, cr1, cr3, {2}
3000e9c8:	726f6e20 	rsbvc	r6, pc, #512	; 0x200
3000e9cc:	616c6620 	cmnvs	ip, r0, lsr #12
3000e9d0:	0d0a6873 	stceq	8, cr6, [sl, #-460]
3000e9d4:	00000000 	andeq	r0, r0, r0
3000e9d8:	205d655b 	subcss	r6, sp, fp, asr r5
3000e9dc:	73617245 	cmnvc	r1, #1342177284	; 0x50000004
3000e9e0:	6f6e2065 	swivs	0x006e2065
3000e9e4:	6c662072 	stcvsl	0, cr2, [r6], #-456
3000e9e8:	0a687361 	beq	31a2b774 <_end+0x1a19e34>
3000e9ec:	0000000d 	andeq	r0, r0, sp
3000e9f0:	205d775b 	subcss	r7, sp, fp, asr r7
3000e9f4:	74697257 	strvcbt	r7, [r9], #-599
3000e9f8:	6f6e2065 	swivs	0x006e2065
3000e9fc:	6c662072 	stcvsl	0, cr2, [r6], #-456
3000ea00:	0a687361 	beq	31a2b78c <_end+0x1a19e4c>
3000ea04:	0000000d 	andeq	r0, r0, sp
3000ea08:	205d725b 	subcss	r7, sp, fp, asr r2
3000ea0c:	64616552 	strvsbt	r6, [r1], #-1362
3000ea10:	726f6e20 	rsbvc	r6, pc, #512	; 0x200
3000ea14:	616c6620 	cmnvs	ip, r0, lsr #12
3000ea18:	0d0a6873 	stceq	8, cr6, [sl, #-460]
3000ea1c:	00000000 	andeq	r0, r0, r0
3000ea20:	20202009 	eorcs	r2, r0, r9
3000ea24:	20726f4e 	rsbcss	r6, r2, lr, asr #30
3000ea28:	73616c46 	cmnvc	r1, #17920	; 0x4600
3000ea2c:	65542068 	ldrvsb	r2, [r4, #-104]
3000ea30:	0d0a7473 	cfstrseq	mvf7, [sl, #-460]
3000ea34:	00000000 	andeq	r0, r0, r0
3000ea38:	32633373 	rsbcc	r3, r3, #-872415231	; 0xcc000001
3000ea3c:	00303434 	eoreqs	r3, r0, r4, lsr r4
3000ea40:	5f64636c 	swipl	0x0064636c
3000ea44:	00332e34 	eoreqs	r2, r3, r4, lsr lr
3000ea48:	6369656c 	cmnvs	r9, #452984832	; 0x1b000000
3000ea4c:	6e617568 	cdpvs	5, 6, cr7, cr1, cr8, {3}
3000ea50:	73202020 	teqvc	r0, #32	; 0x20
3000ea54:	63616761 	cmnvs	r1, #25427968	; 0x1840000
3000ea58:	5f797469 	swipl	0x00797469
3000ea5c:	3140636c 	cmpcc	r0, ip, ror #6
3000ea60:	632e3336 	teqvs	lr, #-671088640	; 0xd8000000
3000ea64:	00006d6f 	andeq	r6, r0, pc, ror #26
3000ea68:	2044454c 	subcs	r4, r4, ip, asr #10
3000ea6c:	54534554 	ldrplb	r4, [r3], #-1364
3000ea70:	00000000 	andeq	r0, r0, r0
3000ea74:	20202020 	eorcs	r2, r0, r0, lsr #32
3000ea78:	44454c20 	strmib	r4, [r5], #-3104
3000ea7c:	73657420 	cmnvc	r5, #536870912	; 0x20000000
3000ea80:	676e6974 	undefined
3000ea84:	20736920 	rsbcss	r6, r3, r0, lsr #18
3000ea88:	70206e69 	eorvc	r6, r0, r9, ror #28
3000ea8c:	72676f72 	rsbvc	r6, r7, #456	; 0x1c8
3000ea90:	2e737365 	cdpcs	3, 7, cr7, cr3, cr5, {3}
3000ea94:	2e2e2e2e 	cdpcs	14, 2, cr2, cr14, cr14, {1}
3000ea98:	0000002e 	andeq	r0, r0, lr, lsr #32
3000ea9c:	63756f74 	cmnvs	r5, #464	; 0x1d0
3000eaa0:	72637368 	rsbvc	r7, r3, #-1610612735	; 0xa0000001
3000eaa4:	006e6565 	rsbeq	r6, lr, r5, ror #10
3000eaa8:	74736574 	ldrvcbt	r6, [r3], #-1396
3000eaac:	72726120 	rsbvcs	r6, r2, #8	; 0x8
3000eab0:	78207961 	stmvcda	r0!, {r0, r5, r6, r8, fp, ip, sp, lr}
3000eab4:	00203a20 	eoreq	r3, r0, r0, lsr #20
3000eab8:	64383025 	ldrvst	r3, [r8], #-37
3000eabc:	00000020 	andeq	r0, r0, r0, lsr #32
3000eac0:	74736574 	ldrvcbt	r6, [r3], #-1396
3000eac4:	72726120 	rsbvcs	r6, r2, #8	; 0x8
3000eac8:	79207961 	stmvcdb	r0!, {r0, r5, r6, r8, fp, ip, sp, lr}
3000eacc:	00203a20 	eoreq	r3, r0, r0, lsr #20
3000ead0:	20535420 	subcss	r5, r3, r0, lsr #8
3000ead4:	54534554 	ldrplb	r4, [r3], #-1364
3000ead8:	00000000 	andeq	r0, r0, r0
3000eadc:	20214b4f 	eorcs	r4, r1, pc, asr #22
3000eae0:	64206f54 	strvst	r6, [r0], #-3924
3000eae4:	21776172 	cmncs	r7, r2, ror r1
3000eae8:	00000000 	andeq	r0, r0, r0
3000eaec:	636c2041 	cmnvs	ip, #65	; 0x41
3000eaf0:	20785f64 	rsbcss	r5, r8, r4, ror #30
3000eaf4:	3025203d 	eorcc	r2, r5, sp, lsr r0
3000eaf8:	202c6438 	eorcs	r6, ip, r8, lsr r4
3000eafc:	5f64636c 	swipl	0x0064636c
3000eb00:	203d2079 	eorcss	r2, sp, r9, ror r0
3000eb04:	64383025 	ldrvst	r3, [r8], #-37
3000eb08:	00000d0a 	andeq	r0, r0, sl, lsl #26
3000eb0c:	636c2042 	cmnvs	ip, #66	; 0x42
3000eb10:	20785f64 	rsbcss	r5, r8, r4, ror #30
3000eb14:	3025203d 	eorcc	r2, r5, sp, lsr r0
3000eb18:	202c6438 	eorcs	r6, ip, r8, lsr r4
3000eb1c:	5f64636c 	swipl	0x0064636c
3000eb20:	203d2079 	eorcss	r2, sp, r9, ror r0
3000eb24:	64383025 	ldrvst	r3, [r8], #-37
3000eb28:	00000d0a 	andeq	r0, r0, sl, lsl #26
3000eb2c:	636c2043 	cmnvs	ip, #67	; 0x43
3000eb30:	20785f64 	rsbcss	r5, r8, r4, ror #30
3000eb34:	3025203d 	eorcc	r2, r5, sp, lsr r0
3000eb38:	202c6438 	eorcs	r6, ip, r8, lsr r4
3000eb3c:	5f64636c 	swipl	0x0064636c
3000eb40:	203d2079 	eorcss	r2, sp, r9, ror r0
3000eb44:	64383025 	ldrvst	r3, [r8], #-37
3000eb48:	00000d0a 	andeq	r0, r0, sl, lsl #26
3000eb4c:	636c2044 	cmnvs	ip, #68	; 0x44
3000eb50:	20785f64 	rsbcss	r5, r8, r4, ror #30
3000eb54:	3025203d 	eorcc	r2, r5, sp, lsr r0
3000eb58:	202c6438 	eorcs	r6, ip, r8, lsr r4
3000eb5c:	5f64636c 	swipl	0x0064636c
3000eb60:	203d2079 	eorcss	r2, sp, r9, ror r0
3000eb64:	64383025 	ldrvst	r3, [r8], #-37
3000eb68:	00000d0a 	andeq	r0, r0, sl, lsl #26
3000eb6c:	636c2045 	cmnvs	ip, #69	; 0x45
3000eb70:	20785f64 	rsbcss	r5, r8, r4, ror #30
3000eb74:	3025203d 	eorcc	r2, r5, sp, lsr r0
3000eb78:	202c6438 	eorcs	r6, ip, r8, lsr r4
3000eb7c:	5f64636c 	swipl	0x0064636c
3000eb80:	203d2079 	eorcss	r2, sp, r9, ror r0
3000eb84:	64383025 	ldrvst	r3, [r8], #-37
3000eb88:	00000d0a 	andeq	r0, r0, sl, lsl #26
3000eb8c:	545f7367 	ldrplb	r7, [pc], #871	; 3000eb94 <__FUNCTION__.0+0xb8c>
3000eb90:	53595873 	cmppl	r9, #7536640	; 0x730000
3000eb94:	20706177 	rsbcss	r6, r0, r7, ror r1
3000eb98:	3025203d 	eorcc	r2, r5, sp, lsr r0
3000eb9c:	0d0a6438 	cfstrseq	mvf6, [sl, #-224]
3000eba0:	00000000 	andeq	r0, r0, r0
3000eba4:	20303030 	eorcss	r3, r0, r0, lsr r0
3000eba8:	73745f61 	cmnvc	r4, #388	; 0x184
3000ebac:	3d20785f 	stccc	8, cr7, [r0, #-380]!
3000ebb0:	38302520 	ldmccda	r0!, {r5, r8, sl, sp}
3000ebb4:	61202c64 	teqvs	r0, r4, ror #24
3000ebb8:	5f73745f 	swipl	0x0073745f
3000ebbc:	203d2079 	eorcss	r2, sp, r9, ror r0
3000ebc0:	64383025 	ldrvst	r3, [r8], #-37
3000ebc4:	00000d0a 	andeq	r0, r0, sl, lsl #26
3000ebc8:	20303030 	eorcss	r3, r0, r0, lsr r0
3000ebcc:	73745f62 	cmnvc	r4, #392	; 0x188
3000ebd0:	3d20785f 	stccc	8, cr7, [r0, #-380]!
3000ebd4:	38302520 	ldmccda	r0!, {r5, r8, sl, sp}
3000ebd8:	62202c64 	eorvs	r2, r0, #25600	; 0x6400
3000ebdc:	5f73745f 	swipl	0x0073745f
3000ebe0:	203d2079 	eorcss	r2, sp, r9, ror r0
3000ebe4:	64383025 	ldrvst	r3, [r8], #-37
3000ebe8:	00000d0a 	andeq	r0, r0, sl, lsl #26
3000ebec:	20303030 	eorcss	r3, r0, r0, lsr r0
3000ebf0:	73745f63 	cmnvc	r4, #396	; 0x18c
3000ebf4:	3d20785f 	stccc	8, cr7, [r0, #-380]!
3000ebf8:	38302520 	ldmccda	r0!, {r5, r8, sl, sp}
3000ebfc:	63202c64 	teqvs	r0, #25600	; 0x6400
3000ec00:	5f73745f 	swipl	0x0073745f
3000ec04:	203d2079 	eorcss	r2, sp, r9, ror r0
3000ec08:	64383025 	ldrvst	r3, [r8], #-37
3000ec0c:	00000d0a 	andeq	r0, r0, sl, lsl #26
3000ec10:	20303030 	eorcss	r3, r0, r0, lsr r0
3000ec14:	73745f64 	cmnvc	r4, #400	; 0x190
3000ec18:	3d20785f 	stccc	8, cr7, [r0, #-380]!
3000ec1c:	38302520 	ldmccda	r0!, {r5, r8, sl, sp}
3000ec20:	64202c64 	strvst	r2, [r0], #-3172
3000ec24:	5f73745f 	swipl	0x0073745f
3000ec28:	203d2079 	eorcss	r2, sp, r9, ror r0
3000ec2c:	64383025 	ldrvst	r3, [r8], #-37
3000ec30:	00000d0a 	andeq	r0, r0, sl, lsl #26
3000ec34:	20303030 	eorcss	r3, r0, r0, lsr r0
3000ec38:	73745f65 	cmnvc	r4, #404	; 0x194
3000ec3c:	3d20785f 	stccc	8, cr7, [r0, #-380]!
3000ec40:	38302520 	ldmccda	r0!, {r5, r8, sl, sp}
3000ec44:	65202c64 	strvs	r2, [r0, #-3172]!
3000ec48:	5f73745f 	swipl	0x0073745f
3000ec4c:	203d2079 	eorcss	r2, sp, r9, ror r0
3000ec50:	64383025 	ldrvst	r3, [r8], #-37
3000ec54:	00000d0a 	andeq	r0, r0, sl, lsl #26
3000ec58:	735f7374 	cmpvc	pc, #-805306367	; 0xd0000001
3000ec5c:	203d2031 	eorcss	r2, sp, r1, lsr r0
3000ec60:	64383025 	ldrvst	r3, [r8], #-37
3000ec64:	5f737420 	swipl	0x00737420
3000ec68:	3d203273 	sfmcc	f3, 4, [r0, #-460]!
3000ec6c:	38302520 	ldmccda	r0!, {r5, r8, sl, sp}
3000ec70:	636c2064 	cmnvs	ip, #100	; 0x64
3000ec74:	20735f64 	rsbcss	r5, r3, r4, ror #30
3000ec78:	3025203d 	eorcc	r2, r5, sp, lsr r0
3000ec7c:	0d0a6438 	cfstrseq	mvf6, [sl, #-224]
3000ec80:	00000000 	andeq	r0, r0, r0
3000ec84:	645f7374 	ldrvsb	r7, [pc], #884	; 3000ec8c <__FUNCTION__.0+0xc84>
3000ec88:	203d2031 	eorcss	r2, sp, r1, lsr r0
3000ec8c:	64383025 	ldrvst	r3, [r8], #-37
3000ec90:	5f737420 	swipl	0x00737420
3000ec94:	3d203264 	sfmcc	f3, 4, [r0, #-400]!
3000ec98:	38302520 	ldmccda	r0!, {r5, r8, sl, sp}
3000ec9c:	636c2064 	cmnvs	ip, #100	; 0x64
3000eca0:	20645f64 	rsbcs	r5, r4, r4, ror #30
3000eca4:	3025203d 	eorcc	r2, r5, sp, lsr r0
3000eca8:	0d0a6438 	cfstrseq	mvf6, [sl, #-224]
3000ecac:	00000000 	andeq	r0, r0, r0
3000ecb0:	706d7420 	rsbvc	r7, sp, r0, lsr #8
3000ecb4:	3d20785f 	stccc	8, cr7, [r0, #-380]!
3000ecb8:	2c642520 	cfstr64cs	mvdx2, [r4], #-128
3000ecbc:	706d7420 	rsbvc	r7, sp, r0, lsr #8
3000ecc0:	3d20795f 	stccc	9, cr7, [r0, #-380]!
3000ecc4:	20642520 	rsbcs	r2, r4, r0, lsr #10
3000ecc8:	705f7374 	subvcs	r7, pc, r4, ror r3
3000eccc:	73736572 	cmnvc	r3, #478150656	; 0x1c800000
3000ecd0:	20657275 	rsbcs	r7, r5, r5, ror r2
3000ecd4:	6425203d 	strvst	r2, [r5], #-61
3000ecd8:	00000d0a 	andeq	r0, r0, sl, lsl #26
3000ecdc:	5f59454b 	swipl	0x0059454b
3000ece0:	544e4945 	strplb	r4, [lr], #-2373
3000ece4:	73692030 	cmnvc	r9, #48	; 0x30
3000ece8:	6c657220 	sfmvs	f7, 2, [r5], #-128
3000ecec:	65736165 	ldrvsb	r6, [r3, #-357]!
3000ecf0:	00002164 	andeq	r2, r0, r4, ror #2
3000ecf4:	5f59454b 	swipl	0x0059454b
3000ecf8:	544e4945 	strplb	r4, [lr], #-2373
3000ecfc:	73692030 	cmnvc	r9, #48	; 0x30
3000ed00:	65727020 	ldrvsb	r7, [r2, #-32]!
3000ed04:	64657373 	strvsbt	r7, [r5], #-883
3000ed08:	00000021 	andeq	r0, r0, r1, lsr #32
3000ed0c:	5f59454b 	swipl	0x0059454b
3000ed10:	544e4945 	strplb	r4, [lr], #-2373
3000ed14:	73692032 	cmnvc	r9, #50	; 0x32
3000ed18:	65727020 	ldrvsb	r7, [r2, #-32]!
3000ed1c:	64657373 	strvsbt	r7, [r5], #-883
3000ed20:	00000021 	andeq	r0, r0, r1, lsr #32
3000ed24:	5f59454b 	swipl	0x0059454b
3000ed28:	544e4945 	strplb	r4, [lr], #-2373
3000ed2c:	73692032 	cmnvc	r9, #50	; 0x32
3000ed30:	6c657220 	sfmvs	f7, 2, [r5], #-128
3000ed34:	65736165 	ldrvsb	r6, [r3, #-357]!
3000ed38:	00002164 	andeq	r2, r0, r4, ror #2
3000ed3c:	5f59454b 	swipl	0x0059454b
3000ed40:	544e4945 	strplb	r4, [lr], #-2373
3000ed44:	69203131 	stmvsdb	r0!, {r0, r4, r5, r8, ip, sp}
3000ed48:	65722073 	ldrvsb	r2, [r2, #-115]!
3000ed4c:	7361656c 	cmnvc	r1, #452984832	; 0x1b000000
3000ed50:	00216465 	eoreq	r6, r1, r5, ror #8
3000ed54:	5f59454b 	swipl	0x0059454b
3000ed58:	544e4945 	strplb	r4, [lr], #-2373
3000ed5c:	69203131 	stmvsdb	r0!, {r0, r4, r5, r8, ip, sp}
3000ed60:	72702073 	rsbvcs	r2, r0, #115	; 0x73
3000ed64:	65737365 	ldrvsb	r7, [r3, #-869]!
3000ed68:	00002164 	andeq	r2, r0, r4, ror #2
3000ed6c:	5f59454b 	swipl	0x0059454b
3000ed70:	544e4945 	strplb	r4, [lr], #-2373
3000ed74:	69203931 	stmvsdb	r0!, {r0, r4, r5, r8, fp, ip, sp}
3000ed78:	65722073 	ldrvsb	r2, [r2, #-115]!
3000ed7c:	7361656c 	cmnvc	r1, #452984832	; 0x1b000000
3000ed80:	00216465 	eoreq	r6, r1, r5, ror #8
3000ed84:	5f59454b 	swipl	0x0059454b
3000ed88:	544e4945 	strplb	r4, [lr], #-2373
3000ed8c:	69203931 	stmvsdb	r0!, {r0, r4, r5, r8, fp, ip, sp}
3000ed90:	72702073 	rsbvcs	r2, r0, #115	; 0x73
3000ed94:	65737365 	ldrvsb	r7, [r3, #-869]!
3000ed98:	00002164 	andeq	r2, r0, r4, ror #2
3000ed9c:	2059454b 	subcss	r4, r9, fp, asr #10
3000eda0:	54534554 	ldrplb	r4, [r3], #-1364
3000eda4:	00000000 	andeq	r0, r0, r0
3000eda8:	65207874 	strvs	r7, [r0, #-2164]!
3000edac:	202c7272 	eorcs	r7, ip, r2, ror r2
3000edb0:	61206f6e 	teqvs	r0, lr, ror #30
3000edb4:	0d0a6b63 	fstdeq	d6, [sl, #-396]
3000edb8:	00000000 	andeq	r0, r0, r0
3000edbc:	65207872 	strvs	r7, [r0, #-2162]!
3000edc0:	202c7272 	eorcs	r7, ip, r2, ror r2
3000edc4:	61206f6e 	teqvs	r0, lr, ror #30
3000edc8:	0d0a6b63 	fstdeq	d6, [sl, #-396]
3000edcc:	00000000 	andeq	r0, r0, r0
3000edd0:	2d67736d 	stccsl	3, cr7, [r7, #-436]!
3000edd4:	6441693e 	strvsb	r6, [r1], #-2366
3000edd8:	3d207264 	sfmcc	f7, 4, [r0, #-400]!
3000eddc:	0a642520 	beq	31918264 <_end+0x1906924>
3000ede0:	0000000d 	andeq	r0, r0, sp
3000ede4:	2d67736d 	stccsl	3, cr7, [r7, #-436]!
3000ede8:	7245693e 	subvc	r6, r5, #1015808	; 0xf8000
3000edec:	203d2072 	eorcss	r2, sp, r2, ror r0
3000edf0:	0d0a6425 	cfstrseq	mvf6, [sl, #-148]
3000edf4:	00000000 	andeq	r0, r0, r0
3000edf8:	74697257 	strvcbt	r7, [r9], #-599
3000edfc:	32744165 	rsbccs	r4, r4, #1073741849	; 0x40000019
3000ee00:	78786334 	ldmvcda	r8!, {r2, r4, r5, r8, r9, sp, lr}^
3000ee04:	64646120 	strvsbt	r6, [r4], #-288
3000ee08:	203d2072 	eorcss	r2, sp, r2, ror r0
3000ee0c:	0d0a6425 	cfstrseq	mvf6, [sl, #-148]
3000ee10:	00000000 	andeq	r0, r0, r0
3000ee14:	74697257 	strvcbt	r7, [r9], #-599
3000ee18:	32744165 	rsbccs	r4, r4, #1073741849	; 0x40000019
3000ee1c:	78786334 	ldmvcda	r8!, {r2, r4, r5, r8, r9, sp, lr}^
3000ee20:	74616420 	strvcbt	r6, [r1], #-1056
3000ee24:	64255b61 	strvst	r5, [r5], #-2913
3000ee28:	203d205d 	eorcss	r2, sp, sp, asr r0
3000ee2c:	0d0a6325 	stceq	3, cr6, [sl, #-148]
3000ee30:	00000000 	andeq	r0, r0, r0
3000ee34:	74697257 	strvcbt	r7, [r9], #-599
3000ee38:	32744165 	rsbccs	r4, r4, #1073741849	; 0x40000019
3000ee3c:	78786334 	ldmvcda	r8!, {r2, r4, r5, r8, r9, sp, lr}^
3000ee40:	72726520 	rsbvcs	r6, r2, #134217728	; 0x8000000
3000ee44:	25203d20 	strcs	r3, [r0, #-3360]!
3000ee48:	000d0a64 	andeq	r0, sp, r4, ror #20
3000ee4c:	72646461 	rsbvc	r6, r4, #1627389952	; 0x61000000
3000ee50:	20737365 	rsbcss	r7, r3, r5, ror #6
3000ee54:	3532203e 	ldrcc	r2, [r2, #-62]!
3000ee58:	65202c36 	strvs	r2, [r0, #-3126]!
3000ee5c:	726f7272 	rsbvc	r7, pc, #536870919	; 0x20000007
3000ee60:	000d0a21 	andeq	r0, sp, r1, lsr #20
3000ee64:	72646461 	rsbvc	r6, r4, #1627389952	; 0x61000000
3000ee68:	25203d20 	strcs	r3, [r0, #-3360]!
3000ee6c:	73202c64 	teqvc	r0, #25600	; 0x6400
3000ee70:	3d207274 	sfmcc	f7, 4, [r0, #-464]!
3000ee74:	2c732520 	cfldr64cs	mvdx2, [r3], #-128
3000ee78:	6e656c20 	cdpvs	12, 6, cr6, cr5, cr0, {1}
3000ee7c:	25203d20 	strcs	r3, [r0, #-3360]!
3000ee80:	000d0a64 	andeq	r0, sp, r4, ror #20
3000ee84:	34327461 	ldrcct	r7, [r2], #-1121
3000ee88:	5f787863 	swipl	0x00787863
3000ee8c:	74697277 	strvcbt	r7, [r9], #-631
3000ee90:	65722065 	ldrvsb	r2, [r2, #-101]!
3000ee94:	203d2074 	eorcss	r2, sp, r4, ror r0
3000ee98:	0d0a6425 	cfstrseq	mvf6, [sl, #-148]
3000ee9c:	00000000 	andeq	r0, r0, r0
3000eea0:	65746e45 	ldrvsb	r6, [r4, #-3653]!
3000eea4:	68742072 	ldmvsda	r4!, {r1, r4, r5, r6, sp}^
3000eea8:	656c2065 	strvsb	r2, [ip, #-101]!
3000eeac:	6874676e 	ldmvsda	r4!, {r1, r2, r3, r5, r6, r8, r9, sl, sp, lr}^
3000eeb0:	206f7420 	rsbcs	r7, pc, r0, lsr #8
3000eeb4:	64616572 	strvsbt	r6, [r1], #-1394
3000eeb8:	0000203a 	andeq	r2, r0, sl, lsr r0
3000eebc:	34327461 	ldrcct	r7, [r2], #-1121
3000eec0:	5f787863 	swipl	0x00787863
3000eec4:	64616572 	strvsbt	r6, [r1], #-1394
3000eec8:	74657220 	strvcbt	r7, [r5], #-544
3000eecc:	25203d20 	strcs	r3, [r0, #-3360]!
3000eed0:	000d0a64 	andeq	r0, sp, r4, ror #20
3000eed4:	2d433249 	sfmcs	f3, 2, [r3, #-292]
3000eed8:	34325441 	ldrcct	r5, [r2], #-1089
3000eedc:	20787863 	rsbcss	r7, r8, r3, ror #16
3000eee0:	54534554 	ldrplb	r4, [r3], #-1364
3000eee4:	00000000 	andeq	r0, r0, r0
3000eee8:	79206649 	stmvcdb	r0!, {r0, r3, r6, r9, sl, sp, lr}
3000eeec:	7720756f 	strvc	r7, [r0, -pc, ror #10]!
3000eef0:	20746e61 	rsbcss	r6, r4, r1, ror #28
3000eef4:	74206f74 	strvct	r6, [r0], #-3956
3000eef8:	20747365 	rsbcss	r7, r4, r5, ror #6
3000eefc:	34325441 	ldrcct	r5, [r2], #-1089
3000ef00:	20787863 	rsbcss	r7, r8, r3, ror #16
3000ef04:	64616572 	strvsbt	r6, [r1], #-1394
3000ef08:	6972772d 	ldmvsdb	r2!, {r0, r2, r3, r5, r8, r9, sl, ip, sp, lr}^
3000ef0c:	66206574 	undefined
3000ef10:	74636e75 	strvcbt	r6, [r3], #-3701
3000ef14:	2c6e6f69 	stccsl	15, cr6, [lr], #-420
3000ef18:	656c7020 	strvsb	r7, [ip, #-32]!
3000ef1c:	20657361 	rsbcs	r7, r5, r1, ror #6
3000ef20:	6e6e6f63 	cdpvs	15, 6, cr6, cr14, cr3, {3}
3000ef24:	20746365 	rsbcss	r6, r4, r5, ror #6
3000ef28:	74206f74 	strvct	r6, [r0], #-3956
3000ef2c:	50206568 	eorpl	r6, r0, r8, ror #10
3000ef30:	65732043 	ldrvsb	r2, [r3, #-67]!
3000ef34:	6c616972 	stcvsl	9, cr6, [r1], #-456
3000ef38:	726f7020 	rsbvc	r7, pc, #32	; 0x20
3000ef3c:	6f742074 	swivs	0x00742074
3000ef40:	61206c6f 	teqvs	r0, pc, ror #24
3000ef44:	7220646e 	eorvc	r6, r0, #1845493760	; 0x6e000000
3000ef48:	6e652d65 	cdpvs	13, 6, cr2, cr5, cr5, {3}
3000ef4c:	20726574 	rsbcss	r6, r2, r4, ror r5
3000ef50:	73696874 	cmnvc	r9, #7602176	; 0x740000
3000ef54:	67617020 	strvsb	r7, [r1, -r0, lsr #32]!
3000ef58:	00002e65 	andeq	r2, r0, r5, ror #28
3000ef5c:	775b0d0a 	ldrvcb	r0, [fp, -sl, lsl #26]
3000ef60:	7257205d 	subvcs	r2, r7, #93	; 0x5d
3000ef64:	20657469 	rsbcs	r7, r5, r9, ror #8
3000ef68:	34327461 	ldrcct	r7, [r2], #-1121
3000ef6c:	0a787863 	beq	31e2d100 <_end+0x1e1b7c0>
3000ef70:	0000000d 	andeq	r0, r0, sp
3000ef74:	205d725b 	subcss	r7, sp, fp, asr r2
3000ef78:	64616552 	strvsbt	r6, [r1], #-1362
3000ef7c:	32746120 	rsbccs	r6, r4, #8	; 0x8
3000ef80:	78786334 	ldmvcda	r8!, {r2, r4, r5, r8, r9, sp, lr}^
3000ef84:	00000d0a 	andeq	r0, r0, sl, lsl #26
3000ef88:	31746864 	cmncc	r4, r4, ror #16
3000ef8c:	61772031 	cmnvs	r7, r1, lsr r0
3000ef90:	66207469 	strvst	r7, [r0], -r9, ror #8
3000ef94:	6820726f 	stmvsda	r0!, {r0, r1, r2, r3, r5, r6, r9, ip, sp, lr}
3000ef98:	20686769 	rsbcs	r6, r8, r9, ror #14
3000ef9c:	61746164 	cmnvs	r4, r4, ror #2
3000efa0:	72726520 	rsbvcs	r6, r2, #134217728	; 0x8000000
3000efa4:	000d0a21 	andeq	r0, sp, r1, lsr #20
3000efa8:	31746864 	cmncc	r4, r4, ror #16
3000efac:	61772031 	cmnvs	r7, r1, lsr r0
3000efb0:	66207469 	strvst	r7, [r0], -r9, ror #8
3000efb4:	6c20726f 	sfmvs	f7, 4, [r0], #-444
3000efb8:	6420776f 	strvst	r7, [r0], #-1903
3000efbc:	20617461 	rsbcs	r7, r1, r1, ror #8
3000efc0:	21727265 	cmncs	r2, r5, ror #4
3000efc4:	00000d0a 	andeq	r0, r0, sl, lsl #26
3000efc8:	31746864 	cmncc	r4, r4, ror #16
3000efcc:	6f6e2031 	swivs	0x006e2031
3000efd0:	63612074 	cmnvs	r1, #116	; 0x74
3000efd4:	65202c6b 	strvs	r2, [r0, #-3179]!
3000efd8:	0a217272 	beq	3086b9a8 <_end+0x85a068>
3000efdc:	0000000d 	andeq	r0, r0, sp
3000efe0:	31746864 	cmncc	r4, r4, ror #16
3000efe4:	61772031 	cmnvs	r7, r1, lsr r0
3000efe8:	66207469 	strvst	r7, [r0], -r9, ror #8
3000efec:	6420726f 	strvst	r7, [r0], #-623
3000eff0:	20617461 	rsbcs	r7, r1, r1, ror #8
3000eff4:	20776f6c 	rsbcss	r6, r7, ip, ror #30
3000eff8:	21727265 	cmncs	r2, r5, ror #4
3000effc:	00000d0a 	andeq	r0, r0, sl, lsl #26
3000f000:	31746864 	cmncc	r4, r4, ror #16
3000f004:	61772031 	cmnvs	r7, r1, lsr r0
3000f008:	66207469 	strvst	r7, [r0], -r9, ror #8
3000f00c:	6120726f 	teqvs	r0, pc, ror #4
3000f010:	68206b63 	stmvsda	r0!, {r0, r1, r5, r6, r8, r9, fp, sp, lr}
3000f014:	20686769 	rsbcs	r6, r8, r9, ror #14
3000f018:	21727265 	cmncs	r2, r5, ror #4
3000f01c:	00000d0a 	andeq	r0, r0, sl, lsl #26
3000f020:	31746864 	cmncc	r4, r4, ror #16
3000f024:	68632031 	stmvsda	r3!, {r0, r4, r5, sp}^
3000f028:	736b6365 	cmnvc	fp, #-1811939327	; 0x94000001
3000f02c:	65206d75 	strvs	r6, [r0, #-3445]!
3000f030:	0a217272 	beq	3086ba00 <_end+0x85a0c0>
3000f034:	0000000d 	andeq	r0, r0, sp
3000f038:	31746844 	cmncc	r4, r4, asr #16
3000f03c:	45542031 	ldrmib	r2, [r4, #-49]
3000f040:	00005453 	andeq	r5, r0, r3, asr r4
3000f044:	61656c50 	cmnvs	r5, r0, asr ip
3000f048:	65206573 	strvs	r6, [r0, #-1395]!
3000f04c:	7275736e 	rsbvcs	r7, r5, #-1207959551	; 0xb8000001
3000f050:	68742065 	ldmvsda	r4!, {r0, r2, r5, r6, sp}^
3000f054:	74207461 	strvct	r7, [r0], #-1121
3000f058:	63206568 	teqvs	r0, #436207616	; 0x1a000000
3000f05c:	6572726f 	ldrvsb	r7, [r2, #-623]!
3000f060:	6e6f7073 	mcrvs	0, 3, r7, cr15, cr3, {3}
3000f064:	676e6964 	strvsb	r6, [lr, -r4, ror #18]!
3000f068:	646f6d20 	strvsbt	r6, [pc], #3360	; 3000f070 <__FUNCTION__.0+0x1068>
3000f06c:	20656c75 	rsbcs	r6, r5, r5, ror ip
3000f070:	70207369 	eorvc	r7, r0, r9, ror #6
3000f074:	65706f72 	ldrvsb	r6, [r0, #-3954]!
3000f078:	20796c72 	rsbcss	r6, r9, r2, ror ip
3000f07c:	6e6e6f63 	cdpvs	15, 6, cr6, cr14, cr3, {3}
3000f080:	65746365 	ldrvsb	r6, [r4, #-869]!
3000f084:	00002e64 	andeq	r2, r0, r4, ror #28
3000f088:	68640d0a 	stmvsda	r4!, {r1, r3, r8, sl, fp}^
3000f08c:	20313174 	eorcss	r3, r1, r4, ror r1
3000f090:	64616572 	strvsbt	r6, [r1], #-1394
3000f094:	72726520 	rsbvcs	r6, r2, #134217728	; 0x8000000
3000f098:	000d0a21 	andeq	r0, sp, r1, lsr #20
3000f09c:	31746864 	cmncc	r4, r4, ror #16
3000f0a0:	65722031 	ldrvsb	r2, [r2, #-49]!
3000f0a4:	65206461 	strvs	r6, [r0, #-1121]!
3000f0a8:	20217272 	eorcs	r7, r1, r2, ror r2
3000f0ac:	61656c50 	cmnvs	r5, r0, asr ip
3000f0b0:	72206573 	eorvc	r6, r0, #482344960	; 0x1cc00000
3000f0b4:	72757465 	rsbvcs	r7, r5, #1694498816	; 0x65000000
3000f0b8:	2121216e 	teqcs	r1, lr, ror #2
3000f0bc:	00000000 	andeq	r0, r0, r0
3000f0c0:	48440d0a 	stmmida	r4, {r1, r3, r8, sl, fp}^
3000f0c4:	20313154 	eorcss	r3, r1, r4, asr r1
3000f0c8:	6425203a 	strvst	r2, [r5], #-58
3000f0cc:	6d756820 	ldcvsl	8, cr6, [r5, #-128]!
3000f0d0:	74696469 	strvcbt	r6, [r9], #-1129
3000f0d4:	25202c79 	strcs	r2, [r0, #-3193]!
3000f0d8:	65742064 	ldrvsb	r2, [r4, #-100]!
3000f0dc:	7265706d 	rsbvc	r7, r5, #109	; 0x6d
3000f0e0:	72757461 	rsbvcs	r7, r5, #1627389952	; 0x61000000
3000f0e4:	000d0a65 	andeq	r0, sp, r5, ror #20
3000f0e8:	31544844 	cmpcc	r4, r4, asr #16
3000f0ec:	203a2031 	eorcss	r2, sl, r1, lsr r0
3000f0f0:	00000000 	andeq	r0, r0, r0
3000f0f4:	696d7568 	stmvsdb	sp!, {r3, r5, r6, r8, sl, ip, sp, lr}^
3000f0f8:	79746964 	ldmvcdb	r4!, {r2, r5, r6, r8, fp, sp, lr}^
3000f0fc:	00000000 	andeq	r0, r0, r0
3000f100:	706d6574 	rsbvc	r6, sp, r4, ror r5
3000f104:	74617265 	strvcbt	r7, [r1], #-613
3000f108:	00657275 	rsbeq	r7, r5, r5, ror r2
3000f10c:	38317364 	ldmccda	r1!, {r2, r5, r6, r8, r9, ip, sp, lr}
3000f110:	5f303262 	swipl	0x00303262
3000f114:	74696e69 	strvcbt	r6, [r9], #-3689
3000f118:	696c6169 	stmvsdb	ip!, {r0, r3, r5, r6, r8, sp, lr}^
3000f11c:	6974617a 	ldmvsdb	r4!, {r1, r3, r4, r5, r6, r8, sp, lr}^
3000f120:	65206e6f 	strvs	r6, [r0, #-3695]!
3000f124:	0a217272 	beq	3086baf4 <_end+0x85a1b4>
3000f128:	0000000d 	andeq	r0, r0, sp
3000f12c:	38317364 	ldmccda	r1!, {r2, r5, r6, r8, r9, ip, sp, lr}
3000f130:	5f303262 	swipl	0x00303262
3000f134:	74696177 	strvcbt	r6, [r9], #-375
3000f138:	6568775f 	strvsb	r7, [r8, #-1887]!
3000f13c:	72705f6e 	rsbvcs	r5, r0, #440	; 0x1b8
3000f140:	7365636f 	cmnvc	r5, #-1140850687	; 0xbc000001
3000f144:	676e6973 	undefined
3000f148:	72726520 	rsbvcs	r6, r2, #134217728	; 0x8000000
3000f14c:	000d0a21 	andeq	r0, sp, r1, lsr #20
3000f150:	38317344 	ldmccda	r1!, {r2, r6, r8, r9, ip, sp, lr}
3000f154:	20303262 	eorcss	r3, r0, r2, ror #4
3000f158:	54534554 	ldrplb	r4, [r3], #-1364
3000f15c:	00000000 	andeq	r0, r0, r0
3000f160:	38317364 	ldmccda	r1!, {r2, r5, r6, r8, r9, ip, sp, lr}
3000f164:	20303262 	eorcss	r3, r0, r2, ror #4
3000f168:	706d6574 	rsbvc	r6, sp, r4, ror r5
3000f16c:	74617265 	strvcbt	r7, [r1], #-613
3000f170:	3a657275 	bcc	3196bb4c <_end+0x195a20c>
3000f174:	00000020 	andeq	r0, r0, r0, lsr #32
3000f178:	38317364 	ldmccda	r1!, {r2, r5, r6, r8, r9, ip, sp, lr}
3000f17c:	20303262 	eorcss	r3, r0, r2, ror #4
3000f180:	706d6574 	rsbvc	r6, sp, r4, ror r5
3000f184:	74617265 	strvcbt	r7, [r1], #-613
3000f188:	3a657275 	bcc	3196bb64 <_end+0x195a224>
3000f18c:	2e642520 	cdpcs	5, 6, cr2, cr4, cr0, {1}
3000f190:	64343025 	ldrvst	r3, [r4], #-37
3000f194:	00000d0a 	andeq	r0, r0, sl, lsl #26
3000f198:	00776f6c 	rsbeqs	r6, r7, ip, ror #30
3000f19c:	68676968 	stmvsda	r7!, {r3, r5, r6, r8, fp, sp, lr}^
3000f1a0:	00000074 	andeq	r0, r0, r4, ror r0
3000f1a4:	25207325 	strcs	r7, [r0, #-805]!
3000f1a8:	73752064 	cmnvc	r5, #100	; 0x64
3000f1ac:	00207c20 	eoreq	r7, r0, r0, lsr #24
3000f1b0:	25207325 	strcs	r7, [r0, #-805]!
3000f1b4:	000d0a64 	andeq	r0, sp, r4, ror #20
3000f1b8:	61647249 	cmnvs	r4, r9, asr #4
3000f1bc:	2063654e 	rsbcs	r6, r3, lr, asr #10
3000f1c0:	54534554 	ldrplb	r4, [r3], #-1364
3000f1c4:	00000000 	andeq	r0, r0, r0
3000f1c8:	61647269 	cmnvs	r4, r9, ror #4
3000f1cc:	63656e5f 	cmnvs	r5, #1520	; 0x5f0
3000f1d0:	6165725f 	cmnvs	r5, pc, asr r2
3000f1d4:	61203a64 	teqvs	r0, r4, ror #20
3000f1d8:	65726464 	ldrvsb	r6, [r2, #-1124]!
3000f1dc:	3d207373 	stccc	3, cr7, [r0, #-460]!
3000f1e0:	25783020 	ldrcsb	r3, [r8, #-32]!
3000f1e4:	64202c78 	strvst	r2, [r0], #-3192
3000f1e8:	20617461 	rsbcs	r7, r1, r1, ror #8
3000f1ec:	7830203d 	ldmvcda	r0!, {r0, r2, r3, r4, r5, sp}
3000f1f0:	0d0a7825 	stceq	8, cr7, [sl, #-148]
3000f1f4:	00000000 	andeq	r0, r0, r0
3000f1f8:	61647269 	cmnvs	r4, r9, ror #4
3000f1fc:	63656e5f 	cmnvs	r5, #1520	; 0x5f0
3000f200:	6165725f 	cmnvs	r5, pc, asr r2
3000f204:	00203a64 	eoreq	r3, r0, r4, ror #20
3000f208:	72646461 	rsbvc	r6, r4, #1627389952	; 0x61000000
3000f20c:	20737365 	rsbcss	r7, r3, r5, ror #6
3000f210:	7830203d 	ldmvcda	r0!, {r0, r2, r3, r4, r5, sp}
3000f214:	00000000 	andeq	r0, r0, r0
3000f218:	61746164 	cmnvs	r4, r4, ror #2
3000f21c:	30203d20 	eorcc	r3, r0, r0, lsr #26
3000f220:	00000078 	andeq	r0, r0, r8, ror r0
3000f224:	73696854 	cmnvc	r9, #5505024	; 0x540000
3000f228:	20736920 	rsbcss	r6, r3, r0, lsr #18
3000f22c:	65722061 	ldrvsb	r2, [r2, #-97]!
3000f230:	74616570 	strvcbt	r6, [r1], #-1392
3000f234:	646f6320 	strvsbt	r6, [pc], #800	; 3000f23c <__FUNCTION__.0+0x1234>
3000f238:	000d0a65 	andeq	r0, sp, r5, ror #20
3000f23c:	69206874 	stmvsdb	r0!, {r2, r4, r5, r6, fp, sp, lr}
3000f240:	61726574 	cmnvs	r2, r4, ror r5
3000f244:	6e6f6974 	mcrvs	9, 3, r6, cr15, cr4, {3}
3000f248:	20666f20 	rsbcs	r6, r6, r0, lsr #30
3000f24c:	00007830 	andeq	r7, r0, r0, lsr r8
3000f250:	646f6320 	strvsbt	r6, [pc], #800	; 3000f258 <__FUNCTION__.0+0x1250>
3000f254:	00002e65 	andeq	r2, r0, r5, ror #28
3000f258:	746f6850 	strvcbt	r6, [pc], #2128	; 3000f260 <__FUNCTION__.0+0x1258>
3000f25c:	7365726f 	cmnvc	r5, #-268435450	; 0xf0000006
3000f260:	6f747369 	swivs	0x00747369
3000f264:	45542072 	ldrmib	r2, [r4, #-114]
3000f268:	00005453 	andeq	r5, r0, r3, asr r4
3000f26c:	73696854 	cmnvc	r9, #5505024	; 0x540000
3000f270:	73657420 	cmnvc	r5, #536870912	; 0x20000000
3000f274:	61632074 	cmnvs	r3, r4, ror r0
3000f278:	746f6e6e 	strvcbt	r6, [pc], #3694	; 3000f280 <__FUNCTION__.0+0x1278>
3000f27c:	74657220 	strvcbt	r7, [r5], #-544
3000f280:	206e7275 	rsbcs	r7, lr, r5, ror r2
3000f284:	74206f74 	strvct	r6, [r0], #-3956
3000f288:	6d206568 	cfstr32vs	mvfx6, [r0, #-416]!
3000f28c:	206e6961 	rsbcs	r6, lr, r1, ror #18
3000f290:	65676170 	strvsb	r6, [r7, #-368]!
3000f294:	69737520 	ldmvsdb	r3!, {r5, r8, sl, ip, sp, lr}^
3000f298:	7420676e 	strvct	r6, [r0], #-1902
3000f29c:	72206568 	eorvc	r6, r0, #436207616	; 0x1a000000
3000f2a0:	72757465 	rsbvcs	r7, r5, #1694498816	; 0x65000000
3000f2a4:	7562206e 	strvcb	r2, [r2, #-110]!
3000f2a8:	6e6f7474 	mcrvs	4, 3, r7, cr15, cr4, {3}
3000f2ac:	6f59202e 	swivs	0x0059202e
3000f2b0:	61632075 	cmnvs	r3, r5, ror r0
3000f2b4:	7375206e 	cmnvc	r5, #110	; 0x6e
3000f2b8:	68742065 	ldmvsda	r4!, {r0, r2, r5, r6, sp}^
3000f2bc:	69652065 	stmvsdb	r5!, {r0, r2, r5, r6, sp}^
3000f2c0:	3931746e 	ldmccdb	r1!, {r1, r2, r3, r5, r6, sl, ip, sp, lr}
3000f2c4:	74756220 	ldrvcbt	r6, [r5], #-544
3000f2c8:	206e6f74 	rsbcs	r6, lr, r4, ror pc
3000f2cc:	72206f74 	eorvc	r6, r0, #464	; 0x1d0
3000f2d0:	72757465 	rsbvcs	r7, r5, #1694498816	; 0x65000000
3000f2d4:	00002e6e 	andeq	r2, r0, lr, ror #28
3000f2d8:	746f6870 	strvcbt	r6, [pc], #2160	; 3000f2e0 <__FUNCTION__.0+0x12d8>
3000f2dc:	7365726f 	cmnvc	r5, #-268435450	; 0xf0000006
3000f2e0:	6f747369 	swivs	0x00747369
3000f2e4:	6f762072 	swivs	0x00762072
3000f2e8:	25203a6c 	strcs	r3, [r0, #-2668]!
3000f2ec:	30252e64 	eorcc	r2, r5, r4, ror #28
3000f2f0:	2c766433 	cfldrdcs	mvd6, [r6], #-204
3000f2f4:	6d6f6320 	stcvsl	3, cr6, [pc, #-128]!
3000f2f8:	65726170 	ldrvsb	r6, [r2, #-368]!
3000f2fc:	206f7420 	rsbcs	r7, pc, r0, lsr #8
3000f300:	65726874 	ldrvsb	r6, [r2, #-2164]!
3000f304:	6c6f6873 	stcvsl	8, cr6, [pc], #-460
3000f308:	64252064 	strvst	r2, [r5], #-100
3000f30c:	3330252e 	teqcc	r0, #192937984	; 0xb800000
3000f310:	000d7664 	andeq	r7, sp, r4, ror #12
3000f314:	746f6850 	strvcbt	r6, [pc], #2128	; 3000f31c <__FUNCTION__.0+0x1314>
3000f318:	7365726f 	cmnvc	r5, #-268435450	; 0xf0000006
3000f31c:	6f747369 	swivs	0x00747369
3000f320:	6f762072 	swivs	0x00762072
3000f324:	00203a6c 	eoreq	r3, r0, ip, ror #20
3000f328:	00007664 	andeq	r7, r0, r4, ror #12
3000f32c:	706d6f63 	rsbvc	r6, sp, r3, ror #30
3000f330:	20657261 	rsbcs	r7, r5, r1, ror #4
3000f334:	74206f74 	strvct	r6, [r0], #-3956
3000f338:	73657268 	cmnvc	r5, #-2147483642	; 0x80000006
3000f33c:	646c6f68 	strvsbt	r6, [ip], #-3944
3000f340:	Address 0x3000f340 is out of bounds.

Disassembly of section .data:

3000f344 <hex_tab>:
3000f344:	33323130 	teqcc	r2, #12	; 0xc
3000f348:	37363534 	undefined
3000f34c:	62613938 	rsbvs	r3, r1, #917504	; 0xe0000
3000f350:	66656463 	strvsbt	r6, [r5], -r3, ror #8

3000f354 <_ctype>:
3000f354:	08080808 	stmeqda	r8, {r3, fp}
3000f358:	08080808 	stmeqda	r8, {r3, fp}
3000f35c:	28282808 	stmcsda	r8!, {r3, fp, sp}
3000f360:	08082828 	stmeqda	r8, {r3, r5, fp, sp}
3000f364:	08080808 	stmeqda	r8, {r3, fp}
3000f368:	08080808 	stmeqda	r8, {r3, fp}
3000f36c:	08080808 	stmeqda	r8, {r3, fp}
3000f370:	08080808 	stmeqda	r8, {r3, fp}
3000f374:	101010a0 	andnes	r1, r0, r0, lsr #1
3000f378:	10101010 	andnes	r1, r0, r0, lsl r0
3000f37c:	10101010 	andnes	r1, r0, r0, lsl r0
3000f380:	10101010 	andnes	r1, r0, r0, lsl r0
3000f384:	04040404 	streq	r0, [r4], #-1028
3000f388:	04040404 	streq	r0, [r4], #-1028
3000f38c:	10100404 	andnes	r0, r0, r4, lsl #8
3000f390:	10101010 	andnes	r1, r0, r0, lsl r0
3000f394:	41414110 	cmpmi	r1, r0, lsl r1
3000f398:	01414141 	cmpeq	r1, r1, asr #2
3000f39c:	01010101 	tsteq	r1, r1, lsl #2
3000f3a0:	01010101 	tsteq	r1, r1, lsl #2
3000f3a4:	01010101 	tsteq	r1, r1, lsl #2
3000f3a8:	01010101 	tsteq	r1, r1, lsl #2
3000f3ac:	10010101 	andne	r0, r1, r1, lsl #2
3000f3b0:	10101010 	andnes	r1, r0, r0, lsl r0
3000f3b4:	42424210 	submi	r4, r2, #1	; 0x1
3000f3b8:	02424242 	subeq	r4, r2, #536870916	; 0x20000004
3000f3bc:	02020202 	andeq	r0, r2, #536870912	; 0x20000000
3000f3c0:	02020202 	andeq	r0, r2, #536870912	; 0x20000000
3000f3c4:	02020202 	andeq	r0, r2, #536870912	; 0x20000000
3000f3c8:	02020202 	andeq	r0, r2, #536870912	; 0x20000000
3000f3cc:	10020202 	andne	r0, r2, r2, lsl #4
3000f3d0:	08101010 	ldmeqda	r0, {r4, ip}
	...
3000f3f4:	101010a0 	andnes	r1, r0, r0, lsr #1
3000f3f8:	10101010 	andnes	r1, r0, r0, lsl r0
3000f3fc:	10101010 	andnes	r1, r0, r0, lsl r0
3000f400:	10101010 	andnes	r1, r0, r0, lsl r0
3000f404:	10101010 	andnes	r1, r0, r0, lsl r0
3000f408:	10101010 	andnes	r1, r0, r0, lsl r0
3000f40c:	10101010 	andnes	r1, r0, r0, lsl r0
3000f410:	10101010 	andnes	r1, r0, r0, lsl r0
3000f414:	01010101 	tsteq	r1, r1, lsl #2
3000f418:	01010101 	tsteq	r1, r1, lsl #2
3000f41c:	01010101 	tsteq	r1, r1, lsl #2
3000f420:	01010101 	tsteq	r1, r1, lsl #2
3000f424:	01010101 	tsteq	r1, r1, lsl #2
3000f428:	10010101 	andne	r0, r1, r1, lsl #2
3000f42c:	01010101 	tsteq	r1, r1, lsl #2
3000f430:	02010101 	andeq	r0, r1, #1073741824	; 0x40000000
3000f434:	02020202 	andeq	r0, r2, #536870912	; 0x20000000
3000f438:	02020202 	andeq	r0, r2, #536870912	; 0x20000000
3000f43c:	02020202 	andeq	r0, r2, #536870912	; 0x20000000
3000f440:	02020202 	andeq	r0, r2, #536870912	; 0x20000000
3000f444:	02020202 	andeq	r0, r2, #536870912	; 0x20000000
3000f448:	10020202 	andne	r0, r2, r2, lsl #4
3000f44c:	02020202 	andeq	r0, r2, #536870912	; 0x20000000
3000f450:	02020202 	andeq	r0, r2, #536870912	; 0x20000000

3000f454 <g_sS3c2440LcdController>:
3000f454:	3000ea38 	andcc	lr, r0, r8, lsr sl
3000f458:	30003c78 	andcc	r3, r0, r8, ror ip
3000f45c:	30003e1c 	andcc	r3, r0, ip, lsl lr
3000f460:	30003e4c 	andcc	r3, r0, ip, asr #28
3000f464:	30003e7c 	andcc	r3, r0, ip, ror lr

3000f468 <lcd_4_3_params>:
3000f468:	3000ea40 	andcc	lr, r0, r0, asr #20
	...
3000f47c:	00000001 	andeq	r0, r0, r1
3000f480:	00000001 	andeq	r0, r0, r1
3000f484:	0000000a 	andeq	r0, r0, sl
3000f488:	00000002 	andeq	r0, r0, r2
3000f48c:	00000002 	andeq	r0, r0, r2
3000f490:	00000029 	andeq	r0, r0, r9, lsr #32
3000f494:	00000002 	andeq	r0, r0, r2
3000f498:	00000002 	andeq	r0, r0, r2
3000f49c:	00000009 	andeq	r0, r0, r9
3000f4a0:	000001e0 	andeq	r0, r0, r0, ror #3
3000f4a4:	00000110 	andeq	r0, r0, r0, lsl r1
3000f4a8:	00000010 	andeq	r0, r0, r0, lsl r0
3000f4ac:	33c00000 	biccc	r0, r0, #0	; 0x0

3000f4b0 <sS3c2440I2cCon>:
3000f4b0:	30006888 	andcc	r6, r0, r8, lsl #17
3000f4b4:	300069fc 	strccd	r6, [r0], -ip
3000f4b8:	3000ea38 	andcc	lr, r0, r8, lsr sl
Disassembly of section .bss:

3000f4bc <g_system_time_10ms_cnt>:
	...

3000f4c4 <g_psArrayLcdController>:
	...

3000f4ec <g_pSLcdControllerSelected>:
3000f4ec:	00000000 	andeq	r0, r0, r0

3000f4f0 <g_psArrayLcd>:
	...

3000f518 <g_psLcdSelected>:
3000f518:	00000000 	andeq	r0, r0, r0

3000f51c <sg_uiFbBase>:
3000f51c:	00000000 	andeq	r0, r0, r0

3000f520 <sg_iXres>:
3000f520:	00000000 	andeq	r0, r0, r0

3000f524 <sg_iYres>:
3000f524:	00000000 	andeq	r0, r0, r0

3000f528 <sg_Bpp>:
3000f528:	00000000 	andeq	r0, r0, r0

3000f52c <sg_uiFbBase>:
3000f52c:	00000000 	andeq	r0, r0, r0

3000f530 <sg_iXres>:
3000f530:	00000000 	andeq	r0, r0, r0

3000f534 <sg_iYres>:
3000f534:	00000000 	andeq	r0, r0, r0

3000f538 <sg_Bpp>:
3000f538:	00000000 	andeq	r0, r0, r0

3000f53c <gs_viTsTimerEnable>:
3000f53c:	00000000 	andeq	r0, r0, r0

3000f540 <gs_viTsDataValid>:
3000f540:	00000000 	andeq	r0, r0, r0

3000f544 <s_iAdcCnt.0>:
3000f544:	00000000 	andeq	r0, r0, r0

3000f548 <s_iAdcX.1>:
3000f548:	00000000 	andeq	r0, r0, r0

3000f54c <S_iAdcY.2>:
3000f54c:	00000000 	andeq	r0, r0, r0

3000f550 <gs_viTsX>:
3000f550:	00000000 	andeq	r0, r0, r0

3000f554 <gs_viTsY>:
3000f554:	00000000 	andeq	r0, r0, r0

3000f558 <gs_viTsPressure>:
3000f558:	00000000 	andeq	r0, r0, r0

3000f55c <s_TestXArray>:
	...

3000f59c <s_TestYArray>:
	...

3000f5dc <gs_TsXYSwap>:
3000f5dc:	00000000 	andeq	r0, r0, r0

3000f5e0 <gs_dKx>:
	...

3000f5e8 <gs_dKy>:
	...

3000f5f0 <gs_iTsXc>:
3000f5f0:	00000000 	andeq	r0, r0, r0

3000f5f4 <gs_iTsYc>:
3000f5f4:	00000000 	andeq	r0, r0, r0

3000f5f8 <gs_iLcdXc>:
3000f5f8:	00000000 	andeq	r0, r0, r0

3000f5fc <gs_iLcdYc>:
3000f5fc:	00000000 	andeq	r0, r0, r0

3000f600 <gs_uiFbBase>:
3000f600:	00000000 	andeq	r0, r0, r0

3000f604 <gs_iXres>:
3000f604:	00000000 	andeq	r0, r0, r0

3000f608 <gs_iYres>:
3000f608:	00000000 	andeq	r0, r0, r0

3000f60c <gs_iBpp>:
3000f60c:	00000000 	andeq	r0, r0, r0

3000f610 <iPhotoresistorEnd>:
3000f610:	00000000 	andeq	r0, r0, r0

3000f614 <iTestStatus>:
3000f614:	00000000 	andeq	r0, r0, r0

3000f618 <g_psI2cControllers>:
	...

3000f640 <g_psI2cConSelected>:
3000f640:	00000000 	andeq	r0, r0, r0

3000f644 <g_psCurMsg>:
3000f644:	00000000 	andeq	r0, r0, r0

3000f648 <g_iR>:
3000f648:	00000000 	andeq	r0, r0, r0

3000f64c <g_iW>:
3000f64c:	00000000 	andeq	r0, r0, r0

3000f650 <g_sEvents>:
	...

30011650 <gs_ulLastTime>:
	...

30011658 <g_fIrqArray>:
	...

300116d8 <timer_array>:
	...

300117d8 <g_sTsParam>:
	...

30011808 <g_sButtonReturn>:
	...

30011820 <g_sButton>:
	...
Disassembly of section .comment:

00000000 <.comment>:
   0:	43434700 	cmpmi	r3, #0	; 0x0
   4:	4728203a 	undefined
   8:	2029554e 	eorcs	r5, r9, lr, asr #10
   c:	2e342e33 	mrccs	14, 1, r2, cr4, cr3, {1}
  10:	47000035 	smladxmi	r0, r5, r0, r0
  14:	203a4343 	eorcss	r4, sl, r3, asr #6
  18:	554e4728 	strplb	r4, [lr, #-1832]
  1c:	2e332029 	cdpcs	0, 3, cr2, cr3, cr9, {1}
  20:	00352e34 	eoreqs	r2, r5, r4, lsr lr
  24:	43434700 	cmpmi	r3, #0	; 0x0
  28:	4728203a 	undefined
  2c:	2029554e 	eorcs	r5, r9, lr, asr #10
  30:	2e342e33 	mrccs	14, 1, r2, cr4, cr3, {1}
  34:	47000035 	smladxmi	r0, r5, r0, r0
  38:	203a4343 	eorcss	r4, sl, r3, asr #6
  3c:	554e4728 	strplb	r4, [lr, #-1832]
  40:	2e332029 	cdpcs	0, 3, cr2, cr3, cr9, {1}
  44:	00352e34 	eoreqs	r2, r5, r4, lsr lr
  48:	43434700 	cmpmi	r3, #0	; 0x0
  4c:	4728203a 	undefined
  50:	2029554e 	eorcs	r5, r9, lr, asr #10
  54:	2e342e33 	mrccs	14, 1, r2, cr4, cr3, {1}
  58:	47000035 	smladxmi	r0, r5, r0, r0
  5c:	203a4343 	eorcss	r4, sl, r3, asr #6
  60:	554e4728 	strplb	r4, [lr, #-1832]
  64:	2e332029 	cdpcs	0, 3, cr2, cr3, cr9, {1}
  68:	00352e34 	eoreqs	r2, r5, r4, lsr lr
  6c:	43434700 	cmpmi	r3, #0	; 0x0
  70:	4728203a 	undefined
  74:	2029554e 	eorcs	r5, r9, lr, asr #10
  78:	2e342e33 	mrccs	14, 1, r2, cr4, cr3, {1}
  7c:	47000035 	smladxmi	r0, r5, r0, r0
  80:	203a4343 	eorcss	r4, sl, r3, asr #6
  84:	554e4728 	strplb	r4, [lr, #-1832]
  88:	2e332029 	cdpcs	0, 3, cr2, cr3, cr9, {1}
  8c:	00352e34 	eoreqs	r2, r5, r4, lsr lr
  90:	43434700 	cmpmi	r3, #0	; 0x0
  94:	4728203a 	undefined
  98:	2029554e 	eorcs	r5, r9, lr, asr #10
  9c:	2e342e33 	mrccs	14, 1, r2, cr4, cr3, {1}
  a0:	47000035 	smladxmi	r0, r5, r0, r0
  a4:	203a4343 	eorcss	r4, sl, r3, asr #6
  a8:	554e4728 	strplb	r4, [lr, #-1832]
  ac:	2e332029 	cdpcs	0, 3, cr2, cr3, cr9, {1}
  b0:	00352e34 	eoreqs	r2, r5, r4, lsr lr
  b4:	43434700 	cmpmi	r3, #0	; 0x0
  b8:	4728203a 	undefined
  bc:	2029554e 	eorcs	r5, r9, lr, asr #10
  c0:	2e342e33 	mrccs	14, 1, r2, cr4, cr3, {1}
  c4:	47000035 	smladxmi	r0, r5, r0, r0
  c8:	203a4343 	eorcss	r4, sl, r3, asr #6
  cc:	554e4728 	strplb	r4, [lr, #-1832]
  d0:	2e332029 	cdpcs	0, 3, cr2, cr3, cr9, {1}
  d4:	00352e34 	eoreqs	r2, r5, r4, lsr lr
  d8:	43434700 	cmpmi	r3, #0	; 0x0
  dc:	4728203a 	undefined
  e0:	2029554e 	eorcs	r5, r9, lr, asr #10
  e4:	2e342e33 	mrccs	14, 1, r2, cr4, cr3, {1}
  e8:	47000035 	smladxmi	r0, r5, r0, r0
  ec:	203a4343 	eorcss	r4, sl, r3, asr #6
  f0:	554e4728 	strplb	r4, [lr, #-1832]
  f4:	2e332029 	cdpcs	0, 3, cr2, cr3, cr9, {1}
  f8:	00352e34 	eoreqs	r2, r5, r4, lsr lr
  fc:	43434700 	cmpmi	r3, #0	; 0x0
 100:	4728203a 	undefined
 104:	2029554e 	eorcs	r5, r9, lr, asr #10
 108:	2e342e33 	mrccs	14, 1, r2, cr4, cr3, {1}
 10c:	47000035 	smladxmi	r0, r5, r0, r0
 110:	203a4343 	eorcss	r4, sl, r3, asr #6
 114:	554e4728 	strplb	r4, [lr, #-1832]
 118:	2e332029 	cdpcs	0, 3, cr2, cr3, cr9, {1}
 11c:	00352e34 	eoreqs	r2, r5, r4, lsr lr
 120:	43434700 	cmpmi	r3, #0	; 0x0
 124:	4728203a 	undefined
 128:	2029554e 	eorcs	r5, r9, lr, asr #10
 12c:	2e342e33 	mrccs	14, 1, r2, cr4, cr3, {1}
 130:	47000035 	smladxmi	r0, r5, r0, r0
 134:	203a4343 	eorcss	r4, sl, r3, asr #6
 138:	554e4728 	strplb	r4, [lr, #-1832]
 13c:	2e332029 	cdpcs	0, 3, cr2, cr3, cr9, {1}
 140:	00352e34 	eoreqs	r2, r5, r4, lsr lr
 144:	43434700 	cmpmi	r3, #0	; 0x0
 148:	4728203a 	undefined
 14c:	2029554e 	eorcs	r5, r9, lr, asr #10
 150:	2e342e33 	mrccs	14, 1, r2, cr4, cr3, {1}
 154:	47000035 	smladxmi	r0, r5, r0, r0
 158:	203a4343 	eorcss	r4, sl, r3, asr #6
 15c:	554e4728 	strplb	r4, [lr, #-1832]
 160:	2e332029 	cdpcs	0, 3, cr2, cr3, cr9, {1}
 164:	00352e34 	eoreqs	r2, r5, r4, lsr lr
 168:	43434700 	cmpmi	r3, #0	; 0x0
 16c:	4728203a 	undefined
 170:	2029554e 	eorcs	r5, r9, lr, asr #10
 174:	2e342e33 	mrccs	14, 1, r2, cr4, cr3, {1}
 178:	47000035 	smladxmi	r0, r5, r0, r0
 17c:	203a4343 	eorcss	r4, sl, r3, asr #6
 180:	554e4728 	strplb	r4, [lr, #-1832]
 184:	2e332029 	cdpcs	0, 3, cr2, cr3, cr9, {1}
 188:	00352e34 	eoreqs	r2, r5, r4, lsr lr
 18c:	43434700 	cmpmi	r3, #0	; 0x0
 190:	4728203a 	undefined
 194:	2029554e 	eorcs	r5, r9, lr, asr #10
 198:	2e342e33 	mrccs	14, 1, r2, cr4, cr3, {1}
 19c:	47000035 	smladxmi	r0, r5, r0, r0
 1a0:	203a4343 	eorcss	r4, sl, r3, asr #6
 1a4:	554e4728 	strplb	r4, [lr, #-1832]
 1a8:	2e332029 	cdpcs	0, 3, cr2, cr3, cr9, {1}
 1ac:	00352e34 	eoreqs	r2, r5, r4, lsr lr
 1b0:	43434700 	cmpmi	r3, #0	; 0x0
 1b4:	4728203a 	undefined
 1b8:	2029554e 	eorcs	r5, r9, lr, asr #10
 1bc:	2e342e33 	mrccs	14, 1, r2, cr4, cr3, {1}
 1c0:	47000035 	smladxmi	r0, r5, r0, r0
 1c4:	203a4343 	eorcss	r4, sl, r3, asr #6
 1c8:	554e4728 	strplb	r4, [lr, #-1832]
 1cc:	2e332029 	cdpcs	0, 3, cr2, cr3, cr9, {1}
 1d0:	00352e34 	eoreqs	r2, r5, r4, lsr lr
 1d4:	43434700 	cmpmi	r3, #0	; 0x0
 1d8:	4728203a 	undefined
 1dc:	2029554e 	eorcs	r5, r9, lr, asr #10
 1e0:	2e342e33 	mrccs	14, 1, r2, cr4, cr3, {1}
 1e4:	47000035 	smladxmi	r0, r5, r0, r0
 1e8:	203a4343 	eorcss	r4, sl, r3, asr #6
 1ec:	554e4728 	strplb	r4, [lr, #-1832]
 1f0:	2e332029 	cdpcs	0, 3, cr2, cr3, cr9, {1}
 1f4:	00352e34 	eoreqs	r2, r5, r4, lsr lr
 1f8:	43434700 	cmpmi	r3, #0	; 0x0
 1fc:	4728203a 	undefined
 200:	2029554e 	eorcs	r5, r9, lr, asr #10
 204:	2e342e33 	mrccs	14, 1, r2, cr4, cr3, {1}
 208:	47000035 	smladxmi	r0, r5, r0, r0
 20c:	203a4343 	eorcss	r4, sl, r3, asr #6
 210:	554e4728 	strplb	r4, [lr, #-1832]
 214:	2e332029 	cdpcs	0, 3, cr2, cr3, cr9, {1}
 218:	00352e34 	eoreqs	r2, r5, r4, lsr lr
 21c:	43434700 	cmpmi	r3, #0	; 0x0
 220:	4728203a 	undefined
 224:	2029554e 	eorcs	r5, r9, lr, asr #10
 228:	2e342e33 	mrccs	14, 1, r2, cr4, cr3, {1}
 22c:	47000035 	smladxmi	r0, r5, r0, r0
 230:	203a4343 	eorcss	r4, sl, r3, asr #6
 234:	554e4728 	strplb	r4, [lr, #-1832]
 238:	2e332029 	cdpcs	0, 3, cr2, cr3, cr9, {1}
 23c:	00352e34 	eoreqs	r2, r5, r4, lsr lr
 240:	43434700 	cmpmi	r3, #0	; 0x0
 244:	4728203a 	undefined
 248:	2029554e 	eorcs	r5, r9, lr, asr #10
 24c:	2e342e33 	mrccs	14, 1, r2, cr4, cr3, {1}
 250:	47000035 	smladxmi	r0, r5, r0, r0
 254:	203a4343 	eorcss	r4, sl, r3, asr #6
 258:	554e4728 	strplb	r4, [lr, #-1832]
 25c:	2e332029 	cdpcs	0, 3, cr2, cr3, cr9, {1}
 260:	00352e34 	eoreqs	r2, r5, r4, lsr lr
 264:	43434700 	cmpmi	r3, #0	; 0x0
 268:	4728203a 	undefined
 26c:	2029554e 	eorcs	r5, r9, lr, asr #10
 270:	2e342e33 	mrccs	14, 1, r2, cr4, cr3, {1}
 274:	47000035 	smladxmi	r0, r5, r0, r0
 278:	203a4343 	eorcss	r4, sl, r3, asr #6
 27c:	554e4728 	strplb	r4, [lr, #-1832]
 280:	2e332029 	cdpcs	0, 3, cr2, cr3, cr9, {1}
 284:	00352e34 	eoreqs	r2, r5, r4, lsr lr
 288:	43434700 	cmpmi	r3, #0	; 0x0
 28c:	4728203a 	undefined
 290:	2029554e 	eorcs	r5, r9, lr, asr #10
 294:	2e342e33 	mrccs	14, 1, r2, cr4, cr3, {1}
 298:	47000035 	smladxmi	r0, r5, r0, r0
 29c:	203a4343 	eorcss	r4, sl, r3, asr #6
 2a0:	554e4728 	strplb	r4, [lr, #-1832]
 2a4:	2e332029 	cdpcs	0, 3, cr2, cr3, cr9, {1}
 2a8:	00352e34 	eoreqs	r2, r5, r4, lsr lr
Disassembly of section .debug_aranges:

00000000 <.debug_aranges>:
   0:	0000001c 	andeq	r0, r0, ip, lsl r0
   4:	00000002 	andeq	r0, r0, r2
   8:	00040000 	andeq	r0, r4, r0
   c:	00000000 	andeq	r0, r0, r0
  10:	300090b8 	strcch	r9, [r0], -r8
  14:	00000388 	andeq	r0, r0, r8, lsl #7
	...
  20:	0000001c 	andeq	r0, r0, ip, lsl r0
  24:	01000002 	tsteq	r0, r2
  28:	00040000 	andeq	r0, r4, r0
  2c:	00000000 	andeq	r0, r0, r0
  30:	30009440 	andcc	r9, r0, r0, asr #8
  34:	00000580 	andeq	r0, r0, r0, lsl #11
	...
  40:	0000001c 	andeq	r0, r0, ip, lsl r0
  44:	02000002 	andeq	r0, r0, #2	; 0x2
  48:	00040000 	andeq	r0, r4, r0
  4c:	00000000 	andeq	r0, r0, r0
  50:	300099c0 	andcc	r9, r0, r0, asr #19
  54:	00000080 	andeq	r0, r0, r0, lsl #1
	...
Disassembly of section .debug_info:

00000000 <.debug_info>:
   0:	000000fc 	streqd	r0, [r0], -ip
   4:	00000002 	andeq	r0, r0, r2
   8:	01040000 	tsteq	r4, r0
   c:	00000000 	andeq	r0, r0, r0
  10:	300090b8 	strcch	r9, [r0], -r8
  14:	30009440 	andcc	r9, r0, r0, asr #8
  18:	726f772f 	rsbvc	r7, pc, #12320768	; 0xbc0000
  1c:	6f742f6b 	swivs	0x00742f6b
  20:	2f736c6f 	swics	0x00736c6f
  24:	61657263 	cmnvs	r5, r3, ror #4
  28:	635f6574 	cmpvs	pc, #486539264	; 0x1d000000
  2c:	73736f72 	cmnvc	r3, #456	; 0x1c8
  30:	6c6f6f74 	stcvsl	15, cr6, [pc], #-464
  34:	72632f73 	rsbvc	r2, r3, #460	; 0x1cc
  38:	7473736f 	ldrvcbt	r7, [r3], #-879
  3c:	2d6c6f6f 	stccsl	15, cr6, [ip, #-444]!
  40:	33342e30 	teqcc	r4, #768	; 0x300
  44:	6975622f 	ldmvsdb	r5!, {r0, r1, r2, r3, r5, r9, sp, lr}^
  48:	612f646c 	teqvs	pc, ip, ror #8
  4c:	6c2d6d72 	stcvs	13, cr6, [sp], #-456
  50:	78756e69 	ldmvcda	r5!, {r0, r3, r5, r6, r9, sl, fp, sp, lr}^
  54:	6363672f 	cmnvs	r3, #12320768	; 0xbc0000
  58:	342e332d 	strcct	r3, [lr], #-813
  5c:	672d352e 	strvs	r3, [sp, -lr, lsr #10]!
  60:	6362696c 	cmnvs	r2, #1769472	; 0x1b0000
  64:	332e322d 	teqcc	lr, #-805306366	; 0xd0000002
  68:	672f362e 	strvs	r3, [pc, -lr, lsr #12]!
  6c:	332d6363 	teqcc	sp, #-1946157055	; 0x8c000001
  70:	352e342e 	strcc	r3, [lr, #-1070]!
  74:	6363672f 	cmnvs	r3, #12320768	; 0xbc0000
  78:	6e6f632f 	cdpvs	3, 6, cr6, cr15, cr15, {1}
  7c:	2f676966 	swics	0x00676966
  80:	2f6d7261 	swics	0x006d7261
  84:	65656569 	strvsb	r6, [r5, #-1385]!
  88:	2d343537 	cfldr32cs	mvfx3, [r4, #-220]!
  8c:	532e6664 	teqpl	lr, #104857600	; 0x6400000
  90:	6f772f00 	swivs	0x00772f00
  94:	742f6b72 	strvct	r6, [pc], #2930	; 9c <__code_start-0x2fffff64>
  98:	736c6f6f 	cmnvc	ip, #444	; 0x1bc
  9c:	6572632f 	ldrvsb	r6, [r2, #-815]!
  a0:	5f657461 	swipl	0x00657461
  a4:	736f7263 	cmnvc	pc, #805306374	; 0x30000006
  a8:	6f6f7473 	swivs	0x006f7473
  ac:	632f736c 	teqvs	pc, #-1342177279	; 0xb0000001
  b0:	73736f72 	cmnvc	r3, #456	; 0x1c8
  b4:	6c6f6f74 	stcvsl	15, cr6, [pc], #-464
  b8:	342e302d 	strcct	r3, [lr], #-45
  bc:	75622f33 	strvcb	r2, [r2, #-3891]!
  c0:	2f646c69 	swics	0x00646c69
  c4:	2d6d7261 	sfmcs	f7, 2, [sp, #-388]!
  c8:	756e696c 	strvcb	r6, [lr, #-2412]!
  cc:	63672f78 	cmnvs	r7, #480	; 0x1e0
  d0:	2e332d63 	cdpcs	13, 3, cr2, cr3, cr3, {3}
  d4:	2d352e34 	ldccs	14, cr2, [r5, #-208]!
  d8:	62696c67 	rsbvs	r6, r9, #26368	; 0x6700
  dc:	2e322d63 	cdpcs	13, 3, cr2, cr2, cr3, {3}
  e0:	2f362e33 	swics	0x00362e33
  e4:	6c697562 	cfstr64vs	mvdx7, [r9], #-392
  e8:	63672d64 	cmnvs	r7, #6400	; 0x1900
  ec:	63672f63 	cmnvs	r7, #396	; 0x18c
  f0:	4e470063 	cdpmi	0, 4, cr0, cr7, cr3, {3}
  f4:	53412055 	cmppl	r1, #85	; 0x55
  f8:	312e3220 	teqcc	lr, r0, lsr #4
  fc:	80010035 	andhi	r0, r1, r5, lsr r0
 100:	000000fc 	streqd	r0, [r0], -ip
 104:	00140002 	andeqs	r0, r4, r2
 108:	01040000 	tsteq	r4, r0
 10c:	000001fe 	streqd	r0, [r0], -lr
 110:	30009440 	andcc	r9, r0, r0, asr #8
 114:	300099c0 	andcc	r9, r0, r0, asr #19
 118:	726f772f 	rsbvc	r7, pc, #12320768	; 0xbc0000
 11c:	6f742f6b 	swivs	0x00742f6b
 120:	2f736c6f 	swics	0x00736c6f
 124:	61657263 	cmnvs	r5, r3, ror #4
 128:	635f6574 	cmpvs	pc, #486539264	; 0x1d000000
 12c:	73736f72 	cmnvc	r3, #456	; 0x1c8
 130:	6c6f6f74 	stcvsl	15, cr6, [pc], #-464
 134:	72632f73 	rsbvc	r2, r3, #460	; 0x1cc
 138:	7473736f 	ldrvcbt	r7, [r3], #-879
 13c:	2d6c6f6f 	stccsl	15, cr6, [ip, #-444]!
 140:	33342e30 	teqcc	r4, #768	; 0x300
 144:	6975622f 	ldmvsdb	r5!, {r0, r1, r2, r3, r5, r9, sp, lr}^
 148:	612f646c 	teqvs	pc, ip, ror #8
 14c:	6c2d6d72 	stcvs	13, cr6, [sp], #-456
 150:	78756e69 	ldmvcda	r5!, {r0, r3, r5, r6, r9, sl, fp, sp, lr}^
 154:	6363672f 	cmnvs	r3, #12320768	; 0xbc0000
 158:	342e332d 	strcct	r3, [lr], #-813
 15c:	672d352e 	strvs	r3, [sp, -lr, lsr #10]!
 160:	6362696c 	cmnvs	r2, #1769472	; 0x1b0000
 164:	332e322d 	teqcc	lr, #-805306366	; 0xd0000002
 168:	672f362e 	strvs	r3, [pc, -lr, lsr #12]!
 16c:	332d6363 	teqcc	sp, #-1946157055	; 0x8c000001
 170:	352e342e 	strcc	r3, [lr, #-1070]!
 174:	6363672f 	cmnvs	r3, #12320768	; 0xbc0000
 178:	6e6f632f 	cdpvs	3, 6, cr6, cr15, cr15, {1}
 17c:	2f676966 	swics	0x00676966
 180:	2f6d7261 	swics	0x006d7261
 184:	65656569 	strvsb	r6, [r5, #-1385]!
 188:	2d343537 	cfldr32cs	mvfx3, [r4, #-220]!
 18c:	532e6664 	teqpl	lr, #104857600	; 0x6400000
 190:	6f772f00 	swivs	0x00772f00
 194:	742f6b72 	strvct	r6, [pc], #2930	; 19c <__code_start-0x2ffffe64>
 198:	736c6f6f 	cmnvc	ip, #444	; 0x1bc
 19c:	6572632f 	ldrvsb	r6, [r2, #-815]!
 1a0:	5f657461 	swipl	0x00657461
 1a4:	736f7263 	cmnvc	pc, #805306374	; 0x30000006
 1a8:	6f6f7473 	swivs	0x006f7473
 1ac:	632f736c 	teqvs	pc, #-1342177279	; 0xb0000001
 1b0:	73736f72 	cmnvc	r3, #456	; 0x1c8
 1b4:	6c6f6f74 	stcvsl	15, cr6, [pc], #-464
 1b8:	342e302d 	strcct	r3, [lr], #-45
 1bc:	75622f33 	strvcb	r2, [r2, #-3891]!
 1c0:	2f646c69 	swics	0x00646c69
 1c4:	2d6d7261 	sfmcs	f7, 2, [sp, #-388]!
 1c8:	756e696c 	strvcb	r6, [lr, #-2412]!
 1cc:	63672f78 	cmnvs	r7, #480	; 0x1e0
 1d0:	2e332d63 	cdpcs	13, 3, cr2, cr3, cr3, {3}
 1d4:	2d352e34 	ldccs	14, cr2, [r5, #-208]!
 1d8:	62696c67 	rsbvs	r6, r9, #26368	; 0x6700
 1dc:	2e322d63 	cdpcs	13, 3, cr2, cr2, cr3, {3}
 1e0:	2f362e33 	swics	0x00362e33
 1e4:	6c697562 	cfstr64vs	mvdx7, [r9], #-392
 1e8:	63672d64 	cmnvs	r7, #6400	; 0x1900
 1ec:	63672f63 	cmnvs	r7, #396	; 0x18c
 1f0:	4e470063 	cdpmi	0, 4, cr0, cr7, cr3, {3}
 1f4:	53412055 	cmppl	r1, #85	; 0x55
 1f8:	312e3220 	teqcc	lr, r0, lsr #4
 1fc:	80010035 	andhi	r0, r1, r5, lsr r0
 200:	000000fc 	streqd	r0, [r0], -ip
 204:	00280002 	eoreq	r0, r8, r2
 208:	01040000 	tsteq	r4, r0
 20c:	00000494 	muleq	r0, r4, r4
 210:	300099c0 	andcc	r9, r0, r0, asr #19
 214:	30009a40 	andcc	r9, r0, r0, asr #20
 218:	726f772f 	rsbvc	r7, pc, #12320768	; 0xbc0000
 21c:	6f742f6b 	swivs	0x00742f6b
 220:	2f736c6f 	swics	0x00736c6f
 224:	61657263 	cmnvs	r5, r3, ror #4
 228:	635f6574 	cmpvs	pc, #486539264	; 0x1d000000
 22c:	73736f72 	cmnvc	r3, #456	; 0x1c8
 230:	6c6f6f74 	stcvsl	15, cr6, [pc], #-464
 234:	72632f73 	rsbvc	r2, r3, #460	; 0x1cc
 238:	7473736f 	ldrvcbt	r7, [r3], #-879
 23c:	2d6c6f6f 	stccsl	15, cr6, [ip, #-444]!
 240:	33342e30 	teqcc	r4, #768	; 0x300
 244:	6975622f 	ldmvsdb	r5!, {r0, r1, r2, r3, r5, r9, sp, lr}^
 248:	612f646c 	teqvs	pc, ip, ror #8
 24c:	6c2d6d72 	stcvs	13, cr6, [sp], #-456
 250:	78756e69 	ldmvcda	r5!, {r0, r3, r5, r6, r9, sl, fp, sp, lr}^
 254:	6363672f 	cmnvs	r3, #12320768	; 0xbc0000
 258:	342e332d 	strcct	r3, [lr], #-813
 25c:	672d352e 	strvs	r3, [sp, -lr, lsr #10]!
 260:	6362696c 	cmnvs	r2, #1769472	; 0x1b0000
 264:	332e322d 	teqcc	lr, #-805306366	; 0xd0000002
 268:	672f362e 	strvs	r3, [pc, -lr, lsr #12]!
 26c:	332d6363 	teqcc	sp, #-1946157055	; 0x8c000001
 270:	352e342e 	strcc	r3, [lr, #-1070]!
 274:	6363672f 	cmnvs	r3, #12320768	; 0xbc0000
 278:	6e6f632f 	cdpvs	3, 6, cr6, cr15, cr15, {1}
 27c:	2f676966 	swics	0x00676966
 280:	2f6d7261 	swics	0x006d7261
 284:	65656569 	strvsb	r6, [r5, #-1385]!
 288:	2d343537 	cfldr32cs	mvfx3, [r4, #-220]!
 28c:	532e6664 	teqpl	lr, #104857600	; 0x6400000
 290:	6f772f00 	swivs	0x00772f00
 294:	742f6b72 	strvct	r6, [pc], #2930	; 29c <__code_start-0x2ffffd64>
 298:	736c6f6f 	cmnvc	ip, #444	; 0x1bc
 29c:	6572632f 	ldrvsb	r6, [r2, #-815]!
 2a0:	5f657461 	swipl	0x00657461
 2a4:	736f7263 	cmnvc	pc, #805306374	; 0x30000006
 2a8:	6f6f7473 	swivs	0x006f7473
 2ac:	632f736c 	teqvs	pc, #-1342177279	; 0xb0000001
 2b0:	73736f72 	cmnvc	r3, #456	; 0x1c8
 2b4:	6c6f6f74 	stcvsl	15, cr6, [pc], #-464
 2b8:	342e302d 	strcct	r3, [lr], #-45
 2bc:	75622f33 	strvcb	r2, [r2, #-3891]!
 2c0:	2f646c69 	swics	0x00646c69
 2c4:	2d6d7261 	sfmcs	f7, 2, [sp, #-388]!
 2c8:	756e696c 	strvcb	r6, [lr, #-2412]!
 2cc:	63672f78 	cmnvs	r7, #480	; 0x1e0
 2d0:	2e332d63 	cdpcs	13, 3, cr2, cr3, cr3, {3}
 2d4:	2d352e34 	ldccs	14, cr2, [r5, #-208]!
 2d8:	62696c67 	rsbvs	r6, r9, #26368	; 0x6700
 2dc:	2e322d63 	cdpcs	13, 3, cr2, cr2, cr3, {3}
 2e0:	2f362e33 	swics	0x00362e33
 2e4:	6c697562 	cfstr64vs	mvdx7, [r9], #-392
 2e8:	63672d64 	cmnvs	r7, #6400	; 0x1900
 2ec:	63672f63 	cmnvs	r7, #396	; 0x18c
 2f0:	4e470063 	cdpmi	0, 4, cr0, cr7, cr3, {3}
 2f4:	53412055 	cmppl	r1, #85	; 0x55
 2f8:	312e3220 	teqcc	lr, r0, lsr #4
 2fc:	80010035 	andhi	r0, r1, r5, lsr r0
Disassembly of section .debug_abbrev:

00000000 <.debug_abbrev>:
   0:	10001101 	andne	r1, r0, r1, lsl #2
   4:	12011106 	andne	r1, r1, #-2147483647	; 0x80000001
   8:	1b080301 	blne	200c14 <__code_start-0x2fdff3ec>
   c:	13082508 	tstne	r8, #33554432	; 0x2000000
  10:	00000005 	andeq	r0, r0, r5
  14:	10001101 	andne	r1, r0, r1, lsl #2
  18:	12011106 	andne	r1, r1, #-2147483647	; 0x80000001
  1c:	1b080301 	blne	200c28 <__code_start-0x2fdff3d8>
  20:	13082508 	tstne	r8, #33554432	; 0x2000000
  24:	00000005 	andeq	r0, r0, r5
  28:	10001101 	andne	r1, r0, r1, lsl #2
  2c:	12011106 	andne	r1, r1, #-2147483647	; 0x80000001
  30:	1b080301 	blne	200c3c <__code_start-0x2fdff3c4>
  34:	13082508 	tstne	r8, #33554432	; 0x2000000
  38:	00000005 	andeq	r0, r0, r5
Disassembly of section .debug_line:

00000000 <.debug_line>:
   0:	000001e0 	andeq	r0, r0, r0, ror #3
   4:	009d0002 	addeqs	r0, sp, r2
   8:	01020000 	tsteq	r2, r0
   c:	000a0efb 	streqd	r0, [sl], -fp
  10:	01010101 	tsteq	r1, r1, lsl #2
  14:	01000000 	tsteq	r0, r0
  18:	726f772f 	rsbvc	r7, pc, #12320768	; 0xbc0000
  1c:	6f742f6b 	swivs	0x00742f6b
  20:	2f736c6f 	swics	0x00736c6f
  24:	61657263 	cmnvs	r5, r3, ror #4
  28:	635f6574 	cmpvs	pc, #486539264	; 0x1d000000
  2c:	73736f72 	cmnvc	r3, #456	; 0x1c8
  30:	6c6f6f74 	stcvsl	15, cr6, [pc], #-464
  34:	72632f73 	rsbvc	r2, r3, #460	; 0x1cc
  38:	7473736f 	ldrvcbt	r7, [r3], #-879
  3c:	2d6c6f6f 	stccsl	15, cr6, [ip, #-444]!
  40:	33342e30 	teqcc	r4, #768	; 0x300
  44:	6975622f 	ldmvsdb	r5!, {r0, r1, r2, r3, r5, r9, sp, lr}^
  48:	612f646c 	teqvs	pc, ip, ror #8
  4c:	6c2d6d72 	stcvs	13, cr6, [sp], #-456
  50:	78756e69 	ldmvcda	r5!, {r0, r3, r5, r6, r9, sl, fp, sp, lr}^
  54:	6363672f 	cmnvs	r3, #12320768	; 0xbc0000
  58:	342e332d 	strcct	r3, [lr], #-813
  5c:	672d352e 	strvs	r3, [sp, -lr, lsr #10]!
  60:	6362696c 	cmnvs	r2, #1769472	; 0x1b0000
  64:	332e322d 	teqcc	lr, #-805306366	; 0xd0000002
  68:	672f362e 	strvs	r3, [pc, -lr, lsr #12]!
  6c:	332d6363 	teqcc	sp, #-1946157055	; 0x8c000001
  70:	352e342e 	strcc	r3, [lr, #-1070]!
  74:	6363672f 	cmnvs	r3, #12320768	; 0xbc0000
  78:	6e6f632f 	cdpvs	3, 6, cr6, cr15, cr15, {1}
  7c:	2f676966 	swics	0x00676966
  80:	006d7261 	rsbeq	r7, sp, r1, ror #4
  84:	65656900 	strvsb	r6, [r5, #-2304]!
  88:	34353765 	ldrcct	r3, [r5], #-1893
  8c:	2e66642d 	cdpcs	4, 6, cr6, cr6, cr13, {1}
  90:	00010053 	andeq	r0, r1, r3, asr r0
  94:	62696c00 	rsbvs	r6, r9, #0	; 0x0
  98:	6e756631 	mrcvs	6, 3, r6, cr5, cr1, {1}
  9c:	612e7363 	teqvs	lr, r3, ror #6
  a0:	01006d73 	tsteq	r0, r3, ror sp
  a4:	00000000 	andeq	r0, r0, r0
  a8:	90b80205 	adclss	r0, r8, r5, lsl #4
  ac:	c9033000 	stmgtdb	r3, {ip, sp}
  b0:	2c330100 	ldfcss	f0, [r3]
  b4:	2c2f2c2c 	stccs	12, cr2, [pc], #-176
  b8:	2d2c2c2c 	stccs	12, cr2, [ip, #-176]!
  bc:	2c2c2c2e 	stccs	12, cr2, [ip], #-184
  c0:	2f2c2c2e 	swics	0x002c2c2e
  c4:	2c2c2c2c 	stccs	12, cr2, [ip], #-176
  c8:	2c2c2c2c 	stccs	12, cr2, [ip], #-176
  cc:	0204312c 	andeq	r3, r4, #11	; 0xb
  d0:	33010427 	tstcc	r1, #654311424	; 0x27000000
  d4:	2c2c2c2c 	stccs	12, cr2, [ip], #-176
  d8:	2c2c2d2c 	stccs	13, cr2, [ip], #-176
  dc:	2f2c2c2c 	swics	0x002c2c2c
  e0:	2c2c302c 	stccs	0, cr3, [ip], #-176
  e4:	2c2c2c2c 	stccs	12, cr2, [ip], #-176
  e8:	2e2c2c2c 	cdpcs	12, 2, cr2, cr12, cr12, {1}
  ec:	2c2c2c2c 	stccs	12, cr2, [ip], #-176
  f0:	2c2c2c2c 	stccs	12, cr2, [ip], #-176
  f4:	2c2c2c2c 	stccs	12, cr2, [ip], #-176
  f8:	2c2f2c2e 	stccs	12, cr2, [pc], #-184
  fc:	2f2c2c2c 	swics	0x002c2c2c
 100:	2c2c2c2c 	stccs	12, cr2, [ip], #-176
 104:	2c2c2e2c 	stccs	14, cr2, [ip], #-176
 108:	2c2d2c2c 	stccs	12, cr2, [sp], #-176
 10c:	312c2c2c 	teqcc	ip, ip, lsr #24
 110:	2f2c2c2c 	swics	0x002c2c2c
 114:	2f2c2e2c 	swics	0x002c2e2c
 118:	02042c2c 	andeq	r2, r4, #11264	; 0x2c00
 11c:	2b7f9003 	blcs	1fe4130 <__code_start-0x2e01bed0>
 120:	f8030104 	stmnvda	r3, {r2, r8}
 124:	2c2c2b00 	stccs	11, cr2, [ip]
 128:	2c2c2c2c 	stccs	12, cr2, [ip], #-176
 12c:	2c2c2c2c 	stccs	12, cr2, [ip], #-176
 130:	2c2c2c2c 	stccs	12, cr2, [ip], #-176
 134:	2c2c2c2c 	stccs	12, cr2, [ip], #-176
 138:	2b0e032c 	blcs	380df0 <__code_start-0x2fc7f210>
 13c:	2f2c2c2c 	swics	0x002c2c2c
 140:	2c2c2c2c 	stccs	12, cr2, [ip], #-176
 144:	2c2c2c2f 	stccs	12, cr2, [ip], #-188
 148:	2f2c2e2c 	swics	0x002c2e2c
 14c:	2c2c2c2c 	stccs	12, cr2, [ip], #-176
 150:	2c2c2c2e 	stccs	12, cr2, [ip], #-184
 154:	0302042c 	tsteq	r2, #738197504	; 0x2c000000
 158:	042b7ec1 	streqt	r7, [fp], #-3777
 15c:	01c40301 	biceq	r0, r4, r1, lsl #6
 160:	2c2c2c2b 	stccs	12, cr2, [ip], #-172
 164:	0302042c 	tsteq	r2, #738197504	; 0x2c000000
 168:	042b7eb8 	streqt	r7, [fp], #-3768
 16c:	01cd0301 	biceq	r0, sp, r1, lsl #6
 170:	02042c2b 	andeq	r2, r4, #11008	; 0x2b00
 174:	2b7eb203 	blcs	1fac988 <__code_start-0x2e053678>
 178:	d3030104 	tstle	r3, #1	; 0x1
 17c:	2c2c2b01 	stccs	11, cr2, [ip], #-4
 180:	2f2c2c2c 	swics	0x002c2c2c
 184:	2c2c2c2c 	stccs	12, cr2, [ip], #-176
 188:	2c2f2c2c 	stccs	12, cr2, [pc], #-176
 18c:	0302042c 	tsteq	r2, #738197504	; 0x2c000000
 190:	042b7e98 	streqt	r7, [fp], #-3736
 194:	01f20301 	mvneqs	r0, r1, lsl #6
 198:	2c2c2c2b 	stccs	12, cr2, [ip], #-172
 19c:	8b030204 	blhi	c09b4 <__code_start-0x2ff3f64c>
 1a0:	01042b7e 	tsteq	r4, lr, ror fp
 1a4:	2b01f803 	blcs	7e1b8 <__code_start-0x2ff81e48>
 1a8:	2c2c2c2c 	stccs	12, cr2, [ip], #-176
 1ac:	84030204 	strhi	r0, [r3], #-516
 1b0:	01042b7e 	tsteq	r4, lr, ror fp
 1b4:	2b028303 	blcs	a0dc8 <__code_start-0x2ff5f238>
 1b8:	2c2c2c2c 	stccs	12, cr2, [ip], #-176
 1bc:	2c2c2c2c 	stccs	12, cr2, [ip], #-176
 1c0:	2c2c302c 	stccs	0, cr3, [ip], #-176
 1c4:	2c2c2c2c 	stccs	12, cr2, [ip], #-176
 1c8:	2c2c2c2c 	stccs	12, cr2, [ip], #-176
 1cc:	2c2c2c30 	stccs	12, cr2, [ip], #-192
 1d0:	2c2c2c2c 	stccs	12, cr2, [ip], #-176
 1d4:	2c2d2c2c 	stccs	12, cr2, [sp], #-176
 1d8:	2c2c2e2c 	stccs	14, cr2, [ip], #-176
 1dc:	022c2c2c 	eoreq	r2, ip, #11264	; 0x2c00
 1e0:	01010002 	tsteq	r1, r2
 1e4:	00000016 	andeq	r0, r0, r6, lsl r0
 1e8:	00100002 	andeqs	r0, r0, r2
 1ec:	01020000 	tsteq	r2, r0
 1f0:	000a0efb 	streqd	r0, [sl], -fp
 1f4:	01010101 	tsteq	r1, r1, lsl #2
 1f8:	01000000 	tsteq	r0, r0
 1fc:	02780000 	rsbeqs	r0, r8, #0	; 0x0
 200:	00020000 	andeq	r0, r2, r0
 204:	0000009d 	muleq	r0, sp, r0
 208:	0efb0102 	cdpeq	1, 15, cr0, cr11, cr2, {0}
 20c:	0101000a 	tsteq	r1, sl
 210:	00000101 	andeq	r0, r0, r1, lsl #2
 214:	772f0100 	strvc	r0, [pc, -r0, lsl #2]!
 218:	2f6b726f 	swics	0x006b726f
 21c:	6c6f6f74 	stcvsl	15, cr6, [pc], #-464
 220:	72632f73 	rsbvc	r2, r3, #460	; 0x1cc
 224:	65746165 	ldrvsb	r6, [r4, #-357]!
 228:	6f72635f 	swivs	0x0072635f
 22c:	6f747373 	swivs	0x00747373
 230:	2f736c6f 	swics	0x00736c6f
 234:	736f7263 	cmnvc	pc, #805306374	; 0x30000006
 238:	6f6f7473 	swivs	0x006f7473
 23c:	2e302d6c 	cdpcs	13, 3, cr2, cr0, cr12, {3}
 240:	622f3334 	eorvs	r3, pc, #-805306368	; 0xd0000000
 244:	646c6975 	strvsbt	r6, [ip], #-2421
 248:	6d72612f 	ldfvse	f6, [r2, #-188]!
 24c:	6e696c2d 	cdpvs	12, 6, cr6, cr9, cr13, {1}
 250:	672f7875 	undefined
 254:	332d6363 	teqcc	sp, #-1946157055	; 0x8c000001
 258:	352e342e 	strcc	r3, [lr, #-1070]!
 25c:	696c672d 	stmvsdb	ip!, {r0, r2, r3, r5, r8, r9, sl, sp, lr}^
 260:	322d6362 	eorcc	r6, sp, #-2013265919	; 0x88000001
 264:	362e332e 	strcct	r3, [lr], -lr, lsr #6
 268:	6363672f 	cmnvs	r3, #12320768	; 0xbc0000
 26c:	342e332d 	strcct	r3, [lr], #-813
 270:	672f352e 	strvs	r3, [pc, -lr, lsr #10]!
 274:	632f6363 	teqvs	pc, #-1946157055	; 0x8c000001
 278:	69666e6f 	stmvsdb	r6!, {r0, r1, r2, r3, r5, r6, r9, sl, fp, sp, lr}^
 27c:	72612f67 	rsbvc	r2, r1, #412	; 0x19c
 280:	6900006d 	stmvsdb	r0, {r0, r2, r3, r5, r6}
 284:	37656565 	strccb	r6, [r5, -r5, ror #10]!
 288:	642d3435 	strvst	r3, [sp], #-1077
 28c:	00532e66 	subeqs	r2, r3, r6, ror #28
 290:	6c000001 	stcvs	0, cr0, [r0], {1}
 294:	66316269 	ldrvst	r6, [r1], -r9, ror #4
 298:	73636e75 	cmnvc	r3, #1872	; 0x750
 29c:	6d73612e 	ldfvse	f6, [r3, #-184]!
 2a0:	00000100 	andeq	r0, r0, r0, lsl #2
 2a4:	02050000 	andeq	r0, r5, #0	; 0x0
 2a8:	30009440 	andcc	r9, r0, r0, asr #8
 2ac:	0103b703 	tsteq	r3, r3, lsl #14
 2b0:	2c2c2c2e 	stccs	12, cr2, [ip], #-184
 2b4:	2e2c2c2e 	cdpcs	12, 2, cr2, cr12, cr14, {1}
 2b8:	2c302c2c 	ldccs	12, cr2, [r0], #-176
 2bc:	2c2e2d2c 	stccs	13, cr2, [lr], #-176
 2c0:	2c2c2c2e 	stccs	12, cr2, [ip], #-184
 2c4:	2c2c2c31 	stccs	12, cr2, [ip], #-196
 2c8:	2c2c2c2c 	stccs	12, cr2, [ip], #-176
 2cc:	2c2c2c2c 	stccs	12, cr2, [ip], #-176
 2d0:	2c2c2c2c 	stccs	12, cr2, [ip], #-176
 2d4:	2c2c2c2c 	stccs	12, cr2, [ip], #-176
 2d8:	2c2c2c2c 	stccs	12, cr2, [ip], #-176
 2dc:	2c2c2c2c 	stccs	12, cr2, [ip], #-176
 2e0:	2c2c2c2c 	stccs	12, cr2, [ip], #-176
 2e4:	2c2c2c2c 	stccs	12, cr2, [ip], #-176
 2e8:	2c2c2c2c 	stccs	12, cr2, [ip], #-176
 2ec:	2c2c2c2c 	stccs	12, cr2, [ip], #-176
 2f0:	2c2c2c2c 	stccs	12, cr2, [ip], #-176
 2f4:	2c2c2c2c 	stccs	12, cr2, [ip], #-176
 2f8:	2b10032c 	blcs	400fb0 <__code_start-0x2fbff050>
 2fc:	2e2c2e2c 	cdpcs	14, 2, cr2, cr12, cr12, {1}
 300:	2c2c2c2c 	stccs	12, cr2, [ip], #-176
 304:	2c2f2c2c 	stccs	12, cr2, [pc], #-176
 308:	2c2e2c2c 	stccs	12, cr2, [lr], #-176
 30c:	2c2c2e2c 	stccs	14, cr2, [ip], #-176
 310:	2f2c2c2c 	swics	0x002c2c2c
 314:	2c2c2e2c 	stccs	14, cr2, [ip], #-176
 318:	02042c2e 	andeq	r2, r4, #11776	; 0x2e00
 31c:	2b7ca403 	blcs	1f29330 <__code_start-0x2e0d6cd0>
 320:	e1030104 	tst	r3, r4, lsl #2
 324:	2c2d2b03 	stccs	11, cr2, [sp], #-12
 328:	9c030204 	sfmls	f0, 4, [r3], {4}
 32c:	01042b7c 	tsteq	r4, ip, ror fp
 330:	2b03e903 	blcs	fa744 <__code_start-0x2ff058bc>
 334:	02042c2c 	andeq	r2, r4, #11264	; 0x2c00
 338:	2b7c9503 	blcs	1f2574c <__code_start-0x2e0da8b4>
 33c:	f0030104 	andnv	r0, r3, r4, lsl #2
 340:	2c2c2b03 	stccs	11, cr2, [ip], #-12
 344:	2c2e2c2c 	stccs	12, cr2, [lr], #-176
 348:	2c2c2c2c 	stccs	12, cr2, [ip], #-176
 34c:	2c2c2c2c 	stccs	12, cr2, [ip], #-176
 350:	042c2c2c 	streqt	r2, [ip], #-3116
 354:	7bfd0302 	blvc	fff40f64 <_end+0xcff2f624>
 358:	0301042b 	tsteq	r1, #721420288	; 0x2b000000
 35c:	2c2b0488 	cfstrscs	mvf0, [fp], #-544
 360:	2c2c2c2c 	stccs	12, cr2, [ip], #-176
 364:	2c2c2c2c 	stccs	12, cr2, [ip], #-176
 368:	0302042c 	tsteq	r2, #738197504	; 0x2c000000
 36c:	042b7bee 	streqt	r7, [fp], #-3054
 370:	04970301 	ldreq	r0, [r7], #769
 374:	2c2c2c2b 	stccs	12, cr2, [ip], #-172
 378:	2c2c2c2c 	stccs	12, cr2, [ip], #-176
 37c:	042c2c2c 	streqt	r2, [ip], #-3116
 380:	7bdf0302 	blvc	ff7c0f90 <_end+0xcf7af650>
 384:	0301042b 	tsteq	r1, #721420288	; 0x2b000000
 388:	2c2b04a7 	cfstrscs	mvf0, [fp], #-668
 38c:	2c2c2c2c 	stccs	12, cr2, [ip], #-176
 390:	2c2c2c2c 	stccs	12, cr2, [ip], #-176
 394:	2c2c2c2c 	stccs	12, cr2, [ip], #-176
 398:	2c2c2c2c 	stccs	12, cr2, [ip], #-176
 39c:	2c2f2c2c 	stccs	12, cr2, [pc], #-176
 3a0:	2c2c2c2c 	stccs	12, cr2, [ip], #-176
 3a4:	2c2c2c2c 	stccs	12, cr2, [ip], #-176
 3a8:	2c2f2f2c 	stccs	15, cr2, [pc], #-176
 3ac:	02042c2c 	andeq	r2, r4, #11264	; 0x2c00
 3b0:	2b7bad03 	blcs	1eeb7c4 <__code_start-0x2e11483c>
 3b4:	d8030104 	stmleda	r3, {r2, r8}
 3b8:	042c2b04 	streqt	r2, [ip], #-2820
 3bc:	7ba70302 	blvc	fe9c0fcc <_end+0xce9af68c>
 3c0:	0301042b 	tsteq	r1, #721420288	; 0x2b000000
 3c4:	2e2b04e0 	cdpcs	4, 2, cr0, cr11, cr0, {7}
 3c8:	2e2c2c2c 	cdpcs	12, 2, cr2, cr12, cr12, {1}
 3cc:	2c2c2c2c 	stccs	12, cr2, [ip], #-176
 3d0:	2d2c2c30 	stccs	12, cr2, [ip, #-192]!
 3d4:	2c2c2f2e 	stccs	15, cr2, [ip], #-184
 3d8:	2c2c2c2c 	stccs	12, cr2, [ip], #-176
 3dc:	2c2c2c2c 	stccs	12, cr2, [ip], #-176
 3e0:	2c2c2e2e 	stccs	14, cr2, [ip], #-184
 3e4:	2e2c2c2c 	cdpcs	12, 2, cr2, cr12, cr12, {1}
 3e8:	2c2c2c2c 	stccs	12, cr2, [ip], #-176
 3ec:	2c2c2e2c 	stccs	14, cr2, [ip], #-176
 3f0:	2e2c2c2c 	cdpcs	12, 2, cr2, cr12, cr12, {1}
 3f4:	2c2c2c2c 	stccs	12, cr2, [ip], #-176
 3f8:	2c2c2c2c 	stccs	12, cr2, [ip], #-176
 3fc:	2c2c2c2c 	stccs	12, cr2, [ip], #-176
 400:	2c2c2c2c 	stccs	12, cr2, [ip], #-176
 404:	2c2c2c2c 	stccs	12, cr2, [ip], #-176
 408:	2c2c2c2c 	stccs	12, cr2, [ip], #-176
 40c:	2c2c2d2c 	stccs	13, cr2, [ip], #-176
 410:	2c2c2c2c 	stccs	12, cr2, [ip], #-176
 414:	2f2c2c2c 	swics	0x002c2c2c
 418:	2c2c2c2c 	stccs	12, cr2, [ip], #-176
 41c:	2c2c2e2c 	stccs	14, cr2, [ip], #-176
 420:	2c2e2c2e 	stccs	12, cr2, [lr], #-184
 424:	2c2c2c2c 	stccs	12, cr2, [ip], #-176
 428:	02042c2e 	andeq	r2, r4, #11776	; 0x2e00
 42c:	2b7a9903 	blcs	1ea6840 <__code_start-0x2e1597c0>
 430:	ec030104 	stfs	f0, [r3], {4}
 434:	2c2c2b05 	stccs	11, cr2, [ip], #-20
 438:	2c2c2c2c 	stccs	12, cr2, [ip], #-176
 43c:	0302042c 	tsteq	r2, #738197504	; 0x2c000000
 440:	042b7a8d 	streqt	r7, [fp], #-2701
 444:	05f60301 	ldreqb	r0, [r6, #769]!
 448:	2c2c2c2b 	stccs	12, cr2, [ip], #-172
 44c:	302c302c 	eorcc	r3, ip, ip, lsr #32
 450:	2c2c2c2c 	stccs	12, cr2, [ip], #-176
 454:	2c2c2c2c 	stccs	12, cr2, [ip], #-176
 458:	2c2c2c2c 	stccs	12, cr2, [ip], #-176
 45c:	2c2c2c2c 	stccs	12, cr2, [ip], #-176
 460:	2f2c2c2c 	swics	0x002c2c2c
 464:	2c2c2c2c 	stccs	12, cr2, [ip], #-176
 468:	2c2c2c2c 	stccs	12, cr2, [ip], #-176
 46c:	2c2c2c2c 	stccs	12, cr2, [ip], #-176
 470:	2c2c2c2d 	stccs	12, cr2, [ip], #-180
 474:	0002022c 	andeq	r0, r2, ip, lsr #4
 478:	00160101 	andeqs	r0, r6, r1, lsl #2
 47c:	00020000 	andeq	r0, r2, r0
 480:	00000010 	andeq	r0, r0, r0, lsl r0
 484:	0efb0102 	cdpeq	1, 15, cr0, cr11, cr2, {0}
 488:	0101000a 	tsteq	r1, sl
 48c:	00000101 	andeq	r0, r0, r1, lsl #2
 490:	00000100 	andeq	r0, r0, r0, lsl #2
 494:	000000c1 	andeq	r0, r0, r1, asr #1
 498:	008c0002 	addeq	r0, ip, r2
 49c:	01020000 	tsteq	r2, r0
 4a0:	000a0efb 	streqd	r0, [sl], -fp
 4a4:	01010101 	tsteq	r1, r1, lsl #2
 4a8:	01000000 	tsteq	r0, r0
 4ac:	726f772f 	rsbvc	r7, pc, #12320768	; 0xbc0000
 4b0:	6f742f6b 	swivs	0x00742f6b
 4b4:	2f736c6f 	swics	0x00736c6f
 4b8:	61657263 	cmnvs	r5, r3, ror #4
 4bc:	635f6574 	cmpvs	pc, #486539264	; 0x1d000000
 4c0:	73736f72 	cmnvc	r3, #456	; 0x1c8
 4c4:	6c6f6f74 	stcvsl	15, cr6, [pc], #-464
 4c8:	72632f73 	rsbvc	r2, r3, #460	; 0x1cc
 4cc:	7473736f 	ldrvcbt	r7, [r3], #-879
 4d0:	2d6c6f6f 	stccsl	15, cr6, [ip, #-444]!
 4d4:	33342e30 	teqcc	r4, #768	; 0x300
 4d8:	6975622f 	ldmvsdb	r5!, {r0, r1, r2, r3, r5, r9, sp, lr}^
 4dc:	612f646c 	teqvs	pc, ip, ror #8
 4e0:	6c2d6d72 	stcvs	13, cr6, [sp], #-456
 4e4:	78756e69 	ldmvcda	r5!, {r0, r3, r5, r6, r9, sl, fp, sp, lr}^
 4e8:	6363672f 	cmnvs	r3, #12320768	; 0xbc0000
 4ec:	342e332d 	strcct	r3, [lr], #-813
 4f0:	672d352e 	strvs	r3, [sp, -lr, lsr #10]!
 4f4:	6362696c 	cmnvs	r2, #1769472	; 0x1b0000
 4f8:	332e322d 	teqcc	lr, #-805306366	; 0xd0000002
 4fc:	672f362e 	strvs	r3, [pc, -lr, lsr #12]!
 500:	332d6363 	teqcc	sp, #-1946157055	; 0x8c000001
 504:	352e342e 	strcc	r3, [lr, #-1070]!
 508:	6363672f 	cmnvs	r3, #12320768	; 0xbc0000
 50c:	6e6f632f 	cdpvs	3, 6, cr6, cr15, cr15, {1}
 510:	2f676966 	swics	0x00676966
 514:	006d7261 	rsbeq	r7, sp, r1, ror #4
 518:	65656900 	strvsb	r6, [r5, #-2304]!
 51c:	34353765 	ldrcct	r3, [r5], #-1893
 520:	2e66642d 	cdpcs	4, 6, cr6, cr6, cr13, {1}
 524:	00010053 	andeq	r0, r1, r3, asr r0
 528:	05000000 	streq	r0, [r0]
 52c:	0099c002 	addeqs	ip, r9, r2
 530:	08960330 	ldmeqia	r6, {r4, r5, r8, r9}
 534:	2e2d2c01 	cdpcs	12, 2, cr2, cr13, cr1, {0}
 538:	2c2c2c2c 	stccs	12, cr2, [ip], #-176
 53c:	2c2c2c2c 	stccs	12, cr2, [ip], #-176
 540:	2c2d2c2c 	stccs	12, cr2, [sp], #-176
 544:	2c2c2c2c 	stccs	12, cr2, [ip], #-176
 548:	2d2c2c2c 	stccs	12, cr2, [ip, #-176]!
 54c:	2c2c2d2c 	stccs	13, cr2, [ip], #-176
 550:	2c2d2c2c 	stccs	12, cr2, [sp], #-176
 554:	01000202 	tsteq	r0, r2, lsl #4
 558:	00001601 	andeq	r1, r0, r1, lsl #12
 55c:	10000200 	andne	r0, r0, r0, lsl #4
 560:	02000000 	andeq	r0, r0, #0	; 0x0
 564:	0a0efb01 	beq	3bf170 <__code_start-0x2fc40e90>
 568:	01010100 	tsteq	r1, r0, lsl #2
 56c:	00000001 	andeq	r0, r0, r1
 570:	Address 0x570 is out of bounds.

